
Bootloader.elf:     file format elf32-littlearm

Sections:
Idx Name          Size      VMA       LMA       File off  Algn
  0 .text         00003a74  00000000  00000000  00010000  2**2
                  CONTENTS, ALLOC, LOAD, READONLY, CODE
  1 .relocate     00000070  20000000  00003a74  00020000  2**2
                  CONTENTS, ALLOC, LOAD, DATA
  2 .bss          0000011c  20000070  00003ae4  00020070  2**2
                  ALLOC
  3 .stack        00002004  2000018c  00003c00  00020070  2**0
                  ALLOC
  4 .ARM.attributes 00000028  00000000  00000000  00020070  2**0
                  CONTENTS, READONLY
  5 .comment      00000059  00000000  00000000  00020098  2**0
                  CONTENTS, READONLY
  6 .debug_info   00036c95  00000000  00000000  000200f1  2**0
                  CONTENTS, READONLY, DEBUGGING
  7 .debug_abbrev 00004c64  00000000  00000000  00056d86  2**0
                  CONTENTS, READONLY, DEBUGGING
  8 .debug_loc    00007b0f  00000000  00000000  0005b9ea  2**0
                  CONTENTS, READONLY, DEBUGGING
  9 .debug_aranges 000006d8  00000000  00000000  000634f9  2**0
                  CONTENTS, READONLY, DEBUGGING
 10 .debug_ranges 00000ee8  00000000  00000000  00063bd1  2**0
                  CONTENTS, READONLY, DEBUGGING
 11 .debug_macro  000081dc  00000000  00000000  00064ab9  2**0
                  CONTENTS, READONLY, DEBUGGING
 12 .debug_line   00010913  00000000  00000000  0006cc95  2**0
                  CONTENTS, READONLY, DEBUGGING
 13 .debug_str    000893cb  00000000  00000000  0007d5a8  2**0
                  CONTENTS, READONLY, DEBUGGING
 14 .debug_frame  00001958  00000000  00000000  00106974  2**2
                  CONTENTS, READONLY, DEBUGGING

Disassembly of section .text:

00000000 <exception_table>:
       0:	90 21 00 20 09 1d 00 00 05 1d 00 00 05 1d 00 00     .!. ............
	...
      2c:	05 1d 00 00 00 00 00 00 00 00 00 00 05 1d 00 00     ................
      3c:	05 1d 00 00 05 1d 00 00 05 1d 00 00 05 1d 00 00     ................
      4c:	05 1d 00 00 05 1d 00 00 05 1d 00 00 05 1d 00 00     ................
      5c:	05 1d 00 00 05 1d 00 00 79 11 00 00 89 11 00 00     ........y.......
      6c:	99 11 00 00 a9 11 00 00 b9 11 00 00 c9 11 00 00     ................
      7c:	05 1d 00 00 05 1d 00 00 05 1d 00 00 05 1d 00 00     ................
      8c:	05 1d 00 00 05 1d 00 00 00 00 00 00 00 00 00 00     ................
      9c:	05 1d 00 00 05 1d 00 00 05 1d 00 00 05 1d 00 00     ................
      ac:	05 1d 00 00 00 00 00 00                             ........

000000b4 <__do_global_dtors_aux>:
      b4:	b510      	push	{r4, lr}
      b6:	4c06      	ldr	r4, [pc, #24]	; (d0 <__do_global_dtors_aux+0x1c>)
      b8:	7823      	ldrb	r3, [r4, #0]
      ba:	2b00      	cmp	r3, #0
      bc:	d107      	bne.n	ce <__do_global_dtors_aux+0x1a>
      be:	4b05      	ldr	r3, [pc, #20]	; (d4 <__do_global_dtors_aux+0x20>)
      c0:	2b00      	cmp	r3, #0
      c2:	d002      	beq.n	ca <__do_global_dtors_aux+0x16>
      c4:	4804      	ldr	r0, [pc, #16]	; (d8 <__do_global_dtors_aux+0x24>)
      c6:	e000      	b.n	ca <__do_global_dtors_aux+0x16>
      c8:	bf00      	nop
      ca:	2301      	movs	r3, #1
      cc:	7023      	strb	r3, [r4, #0]
      ce:	bd10      	pop	{r4, pc}
      d0:	20000070 	.word	0x20000070
      d4:	00000000 	.word	0x00000000
      d8:	00003a74 	.word	0x00003a74

000000dc <frame_dummy>:
      dc:	4b08      	ldr	r3, [pc, #32]	; (100 <frame_dummy+0x24>)
      de:	b510      	push	{r4, lr}
      e0:	2b00      	cmp	r3, #0
      e2:	d003      	beq.n	ec <frame_dummy+0x10>
      e4:	4907      	ldr	r1, [pc, #28]	; (104 <frame_dummy+0x28>)
      e6:	4808      	ldr	r0, [pc, #32]	; (108 <frame_dummy+0x2c>)
      e8:	e000      	b.n	ec <frame_dummy+0x10>
      ea:	bf00      	nop
      ec:	4807      	ldr	r0, [pc, #28]	; (10c <frame_dummy+0x30>)
      ee:	6803      	ldr	r3, [r0, #0]
      f0:	2b00      	cmp	r3, #0
      f2:	d100      	bne.n	f6 <frame_dummy+0x1a>
      f4:	bd10      	pop	{r4, pc}
      f6:	4b06      	ldr	r3, [pc, #24]	; (110 <frame_dummy+0x34>)
      f8:	2b00      	cmp	r3, #0
      fa:	d0fb      	beq.n	f4 <frame_dummy+0x18>
      fc:	4798      	blx	r3
      fe:	e7f9      	b.n	f4 <frame_dummy+0x18>
     100:	00000000 	.word	0x00000000
     104:	20000074 	.word	0x20000074
     108:	00003a74 	.word	0x00003a74
     10c:	00003a74 	.word	0x00003a74
     110:	00000000 	.word	0x00000000

00000114 <usart_serial_getchar>:
 * \param[out]    c       Destination for the read character.
 */
static inline void usart_serial_getchar(
		struct usart_module *const module,
		uint8_t *c)
{
     114:	b573      	push	{r0, r1, r4, r5, r6, lr}
	uint16_t temp = 0;
     116:	466b      	mov	r3, sp
     118:	1d9c      	adds	r4, r3, #6
     11a:	2300      	movs	r3, #0
{
     11c:	0006      	movs	r6, r0
     11e:	000d      	movs	r5, r1
	uint16_t temp = 0;
     120:	8023      	strh	r3, [r4, #0]

	while(STATUS_OK != usart_read_wait(module, &temp));
     122:	0021      	movs	r1, r4
     124:	0030      	movs	r0, r6
     126:	4b03      	ldr	r3, [pc, #12]	; (134 <usart_serial_getchar+0x20>)
     128:	4798      	blx	r3
     12a:	2800      	cmp	r0, #0
     12c:	d1f9      	bne.n	122 <usart_serial_getchar+0xe>

	*c = temp;
     12e:	8823      	ldrh	r3, [r4, #0]
     130:	702b      	strb	r3, [r5, #0]
}
     132:	bd73      	pop	{r0, r1, r4, r5, r6, pc}
     134:	00001561 	.word	0x00001561

00000138 <usart_serial_putchar>:
{
     138:	b570      	push	{r4, r5, r6, lr}
     13a:	0004      	movs	r4, r0
     13c:	000d      	movs	r5, r1
	while(STATUS_OK !=usart_write_wait(module, c));
     13e:	b2a9      	uxth	r1, r5
     140:	0020      	movs	r0, r4
     142:	4b02      	ldr	r3, [pc, #8]	; (14c <usart_serial_putchar+0x14>)
     144:	4798      	blx	r3
     146:	2800      	cmp	r0, #0
     148:	d1f9      	bne.n	13e <usart_serial_putchar+0x6>
}
     14a:	bd70      	pop	{r4, r5, r6, pc}
     14c:	00001531 	.word	0x00001531

00000150 <configure_usart>:
{
	/* Sanity check arguments */
	Assert(config);

	/* Set default config in the config struct */
	config->data_order       = USART_DATAORDER_LSB;
     150:	2380      	movs	r3, #128	; 0x80
#endif

#ifdef STDIO_SERIAL_H_INCLUDED
extern struct usart_module usart_instance;
void configure_usart()
{
     152:	b5f0      	push	{r4, r5, r6, r7, lr}
     154:	05db      	lsls	r3, r3, #23
     156:	b091      	sub	sp, #68	; 0x44
	config->transfer_mode    = USART_TRANSFER_ASYNCHRONOUSLY;
	config->parity           = USART_PARITY_NONE;
     158:	466a      	mov	r2, sp
	config->data_order       = USART_DATAORDER_LSB;
     15a:	9300      	str	r3, [sp, #0]
	config->parity           = USART_PARITY_NONE;
     15c:	23ff      	movs	r3, #255	; 0xff
     15e:	8113      	strh	r3, [r2, #8]
	config->stopbits         = USART_STOPBITS_1;
     160:	466b      	mov	r3, sp
	config->character_size   = USART_CHARACTER_SIZE_8BIT;
	config->baudrate         = 9600;
	config->receiver_enable  = true;
     162:	2501      	movs	r5, #1
     164:	3305      	adds	r3, #5
     166:	77dd      	strb	r5, [r3, #31]
	config->transmitter_enable = true;
     168:	466b      	mov	r3, sp
     16a:	3306      	adds	r3, #6
     16c:	77dd      	strb	r5, [r3, #31]
	config->clock_polarity_inverted = false;
     16e:	466b      	mov	r3, sp
	config->transfer_mode    = USART_TRANSFER_ASYNCHRONOUSLY;
     170:	2400      	movs	r4, #0
	config->clock_polarity_inverted = false;
     172:	3307      	adds	r3, #7
     174:	77dc      	strb	r4, [r3, #31]
	config->use_external_clock = false;
     176:	ab02      	add	r3, sp, #8
     178:	77dc      	strb	r4, [r3, #31]
	config->ext_clock_freq   = 0;
	config->mux_setting      = USART_RX_1_TX_2_XCK_3;
	config->run_in_standby   = false;
     17a:	ab0b      	add	r3, sp, #44	; 0x2c
     17c:	701c      	strb	r4, [r3, #0]
	config->generator_source = GCLK_GENERATOR_0;
     17e:	232d      	movs	r3, #45	; 0x2d
     180:	446b      	add	r3, sp
     182:	701c      	strb	r4, [r3, #0]
#ifdef FEATURE_USART_START_FRAME_DECTION
	config->start_frame_detection_enable            = false;
#endif
#ifdef FEATURE_USART_IRDA
	config->encoding_format_enable                  = false;
	config->receive_pulse_length                    = 19;
     184:	2313      	movs	r3, #19
     186:	7693      	strb	r3, [r2, #26]
	struct usart_config config_usart;

	usart_get_config_defaults(&config_usart);
	config_usart.baudrate = 115200;
     188:	23e1      	movs	r3, #225	; 0xe1
     18a:	025b      	lsls	r3, r3, #9
     18c:	9308      	str	r3, [sp, #32]
	config_usart.mux_setting = USART_RX_3_TX_2_XCK_3;
     18e:	23c4      	movs	r3, #196	; 0xc4
     190:	039b      	lsls	r3, r3, #14
     192:	9303      	str	r3, [sp, #12]
	config_usart.pinmux_pad0 = PINMUX_UNUSED;
     194:	2301      	movs	r3, #1
     196:	425b      	negs	r3, r3
     198:	930c      	str	r3, [sp, #48]	; 0x30
	config_usart.pinmux_pad1 = PINMUX_UNUSED;
     19a:	930d      	str	r3, [sp, #52]	; 0x34
	config_usart.pinmux_pad2 = PINMUX_PB10D_SERCOM4_PAD2;
     19c:	4b1d      	ldr	r3, [pc, #116]	; (214 <configure_usart+0xc4>)
static inline void stdio_serial_init(
		struct usart_module *const module,
		usart_inst_t const hw,
		const struct usart_config *const config)
{
	stdio_base = (void *)module;
     19e:	4e1e      	ldr	r6, [pc, #120]	; (218 <configure_usart+0xc8>)
     1a0:	930e      	str	r3, [sp, #56]	; 0x38
	config_usart.pinmux_pad3 = PINMUX_PB11D_SERCOM4_PAD3;
     1a2:	4b1e      	ldr	r3, [pc, #120]	; (21c <configure_usart+0xcc>)
	config->stopbits         = USART_STOPBITS_1;
     1a4:	7294      	strb	r4, [r2, #10]
     1a6:	930f      	str	r3, [sp, #60]	; 0x3c
     1a8:	4b1d      	ldr	r3, [pc, #116]	; (220 <configure_usart+0xd0>)
	config->character_size   = USART_CHARACTER_SIZE_8BIT;
     1aa:	72d4      	strb	r4, [r2, #11]
	config->sample_rate           = USART_SAMPLE_RATE_16X_ARITHMETIC;
     1ac:	8214      	strh	r4, [r2, #16]
	config->lin_slave_enable      = false;
     1ae:	76d4      	strb	r4, [r2, #27]
	config->immediate_buffer_overflow_notification  = false;
     1b0:	7614      	strb	r4, [r2, #24]
	config->start_frame_detection_enable            = false;
     1b2:	7714      	strb	r4, [r2, #28]
	config->encoding_format_enable                  = false;
     1b4:	7654      	strb	r4, [r2, #25]
	config->iso7816_config.inhibit_nack             = ISO7816_INHIBIT_NACK_DISABLE;
	config->iso7816_config.successive_recv_nack     = ISO7816_SUCCESSIVE_RECV_NACK_DISABLE;
	config->iso7816_config.max_iterations           = 7;
#endif
#ifdef FEATURE_USART_COLLISION_DECTION
	config->collision_detection_enable              = false;
     1b6:	7754      	strb	r4, [r2, #29]
     1b8:	601e      	str	r6, [r3, #0]
	ptr_put = (int (*)(void volatile*,char))&usart_serial_putchar;
     1ba:	4a1a      	ldr	r2, [pc, #104]	; (224 <configure_usart+0xd4>)
     1bc:	4b1a      	ldr	r3, [pc, #104]	; (228 <configure_usart+0xd8>)
	config->transfer_mode    = USART_TRANSFER_ASYNCHRONOUSLY;
     1be:	9401      	str	r4, [sp, #4]
	config->ext_clock_freq   = 0;
     1c0:	940a      	str	r4, [sp, #40]	; 0x28
	config->sample_adjustment     = USART_SAMPLE_ADJUSTMENT_7_8_9;
     1c2:	9405      	str	r4, [sp, #20]
     1c4:	601a      	str	r2, [r3, #0]
	ptr_get = (void (*)(void volatile*,char*))&usart_serial_getchar;
     1c6:	4a19      	ldr	r2, [pc, #100]	; (22c <configure_usart+0xdc>)
     1c8:	4b19      	ldr	r3, [pc, #100]	; (230 <configure_usart+0xe0>)
	if (usart_init(module, hw, config) == STATUS_OK) {
     1ca:	491a      	ldr	r1, [pc, #104]	; (234 <configure_usart+0xe4>)
     1cc:	601a      	str	r2, [r3, #0]
     1ce:	0030      	movs	r0, r6
     1d0:	466a      	mov	r2, sp
     1d2:	4b19      	ldr	r3, [pc, #100]	; (238 <configure_usart+0xe8>)
     1d4:	4798      	blx	r3

	usart_serial_init(module, hw, config);
# if defined(__GNUC__)
	// Specify that stdout and stdin should not be buffered.
	setbuf(stdout, NULL);
     1d6:	4f19      	ldr	r7, [pc, #100]	; (23c <configure_usart+0xec>)
     1d8:	0021      	movs	r1, r4
     1da:	683b      	ldr	r3, [r7, #0]
     1dc:	6898      	ldr	r0, [r3, #8]
     1de:	4b18      	ldr	r3, [pc, #96]	; (240 <configure_usart+0xf0>)
     1e0:	4798      	blx	r3
	setbuf(stdin, NULL);
     1e2:	683b      	ldr	r3, [r7, #0]
     1e4:	0021      	movs	r1, r4
     1e6:	6858      	ldr	r0, [r3, #4]
     1e8:	4b15      	ldr	r3, [pc, #84]	; (240 <configure_usart+0xf0>)
     1ea:	4798      	blx	r3
	/* Sanity check arguments */
	Assert(module);
	Assert(module->hw);

	/* Get a pointer to the hardware module instance */
	SercomUsart *const usart_hw = &(module->hw->USART);
     1ec:	6834      	ldr	r4, [r6, #0]

#if USART_CALLBACK_MODE == true
	/* Enable Global interrupt for module */
	system_interrupt_enable(_sercom_get_interrupt_vector(module->hw));
     1ee:	4b15      	ldr	r3, [pc, #84]	; (244 <configure_usart+0xf4>)
     1f0:	0020      	movs	r0, r4
     1f2:	4798      	blx	r3
 * \param[in] vector Interrupt vector to enable
 */
static inline void system_interrupt_enable(
		const enum system_interrupt_vector vector)
{
	NVIC->ISER[0] = (uint32_t)(1 << ((uint32_t)vector & 0x0000001f));
     1f4:	231f      	movs	r3, #31
     1f6:	4018      	ands	r0, r3
     1f8:	4085      	lsls	r5, r0
     1fa:	4b13      	ldr	r3, [pc, #76]	; (248 <configure_usart+0xf8>)
     1fc:	601d      	str	r5, [r3, #0]
	SercomUsart *const usart_hw = &(module->hw->USART);
     1fe:	6832      	ldr	r2, [r6, #0]
	return (usart_hw->SYNCBUSY.reg);
     200:	69d3      	ldr	r3, [r2, #28]
	while (usart_is_syncing(module)) {
     202:	2b00      	cmp	r3, #0
     204:	d1fc      	bne.n	200 <configure_usart+0xb0>

	/* Wait until synchronization is complete */
	_usart_wait_for_sync(module);

	/* Enable USART module */
	usart_hw->CTRLA.reg |= SERCOM_USART_CTRLA_ENABLE;
     206:	6822      	ldr	r2, [r4, #0]
     208:	3302      	adds	r3, #2
     20a:	4313      	orrs	r3, r2
     20c:	6023      	str	r3, [r4, #0]

	stdio_serial_init(&usart_instance, SERCOM4, &config_usart);

	usart_enable(&usart_instance);
}
     20e:	b011      	add	sp, #68	; 0x44
     210:	bdf0      	pop	{r4, r5, r6, r7, pc}
     212:	46c0      	nop			; (mov r8, r8)
     214:	002a0003 	.word	0x002a0003
     218:	20000104 	.word	0x20000104
     21c:	002b0003 	.word	0x002b0003
     220:	20000100 	.word	0x20000100
     224:	00000139 	.word	0x00000139
     228:	200000fc 	.word	0x200000fc
     22c:	00000115 	.word	0x00000115
     230:	200000f8 	.word	0x200000f8
     234:	42001800 	.word	0x42001800
     238:	0000126d 	.word	0x0000126d
     23c:	2000000c 	.word	0x2000000c
     240:	000026ed 	.word	0x000026ed
     244:	0000114d 	.word	0x0000114d
     248:	e000e100 	.word	0xe000e100

0000024c <configure_flash>:
	config->select_slave_low_detect_enable= true;
#  endif
#  ifdef FEATURE_SPI_HARDWARE_SLAVE_SELECT
	config->master_slave_select_enable= false;
#  endif
	config->generator_source = GCLK_GENERATOR_0;
     24c:	230d      	movs	r3, #13
	config->data_order       = SPI_DATA_ORDER_MSB;
     24e:	2100      	movs	r1, #0
#endif
#ifdef AT25DFX_H
void configure_flash()
{
     250:	b5f0      	push	{r4, r5, r6, r7, lr}
	config->mode             = SPI_MODE_MASTER;
     252:	2501      	movs	r5, #1
     254:	b091      	sub	sp, #68	; 0x44
	config->generator_source = GCLK_GENERATOR_0;
     256:	446b      	add	r3, sp
	config->mode             = SPI_MODE_MASTER;
     258:	ac02      	add	r4, sp, #8
	config->generator_source = GCLK_GENERATOR_0;
     25a:	77d9      	strb	r1, [r3, #31]

	/* Clear mode specific config */
	memset(&(config->mode_specific), 0, sizeof(config->mode_specific));
     25c:	220c      	movs	r2, #12
     25e:	4b26      	ldr	r3, [pc, #152]	; (2f8 <configure_flash+0xac>)
     260:	a808      	add	r0, sp, #32
	config->mode             = SPI_MODE_MASTER;
     262:	7025      	strb	r5, [r4, #0]
	config->character_size   = SPI_CHARACTER_SIZE_8BIT;
     264:	7421      	strb	r1, [r4, #16]
	config->run_in_standby   = false;
     266:	7461      	strb	r1, [r4, #17]
	config->receiver_enable  = true;
     268:	74a5      	strb	r5, [r4, #18]
	config->select_slave_low_detect_enable= true;
     26a:	74e5      	strb	r5, [r4, #19]
	config->master_slave_select_enable= false;
     26c:	7521      	strb	r1, [r4, #20]
	config->data_order       = SPI_DATA_ORDER_MSB;
     26e:	9103      	str	r1, [sp, #12]
	config->transfer_mode    = SPI_TRANSFER_MODE_0;
     270:	9104      	str	r1, [sp, #16]
	memset(&(config->mode_specific), 0, sizeof(config->mode_specific));
     272:	4798      	blx	r3
	struct at25dfx_chip_config at_chip_config;
	struct spi_config at25dfx_spi_config;

	at25dfx_spi_get_config_defaults(&at25dfx_spi_config);
	at25dfx_spi_config.mode_specific.master.baudrate = AT25DFX_CLOCK_SPEED;
     274:	4b21      	ldr	r3, [pc, #132]	; (2fc <configure_flash+0xb0>)
	at25dfx_spi_config.mux_setting = AT25DFX_SPI_PINMUX_SETTING;
	at25dfx_spi_config.pinmux_pad0 = AT25DFX_SPI_PINMUX_PAD0;
	at25dfx_spi_config.pinmux_pad1 = AT25DFX_SPI_PINMUX_PAD1;
	at25dfx_spi_config.pinmux_pad2 = AT25DFX_SPI_PINMUX_PAD2;
	at25dfx_spi_config.pinmux_pad3 = AT25DFX_SPI_PINMUX_PAD3;
	spi_init(&at25dfx_spi, AT25DFX_SPI, &at25dfx_spi_config);
     276:	4e22      	ldr	r6, [pc, #136]	; (300 <configure_flash+0xb4>)
	at25dfx_spi_config.mode_specific.master.baudrate = AT25DFX_CLOCK_SPEED;
     278:	61a3      	str	r3, [r4, #24]
	at25dfx_spi_config.mux_setting = AT25DFX_SPI_PINMUX_SETTING;
     27a:	2380      	movs	r3, #128	; 0x80
     27c:	025b      	lsls	r3, r3, #9
     27e:	60e3      	str	r3, [r4, #12]
	at25dfx_spi_config.pinmux_pad0 = AT25DFX_SPI_PINMUX_PAD0;
     280:	4b20      	ldr	r3, [pc, #128]	; (304 <configure_flash+0xb8>)
	spi_init(&at25dfx_spi, AT25DFX_SPI, &at25dfx_spi_config);
     282:	0022      	movs	r2, r4
	at25dfx_spi_config.pinmux_pad0 = AT25DFX_SPI_PINMUX_PAD0;
     284:	62a3      	str	r3, [r4, #40]	; 0x28
	at25dfx_spi_config.pinmux_pad1 = AT25DFX_SPI_PINMUX_PAD1;
     286:	2301      	movs	r3, #1
     288:	425b      	negs	r3, r3
     28a:	62e3      	str	r3, [r4, #44]	; 0x2c
	at25dfx_spi_config.pinmux_pad2 = AT25DFX_SPI_PINMUX_PAD2;
     28c:	4b1e      	ldr	r3, [pc, #120]	; (308 <configure_flash+0xbc>)
	spi_init(&at25dfx_spi, AT25DFX_SPI, &at25dfx_spi_config);
     28e:	491f      	ldr	r1, [pc, #124]	; (30c <configure_flash+0xc0>)
	at25dfx_spi_config.pinmux_pad2 = AT25DFX_SPI_PINMUX_PAD2;
     290:	6323      	str	r3, [r4, #48]	; 0x30
	at25dfx_spi_config.pinmux_pad3 = AT25DFX_SPI_PINMUX_PAD3;
     292:	4b1f      	ldr	r3, [pc, #124]	; (310 <configure_flash+0xc4>)
	spi_init(&at25dfx_spi, AT25DFX_SPI, &at25dfx_spi_config);
     294:	0030      	movs	r0, r6
	at25dfx_spi_config.pinmux_pad3 = AT25DFX_SPI_PINMUX_PAD3;
     296:	6363      	str	r3, [r4, #52]	; 0x34
	spi_init(&at25dfx_spi, AT25DFX_SPI, &at25dfx_spi_config);
     298:	4b1e      	ldr	r3, [pc, #120]	; (314 <configure_flash+0xc8>)
     29a:	4798      	blx	r3
{
	/* Sanity check arguments */
	Assert(module);
	Assert(module->hw);

	SercomSpi *const spi_module = &(module->hw->SPI);
     29c:	6834      	ldr	r4, [r6, #0]

#  if SPI_CALLBACK_MODE == true
	system_interrupt_enable(_sercom_get_interrupt_vector(module->hw));
     29e:	4b1e      	ldr	r3, [pc, #120]	; (318 <configure_flash+0xcc>)
     2a0:	0020      	movs	r0, r4
     2a2:	4798      	blx	r3
     2a4:	231f      	movs	r3, #31
     2a6:	4018      	ands	r0, r3
     2a8:	4085      	lsls	r5, r0
     2aa:	4b1c      	ldr	r3, [pc, #112]	; (31c <configure_flash+0xd0>)
     2ac:	601d      	str	r5, [r3, #0]
	SercomSpi *const spi_module = &(module->hw->SPI);
     2ae:	6833      	ldr	r3, [r6, #0]
	return (spi_module->SYNCBUSY.reg);
     2b0:	69dd      	ldr	r5, [r3, #28]
#  endif

	while (spi_is_syncing(module)) {
     2b2:	2d00      	cmp	r5, #0
     2b4:	d1fc      	bne.n	2b0 <configure_flash+0x64>
		/* Wait until the synchronization is complete */
	}

	/* Enable SPI */
	spi_module->CTRLA.reg |= SERCOM_SPI_CTRLA_ENABLE;
     2b6:	2302      	movs	r3, #2
     2b8:	6822      	ldr	r2, [r4, #0]
		const struct at25dfx_chip_config *const config)
{
	struct port_config port_config;

	module->type = config->type;
	module->cs_pin = config->cs_pin;
     2ba:	2007      	movs	r0, #7
     2bc:	4313      	orrs	r3, r2
     2be:	6023      	str	r3, [r4, #0]
	module->type = config->type;
     2c0:	2304      	movs	r3, #4
	/* Sanity check arguments */
	Assert(config);

	/* Default configuration values */
	config->direction  = PORT_PIN_DIR_INPUT;
	config->input_pull = PORT_PIN_PULL_UP;
     2c2:	2401      	movs	r4, #1
     2c4:	4f16      	ldr	r7, [pc, #88]	; (320 <configure_flash+0xd4>)
     2c6:	a901      	add	r1, sp, #4
     2c8:	713b      	strb	r3, [r7, #4]
	module->spi = spi_module;

	// Configure CS pin as output, high
	port_get_config_defaults(&port_config);
	port_config.direction = PORT_PIN_DIR_OUTPUT;
	port_pin_set_config(module->cs_pin, &port_config);
     2ca:	4b16      	ldr	r3, [pc, #88]	; (324 <configure_flash+0xd8>)
     2cc:	704c      	strb	r4, [r1, #1]
	config->powersave  = false;
     2ce:	708d      	strb	r5, [r1, #2]
	port_config.direction = PORT_PIN_DIR_OUTPUT;
     2d0:	700c      	strb	r4, [r1, #0]
	module->cs_pin = config->cs_pin;
     2d2:	7178      	strb	r0, [r7, #5]
	module->spi = spi_module;
     2d4:	603e      	str	r6, [r7, #0]
	port_pin_set_config(module->cs_pin, &port_config);
     2d6:	4798      	blx	r3
	port_pin_set_output_level(module->cs_pin, true);
     2d8:	797a      	ldrb	r2, [r7, #5]
 */
static inline PortGroup* system_pinmux_get_group_from_gpio_pin(
		const uint8_t gpio_pin)
{
	uint8_t port_index  = (gpio_pin / 128);
	uint8_t group_index = (gpio_pin / 32);
     2da:	0953      	lsrs	r3, r2, #5

	/* Array of available ports */
	Port *const ports[PORT_INST_NUM] = PORT_INSTS;

	if (port_index < PORT_INST_NUM) {
     2dc:	09d1      	lsrs	r1, r2, #7
     2de:	d108      	bne.n	2f2 <configure_flash+0xa6>
static inline void port_pin_set_output_level(
		const uint8_t gpio_pin,
		const bool level)
{
	PortGroup *const port_base = port_get_group_from_gpio_pin(gpio_pin);
	uint32_t pin_mask  = (1UL << (gpio_pin % 32));
     2e0:	311f      	adds	r1, #31
     2e2:	400a      	ands	r2, r1
     2e4:	4094      	lsls	r4, r2

	/* Set the pin to high or low atomically based on the requested level */
	if (level) {
		port_base->OUTSET.reg = pin_mask;
     2e6:	4a10      	ldr	r2, [pc, #64]	; (328 <configure_flash+0xdc>)
     2e8:	01db      	lsls	r3, r3, #7
     2ea:	189b      	adds	r3, r3, r2
     2ec:	619c      	str	r4, [r3, #24]
	spi_enable(&at25dfx_spi);

	at_chip_config.type = AT25DFX_MEM_TYPE;
	at_chip_config.cs_pin = AT25DFX_CS;
	at25dfx_chip_init(&at25dfx_chip, &at25dfx_spi, &at_chip_config);
}
     2ee:	b011      	add	sp, #68	; 0x44
     2f0:	bdf0      	pop	{r4, r5, r6, r7, pc}
     2f2:	61ad      	str	r5, [r5, #24]
     2f4:	deff      	udf	#255	; 0xff
     2f6:	46c0      	nop			; (mov r8, r8)
     2f8:	000025d5 	.word	0x000025d5
     2fc:	000f4240 	.word	0x000f4240
     300:	2000014c 	.word	0x2000014c
     304:	00100002 	.word	0x00100002
     308:	00120002 	.word	0x00120002
     30c:	42000c00 	.word	0x42000c00
     310:	00130002 	.word	0x00130002
     314:	00000c81 	.word	0x00000c81
     318:	0000114d 	.word	0x0000114d
     31c:	e000e100 	.word	0xe000e100
     320:	20000140 	.word	0x20000140
     324:	000011d9 	.word	0x000011d9
     328:	41004400 	.word	0x41004400

0000032c <configure_nvm>:
#endif

#ifdef NVM_H_INCLUDED
void configure_nvm()
{
     32c:	b507      	push	{r0, r1, r2, lr}
{
	/* Sanity check the parameters */
	Assert(config);

	/* Write the default configuration for the NVM configuration */
	config->sleep_power_mode  = NVM_SLEEP_POWER_MODE_WAKEONACCESS;
     32e:	2200      	movs	r2, #0
     330:	466b      	mov	r3, sp
	config->manual_page_write = true;
	config->wait_states       = NVMCTRL->CTRLB.bit.RWS;
     332:	4669      	mov	r1, sp
	config->sleep_power_mode  = NVM_SLEEP_POWER_MODE_WAKEONACCESS;
     334:	701a      	strb	r2, [r3, #0]
	config->wait_states       = NVMCTRL->CTRLB.bit.RWS;
     336:	4b06      	ldr	r3, [pc, #24]	; (350 <configure_nvm+0x24>)
	struct nvm_config config_nvm;

	nvm_get_config_defaults(&config_nvm);
	config_nvm.manual_page_write = false;

	nvm_set_config(&config_nvm);
     338:	4668      	mov	r0, sp
     33a:	685b      	ldr	r3, [r3, #4]
     33c:	06db      	lsls	r3, r3, #27
     33e:	0f1b      	lsrs	r3, r3, #28
     340:	708b      	strb	r3, [r1, #2]
     342:	4b04      	ldr	r3, [pc, #16]	; (354 <configure_nvm+0x28>)
	config->disable_cache     = false;
     344:	70ca      	strb	r2, [r1, #3]
#if (SAMC20) || (SAMC21)
	config->disable_rww_cache = false;
#endif
	config->cache_readmode    = NVM_CACHE_READMODE_NO_MISS_PENALTY;
     346:	710a      	strb	r2, [r1, #4]
	config_nvm.manual_page_write = false;
     348:	704a      	strb	r2, [r1, #1]
	nvm_set_config(&config_nvm);
     34a:	4798      	blx	r3
}
     34c:	bd07      	pop	{r0, r1, r2, pc}
     34e:	46c0      	nop			; (mov r8, r8)
     350:	41004000 	.word	0x41004000
     354:	00000659 	.word	0x00000659

00000358 <port_pin_set_output_level>:
     358:	2200      	movs	r2, #0
     35a:	b510      	push	{r4, lr}
     35c:	0943      	lsrs	r3, r0, #5
     35e:	09c4      	lsrs	r4, r0, #7
     360:	4294      	cmp	r4, r2
     362:	d102      	bne.n	36a <port_pin_set_output_level+0x12>
     364:	01da      	lsls	r2, r3, #7
     366:	4b06      	ldr	r3, [pc, #24]	; (380 <port_pin_set_output_level+0x28>)
     368:	18d2      	adds	r2, r2, r3
     36a:	231f      	movs	r3, #31
     36c:	4018      	ands	r0, r3
     36e:	3b1e      	subs	r3, #30
     370:	4083      	lsls	r3, r0
     372:	2900      	cmp	r1, #0
     374:	d001      	beq.n	37a <port_pin_set_output_level+0x22>
     376:	6193      	str	r3, [r2, #24]
     378:	bd10      	pop	{r4, pc}
     37a:	6153      	str	r3, [r2, #20]
     37c:	e7fc      	b.n	378 <port_pin_set_output_level+0x20>
     37e:	46c0      	nop			; (mov r8, r8)
     380:	41004400 	.word	0x41004400

00000384 <spi_lock>:
     384:	b570      	push	{r4, r5, r6, lr}
     386:	0005      	movs	r5, r0
     388:	4b06      	ldr	r3, [pc, #24]	; (3a4 <spi_lock+0x20>)
     38a:	4798      	blx	r3
     38c:	792b      	ldrb	r3, [r5, #4]
     38e:	2405      	movs	r4, #5
     390:	b2db      	uxtb	r3, r3
     392:	2b00      	cmp	r3, #0
     394:	d102      	bne.n	39c <spi_lock+0x18>
     396:	2201      	movs	r2, #1
     398:	001c      	movs	r4, r3
     39a:	712a      	strb	r2, [r5, #4]
     39c:	4b02      	ldr	r3, [pc, #8]	; (3a8 <spi_lock+0x24>)
     39e:	4798      	blx	r3
     3a0:	0020      	movs	r0, r4
     3a2:	bd70      	pop	{r4, r5, r6, pc}
     3a4:	000011fd 	.word	0x000011fd
     3a8:	00001231 	.word	0x00001231

000003ac <_at25dfx_chip_issue_write_command_wait.isra.2>:
     3ac:	b5f0      	push	{r4, r5, r6, r7, lr}
     3ae:	b085      	sub	sp, #20
     3b0:	0015      	movs	r5, r2
     3b2:	aa0a      	add	r2, sp, #40	; 0x28
     3b4:	0004      	movs	r4, r0
     3b6:	ca01      	ldmia	r2!, {r0}
     3b8:	8816      	ldrh	r6, [r2, #0]
     3ba:	aa02      	add	r2, sp, #8
     3bc:	9001      	str	r0, [sp, #4]
     3be:	7011      	strb	r1, [r2, #0]
     3c0:	2d01      	cmp	r5, #1
     3c2:	d905      	bls.n	3d0 <_at25dfx_chip_issue_write_command_wait.isra.2+0x24>
     3c4:	70d3      	strb	r3, [r2, #3]
     3c6:	a902      	add	r1, sp, #8
     3c8:	0a1a      	lsrs	r2, r3, #8
     3ca:	0c1b      	lsrs	r3, r3, #16
     3cc:	708a      	strb	r2, [r1, #2]
     3ce:	704b      	strb	r3, [r1, #1]
     3d0:	7960      	ldrb	r0, [r4, #5]
     3d2:	2100      	movs	r1, #0
     3d4:	4f08      	ldr	r7, [pc, #32]	; (3f8 <_at25dfx_chip_issue_write_command_wait.isra.2+0x4c>)
     3d6:	47b8      	blx	r7
     3d8:	b2aa      	uxth	r2, r5
     3da:	a902      	add	r1, sp, #8
     3dc:	6820      	ldr	r0, [r4, #0]
     3de:	4d07      	ldr	r5, [pc, #28]	; (3fc <_at25dfx_chip_issue_write_command_wait.isra.2+0x50>)
     3e0:	47a8      	blx	r5
     3e2:	2e00      	cmp	r6, #0
     3e4:	d003      	beq.n	3ee <_at25dfx_chip_issue_write_command_wait.isra.2+0x42>
     3e6:	0032      	movs	r2, r6
     3e8:	9901      	ldr	r1, [sp, #4]
     3ea:	6820      	ldr	r0, [r4, #0]
     3ec:	47a8      	blx	r5
     3ee:	7960      	ldrb	r0, [r4, #5]
     3f0:	2101      	movs	r1, #1
     3f2:	47b8      	blx	r7
     3f4:	b005      	add	sp, #20
     3f6:	bdf0      	pop	{r4, r5, r6, r7, pc}
     3f8:	00000359 	.word	0x00000359
     3fc:	00000ed9 	.word	0x00000ed9

00000400 <_at25dfx_chip_issue_read_command_wait.isra.3>:
     400:	b5f0      	push	{r4, r5, r6, r7, lr}
     402:	b085      	sub	sp, #20
     404:	0015      	movs	r5, r2
     406:	aa0a      	add	r2, sp, #40	; 0x28
     408:	0004      	movs	r4, r0
     40a:	ca01      	ldmia	r2!, {r0}
     40c:	8816      	ldrh	r6, [r2, #0]
     40e:	aa02      	add	r2, sp, #8
     410:	9001      	str	r0, [sp, #4]
     412:	7011      	strb	r1, [r2, #0]
     414:	2d01      	cmp	r5, #1
     416:	d905      	bls.n	424 <_at25dfx_chip_issue_read_command_wait.isra.3+0x24>
     418:	70d3      	strb	r3, [r2, #3]
     41a:	a902      	add	r1, sp, #8
     41c:	0a1a      	lsrs	r2, r3, #8
     41e:	0c1b      	lsrs	r3, r3, #16
     420:	708a      	strb	r2, [r1, #2]
     422:	704b      	strb	r3, [r1, #1]
     424:	7960      	ldrb	r0, [r4, #5]
     426:	2100      	movs	r1, #0
     428:	4f09      	ldr	r7, [pc, #36]	; (450 <_at25dfx_chip_issue_read_command_wait.isra.3+0x50>)
     42a:	47b8      	blx	r7
     42c:	b2aa      	uxth	r2, r5
     42e:	a902      	add	r1, sp, #8
     430:	6820      	ldr	r0, [r4, #0]
     432:	4b08      	ldr	r3, [pc, #32]	; (454 <_at25dfx_chip_issue_read_command_wait.isra.3+0x54>)
     434:	4798      	blx	r3
     436:	2e00      	cmp	r6, #0
     438:	d005      	beq.n	446 <_at25dfx_chip_issue_read_command_wait.isra.3+0x46>
     43a:	2300      	movs	r3, #0
     43c:	0032      	movs	r2, r6
     43e:	9901      	ldr	r1, [sp, #4]
     440:	6820      	ldr	r0, [r4, #0]
     442:	4d05      	ldr	r5, [pc, #20]	; (458 <_at25dfx_chip_issue_read_command_wait.isra.3+0x58>)
     444:	47a8      	blx	r5
     446:	7960      	ldrb	r0, [r4, #5]
     448:	2101      	movs	r1, #1
     44a:	47b8      	blx	r7
     44c:	b005      	add	sp, #20
     44e:	bdf0      	pop	{r4, r5, r6, r7, pc}
     450:	00000359 	.word	0x00000359
     454:	00000ed9 	.word	0x00000ed9
     458:	00000e49 	.word	0x00000e49

0000045c <at25dfx_chip_check_presence>:
     45c:	b57f      	push	{r0, r1, r2, r3, r4, r5, r6, lr}
     45e:	2400      	movs	r4, #0
     460:	0005      	movs	r5, r0
     462:	4b0f      	ldr	r3, [pc, #60]	; (4a0 <at25dfx_chip_check_presence+0x44>)
     464:	6800      	ldr	r0, [r0, #0]
     466:	9403      	str	r4, [sp, #12]
     468:	4798      	blx	r3
     46a:	2805      	cmp	r0, #5
     46c:	d016      	beq.n	49c <at25dfx_chip_check_presence+0x40>
     46e:	2303      	movs	r3, #3
     470:	9301      	str	r3, [sp, #4]
     472:	ab03      	add	r3, sp, #12
     474:	9300      	str	r3, [sp, #0]
     476:	2201      	movs	r2, #1
     478:	0023      	movs	r3, r4
     47a:	219f      	movs	r1, #159	; 0x9f
     47c:	0028      	movs	r0, r5
     47e:	4e09      	ldr	r6, [pc, #36]	; (4a4 <at25dfx_chip_check_presence+0x48>)
     480:	47b0      	blx	r6
     482:	682b      	ldr	r3, [r5, #0]
     484:	711c      	strb	r4, [r3, #4]
     486:	792b      	ldrb	r3, [r5, #4]
     488:	2b09      	cmp	r3, #9
     48a:	d802      	bhi.n	492 <at25dfx_chip_check_presence+0x36>
     48c:	4a06      	ldr	r2, [pc, #24]	; (4a8 <at25dfx_chip_check_presence+0x4c>)
     48e:	009b      	lsls	r3, r3, #2
     490:	589c      	ldr	r4, [r3, r2]
     492:	9b03      	ldr	r3, [sp, #12]
     494:	2000      	movs	r0, #0
     496:	42a3      	cmp	r3, r4
     498:	d000      	beq.n	49c <at25dfx_chip_check_presence+0x40>
     49a:	3014      	adds	r0, #20
     49c:	b004      	add	sp, #16
     49e:	bd70      	pop	{r4, r5, r6, pc}
     4a0:	00000385 	.word	0x00000385
     4a4:	00000401 	.word	0x00000401
     4a8:	0000369c 	.word	0x0000369c

000004ac <at25dfx_chip_read_buffer>:
     4ac:	b5f7      	push	{r0, r1, r2, r4, r5, r6, r7, lr}
     4ae:	000d      	movs	r5, r1
     4b0:	001e      	movs	r6, r3
     4b2:	1859      	adds	r1, r3, r1
     4b4:	7903      	ldrb	r3, [r0, #4]
     4b6:	0017      	movs	r7, r2
     4b8:	0004      	movs	r4, r0
     4ba:	2200      	movs	r2, #0
     4bc:	2b09      	cmp	r3, #9
     4be:	d802      	bhi.n	4c6 <at25dfx_chip_read_buffer+0x1a>
     4c0:	4a0b      	ldr	r2, [pc, #44]	; (4f0 <at25dfx_chip_read_buffer+0x44>)
     4c2:	009b      	lsls	r3, r3, #2
     4c4:	589a      	ldr	r2, [r3, r2]
     4c6:	2017      	movs	r0, #23
     4c8:	4291      	cmp	r1, r2
     4ca:	d80f      	bhi.n	4ec <at25dfx_chip_read_buffer+0x40>
     4cc:	6820      	ldr	r0, [r4, #0]
     4ce:	4b09      	ldr	r3, [pc, #36]	; (4f4 <at25dfx_chip_read_buffer+0x48>)
     4d0:	4798      	blx	r3
     4d2:	2805      	cmp	r0, #5
     4d4:	d00a      	beq.n	4ec <at25dfx_chip_read_buffer+0x40>
     4d6:	002b      	movs	r3, r5
     4d8:	0020      	movs	r0, r4
     4da:	9601      	str	r6, [sp, #4]
     4dc:	9700      	str	r7, [sp, #0]
     4de:	2205      	movs	r2, #5
     4e0:	210b      	movs	r1, #11
     4e2:	4d05      	ldr	r5, [pc, #20]	; (4f8 <at25dfx_chip_read_buffer+0x4c>)
     4e4:	47a8      	blx	r5
     4e6:	2000      	movs	r0, #0
     4e8:	6823      	ldr	r3, [r4, #0]
     4ea:	7118      	strb	r0, [r3, #4]
     4ec:	bdfe      	pop	{r1, r2, r3, r4, r5, r6, r7, pc}
     4ee:	46c0      	nop			; (mov r8, r8)
     4f0:	000036c4 	.word	0x000036c4
     4f4:	00000385 	.word	0x00000385
     4f8:	00000401 	.word	0x00000401

000004fc <at25dfx_chip_sleep>:
     4fc:	b573      	push	{r0, r1, r4, r5, r6, lr}
     4fe:	4b09      	ldr	r3, [pc, #36]	; (524 <at25dfx_chip_sleep+0x28>)
     500:	0005      	movs	r5, r0
     502:	6800      	ldr	r0, [r0, #0]
     504:	4798      	blx	r3
     506:	2805      	cmp	r0, #5
     508:	d00b      	beq.n	522 <at25dfx_chip_sleep+0x26>
     50a:	2400      	movs	r4, #0
     50c:	0028      	movs	r0, r5
     50e:	0023      	movs	r3, r4
     510:	9401      	str	r4, [sp, #4]
     512:	9400      	str	r4, [sp, #0]
     514:	2201      	movs	r2, #1
     516:	21b9      	movs	r1, #185	; 0xb9
     518:	4e03      	ldr	r6, [pc, #12]	; (528 <at25dfx_chip_sleep+0x2c>)
     51a:	47b0      	blx	r6
     51c:	0020      	movs	r0, r4
     51e:	682b      	ldr	r3, [r5, #0]
     520:	711c      	strb	r4, [r3, #4]
     522:	bd76      	pop	{r1, r2, r4, r5, r6, pc}
     524:	00000385 	.word	0x00000385
     528:	000003ad 	.word	0x000003ad

0000052c <at25dfx_chip_wake>:
     52c:	b573      	push	{r0, r1, r4, r5, r6, lr}
     52e:	4b09      	ldr	r3, [pc, #36]	; (554 <at25dfx_chip_wake+0x28>)
     530:	0005      	movs	r5, r0
     532:	6800      	ldr	r0, [r0, #0]
     534:	4798      	blx	r3
     536:	2805      	cmp	r0, #5
     538:	d00b      	beq.n	552 <at25dfx_chip_wake+0x26>
     53a:	2400      	movs	r4, #0
     53c:	0028      	movs	r0, r5
     53e:	0023      	movs	r3, r4
     540:	9401      	str	r4, [sp, #4]
     542:	9400      	str	r4, [sp, #0]
     544:	2201      	movs	r2, #1
     546:	21ab      	movs	r1, #171	; 0xab
     548:	4e03      	ldr	r6, [pc, #12]	; (558 <at25dfx_chip_wake+0x2c>)
     54a:	47b0      	blx	r6
     54c:	0020      	movs	r0, r4
     54e:	682b      	ldr	r3, [r5, #0]
     550:	711c      	strb	r4, [r3, #4]
     552:	bd76      	pop	{r1, r2, r4, r5, r6, pc}
     554:	00000385 	.word	0x00000385
     558:	000003ad 	.word	0x000003ad

0000055c <delay_init>:
     55c:	b570      	push	{r4, r5, r6, lr}
     55e:	4b09      	ldr	r3, [pc, #36]	; (584 <delay_init+0x28>)
     560:	2000      	movs	r0, #0
     562:	4798      	blx	r3
     564:	21fa      	movs	r1, #250	; 0xfa
     566:	4c08      	ldr	r4, [pc, #32]	; (588 <delay_init+0x2c>)
     568:	0089      	lsls	r1, r1, #2
     56a:	0005      	movs	r5, r0
     56c:	47a0      	blx	r4
     56e:	4b07      	ldr	r3, [pc, #28]	; (58c <delay_init+0x30>)
     570:	4907      	ldr	r1, [pc, #28]	; (590 <delay_init+0x34>)
     572:	6018      	str	r0, [r3, #0]
     574:	0028      	movs	r0, r5
     576:	47a0      	blx	r4
     578:	2205      	movs	r2, #5
     57a:	4b06      	ldr	r3, [pc, #24]	; (594 <delay_init+0x38>)
     57c:	6018      	str	r0, [r3, #0]
     57e:	4b06      	ldr	r3, [pc, #24]	; (598 <delay_init+0x3c>)
     580:	601a      	str	r2, [r3, #0]
     582:	bd70      	pop	{r4, r5, r6, pc}
     584:	00001ac5 	.word	0x00001ac5
     588:	00002409 	.word	0x00002409
     58c:	20000000 	.word	0x20000000
     590:	000f4240 	.word	0x000f4240
     594:	20000004 	.word	0x20000004
     598:	e000e010 	.word	0xe000e010

0000059c <_crc32_recalculate_bytes_helper>:
     59c:	2301      	movs	r3, #1
     59e:	b510      	push	{r4, lr}
     5a0:	4048      	eors	r0, r1
     5a2:	4906      	ldr	r1, [pc, #24]	; (5bc <_crc32_recalculate_bytes_helper+0x20>)
     5a4:	00d2      	lsls	r2, r2, #3
     5a6:	2a00      	cmp	r2, #0
     5a8:	d100      	bne.n	5ac <_crc32_recalculate_bytes_helper+0x10>
     5aa:	bd10      	pop	{r4, pc}
     5ac:	0004      	movs	r4, r0
     5ae:	0840      	lsrs	r0, r0, #1
     5b0:	401c      	ands	r4, r3
     5b2:	d000      	beq.n	5b6 <_crc32_recalculate_bytes_helper+0x1a>
     5b4:	4048      	eors	r0, r1
     5b6:	3a01      	subs	r2, #1
     5b8:	e7f5      	b.n	5a6 <_crc32_recalculate_bytes_helper+0xa>
     5ba:	46c0      	nop			; (mov r8, r8)
     5bc:	edb88320 	.word	0xedb88320

000005c0 <crc32_recalculate>:
     5c0:	b5f7      	push	{r0, r1, r2, r4, r5, r6, r7, lr}
     5c2:	2303      	movs	r3, #3
     5c4:	000c      	movs	r4, r1
     5c6:	0005      	movs	r5, r0
     5c8:	0017      	movs	r7, r2
     5ca:	6812      	ldr	r2, [r2, #0]
     5cc:	439d      	bics	r5, r3
     5ce:	43d1      	mvns	r1, r2
     5d0:	0022      	movs	r2, r4
     5d2:	429c      	cmp	r4, r3
     5d4:	d901      	bls.n	5da <crc32_recalculate+0x1a>
     5d6:	4242      	negs	r2, r0
     5d8:	401a      	ands	r2, r3
     5da:	2a00      	cmp	r2, #0
     5dc:	d00a      	beq.n	5f4 <crc32_recalculate+0x34>
     5de:	00d3      	lsls	r3, r2, #3
     5e0:	6828      	ldr	r0, [r5, #0]
     5e2:	425b      	negs	r3, r3
     5e4:	3320      	adds	r3, #32
     5e6:	40d8      	lsrs	r0, r3
     5e8:	4b16      	ldr	r3, [pc, #88]	; (644 <crc32_recalculate+0x84>)
     5ea:	1aa4      	subs	r4, r4, r2
     5ec:	4798      	blx	r3
     5ee:	1d2e      	adds	r6, r5, #4
     5f0:	0001      	movs	r1, r0
     5f2:	0035      	movs	r5, r6
     5f4:	2303      	movs	r3, #3
     5f6:	0022      	movs	r2, r4
     5f8:	439a      	bics	r2, r3
     5fa:	d00b      	beq.n	614 <crc32_recalculate+0x54>
     5fc:	002e      	movs	r6, r5
     5fe:	1aa3      	subs	r3, r4, r2
     600:	08a4      	lsrs	r4, r4, #2
     602:	9301      	str	r3, [sp, #4]
     604:	9400      	str	r4, [sp, #0]
     606:	9b00      	ldr	r3, [sp, #0]
     608:	1e5a      	subs	r2, r3, #1
     60a:	9200      	str	r2, [sp, #0]
     60c:	d214      	bcs.n	638 <crc32_recalculate+0x78>
     60e:	00a4      	lsls	r4, r4, #2
     610:	192d      	adds	r5, r5, r4
     612:	9c01      	ldr	r4, [sp, #4]
     614:	2c00      	cmp	r4, #0
     616:	d00b      	beq.n	630 <crc32_recalculate+0x70>
     618:	2201      	movs	r2, #1
     61a:	00e3      	lsls	r3, r4, #3
     61c:	425b      	negs	r3, r3
     61e:	3320      	adds	r3, #32
     620:	4252      	negs	r2, r2
     622:	40da      	lsrs	r2, r3
     624:	6828      	ldr	r0, [r5, #0]
     626:	4b07      	ldr	r3, [pc, #28]	; (644 <crc32_recalculate+0x84>)
     628:	4010      	ands	r0, r2
     62a:	0022      	movs	r2, r4
     62c:	4798      	blx	r3
     62e:	0001      	movs	r1, r0
     630:	43c9      	mvns	r1, r1
     632:	2000      	movs	r0, #0
     634:	6039      	str	r1, [r7, #0]
     636:	bdfe      	pop	{r1, r2, r3, r4, r5, r6, r7, pc}
     638:	2204      	movs	r2, #4
     63a:	ce01      	ldmia	r6!, {r0}
     63c:	4b01      	ldr	r3, [pc, #4]	; (644 <crc32_recalculate+0x84>)
     63e:	4798      	blx	r3
     640:	0001      	movs	r1, r0
     642:	e7e0      	b.n	606 <crc32_recalculate+0x46>
     644:	0000059d 	.word	0x0000059d

00000648 <nvm_is_ready>:
     648:	4b02      	ldr	r3, [pc, #8]	; (654 <nvm_is_ready+0xc>)
     64a:	7d18      	ldrb	r0, [r3, #20]
     64c:	2301      	movs	r3, #1
     64e:	4018      	ands	r0, r3
     650:	4770      	bx	lr
     652:	46c0      	nop			; (mov r8, r8)
     654:	41004000 	.word	0x41004000

00000658 <nvm_set_config>:
     658:	2304      	movs	r3, #4
     65a:	b570      	push	{r4, r5, r6, lr}
     65c:	4a1c      	ldr	r2, [pc, #112]	; (6d0 <nvm_set_config+0x78>)
     65e:	4d1d      	ldr	r5, [pc, #116]	; (6d4 <nvm_set_config+0x7c>)
     660:	69d1      	ldr	r1, [r2, #28]
     662:	0004      	movs	r4, r0
     664:	430b      	orrs	r3, r1
     666:	61d3      	str	r3, [r2, #28]
     668:	2320      	movs	r3, #32
     66a:	33ff      	adds	r3, #255	; 0xff
     66c:	832b      	strh	r3, [r5, #24]
     66e:	4b1a      	ldr	r3, [pc, #104]	; (6d8 <nvm_set_config+0x80>)
     670:	4798      	blx	r3
     672:	0003      	movs	r3, r0
     674:	2005      	movs	r0, #5
     676:	2b00      	cmp	r3, #0
     678:	d028      	beq.n	6cc <nvm_set_config+0x74>
     67a:	22c0      	movs	r2, #192	; 0xc0
     67c:	211e      	movs	r1, #30
     67e:	7823      	ldrb	r3, [r4, #0]
     680:	0092      	lsls	r2, r2, #2
     682:	021b      	lsls	r3, r3, #8
     684:	4013      	ands	r3, r2
     686:	78a2      	ldrb	r2, [r4, #2]
     688:	0052      	lsls	r2, r2, #1
     68a:	400a      	ands	r2, r1
     68c:	2180      	movs	r1, #128	; 0x80
     68e:	4313      	orrs	r3, r2
     690:	7862      	ldrb	r2, [r4, #1]
     692:	02c9      	lsls	r1, r1, #11
     694:	01d2      	lsls	r2, r2, #7
     696:	4313      	orrs	r3, r2
     698:	78e2      	ldrb	r2, [r4, #3]
     69a:	0492      	lsls	r2, r2, #18
     69c:	400a      	ands	r2, r1
     69e:	21c0      	movs	r1, #192	; 0xc0
     6a0:	4313      	orrs	r3, r2
     6a2:	7922      	ldrb	r2, [r4, #4]
     6a4:	0289      	lsls	r1, r1, #10
     6a6:	0412      	lsls	r2, r2, #16
     6a8:	400a      	ands	r2, r1
     6aa:	2108      	movs	r1, #8
     6ac:	4313      	orrs	r3, r2
     6ae:	606b      	str	r3, [r5, #4]
     6b0:	68ab      	ldr	r3, [r5, #8]
     6b2:	4a0a      	ldr	r2, [pc, #40]	; (6dc <nvm_set_config+0x84>)
     6b4:	035b      	lsls	r3, r3, #13
     6b6:	0f5b      	lsrs	r3, r3, #29
     6b8:	4099      	lsls	r1, r3
     6ba:	8011      	strh	r1, [r2, #0]
     6bc:	68ab      	ldr	r3, [r5, #8]
     6be:	8053      	strh	r3, [r2, #2]
     6c0:	7863      	ldrb	r3, [r4, #1]
     6c2:	7113      	strb	r3, [r2, #4]
     6c4:	8b28      	ldrh	r0, [r5, #24]
     6c6:	05c0      	lsls	r0, r0, #23
     6c8:	0fc0      	lsrs	r0, r0, #31
     6ca:	0100      	lsls	r0, r0, #4
     6cc:	bd70      	pop	{r4, r5, r6, pc}
     6ce:	46c0      	nop			; (mov r8, r8)
     6d0:	40000400 	.word	0x40000400
     6d4:	41004000 	.word	0x41004000
     6d8:	00000649 	.word	0x00000649
     6dc:	2000008c 	.word	0x2000008c

000006e0 <nvm_execute_command>:
     6e0:	b5f7      	push	{r0, r1, r2, r4, r5, r6, r7, lr}
     6e2:	4a24      	ldr	r2, [pc, #144]	; (774 <nvm_execute_command+0x94>)
     6e4:	9101      	str	r1, [sp, #4]
     6e6:	8853      	ldrh	r3, [r2, #2]
     6e8:	8811      	ldrh	r1, [r2, #0]
     6ea:	9a01      	ldr	r2, [sp, #4]
     6ec:	434b      	muls	r3, r1
     6ee:	0004      	movs	r4, r0
     6f0:	4293      	cmp	r3, r2
     6f2:	d207      	bcs.n	704 <nvm_execute_command+0x24>
     6f4:	2280      	movs	r2, #128	; 0x80
     6f6:	9b01      	ldr	r3, [sp, #4]
     6f8:	491f      	ldr	r1, [pc, #124]	; (778 <nvm_execute_command+0x98>)
     6fa:	0192      	lsls	r2, r2, #6
     6fc:	185b      	adds	r3, r3, r1
     6fe:	2018      	movs	r0, #24
     700:	4293      	cmp	r3, r2
     702:	d80f      	bhi.n	724 <nvm_execute_command+0x44>
     704:	2380      	movs	r3, #128	; 0x80
     706:	4d1d      	ldr	r5, [pc, #116]	; (77c <nvm_execute_command+0x9c>)
     708:	02db      	lsls	r3, r3, #11
     70a:	686f      	ldr	r7, [r5, #4]
     70c:	002e      	movs	r6, r5
     70e:	433b      	orrs	r3, r7
     710:	606b      	str	r3, [r5, #4]
     712:	2320      	movs	r3, #32
     714:	33ff      	adds	r3, #255	; 0xff
     716:	832b      	strh	r3, [r5, #24]
     718:	4b19      	ldr	r3, [pc, #100]	; (780 <nvm_execute_command+0xa0>)
     71a:	4798      	blx	r3
     71c:	2800      	cmp	r0, #0
     71e:	d102      	bne.n	726 <nvm_execute_command+0x46>
     720:	606f      	str	r7, [r5, #4]
     722:	3005      	adds	r0, #5
     724:	bdfe      	pop	{r1, r2, r3, r4, r5, r6, r7, pc}
     726:	2c06      	cmp	r4, #6
     728:	d814      	bhi.n	754 <nvm_execute_command+0x74>
     72a:	2c05      	cmp	r4, #5
     72c:	d21b      	bcs.n	766 <nvm_execute_command+0x86>
     72e:	2c02      	cmp	r4, #2
     730:	d001      	beq.n	736 <nvm_execute_command+0x56>
     732:	2c04      	cmp	r4, #4
     734:	d114      	bne.n	760 <nvm_execute_command+0x80>
     736:	9b01      	ldr	r3, [sp, #4]
     738:	089b      	lsrs	r3, r3, #2
     73a:	005b      	lsls	r3, r3, #1
     73c:	61f3      	str	r3, [r6, #28]
     73e:	23a5      	movs	r3, #165	; 0xa5
     740:	021b      	lsls	r3, r3, #8
     742:	431c      	orrs	r4, r3
     744:	8034      	strh	r4, [r6, #0]
     746:	4b0e      	ldr	r3, [pc, #56]	; (780 <nvm_execute_command+0xa0>)
     748:	4798      	blx	r3
     74a:	2800      	cmp	r0, #0
     74c:	d0fb      	beq.n	746 <nvm_execute_command+0x66>
     74e:	6077      	str	r7, [r6, #4]
     750:	2000      	movs	r0, #0
     752:	e7e7      	b.n	724 <nvm_execute_command+0x44>
     754:	2c40      	cmp	r4, #64	; 0x40
     756:	d303      	bcc.n	760 <nvm_execute_command+0x80>
     758:	2c41      	cmp	r4, #65	; 0x41
     75a:	d9ec      	bls.n	736 <nvm_execute_command+0x56>
     75c:	2c45      	cmp	r4, #69	; 0x45
     75e:	d9ee      	bls.n	73e <nvm_execute_command+0x5e>
     760:	6077      	str	r7, [r6, #4]
     762:	2017      	movs	r0, #23
     764:	e7de      	b.n	724 <nvm_execute_command+0x44>
     766:	8b2b      	ldrh	r3, [r5, #24]
     768:	05db      	lsls	r3, r3, #23
     76a:	d5e4      	bpl.n	736 <nvm_execute_command+0x56>
     76c:	606f      	str	r7, [r5, #4]
     76e:	2010      	movs	r0, #16
     770:	e7d8      	b.n	724 <nvm_execute_command+0x44>
     772:	46c0      	nop			; (mov r8, r8)
     774:	2000008c 	.word	0x2000008c
     778:	ff7fc000 	.word	0xff7fc000
     77c:	41004000 	.word	0x41004000
     780:	00000649 	.word	0x00000649

00000784 <nvm_write_buffer>:
     784:	b5f7      	push	{r0, r1, r2, r4, r5, r6, r7, lr}
     786:	4e21      	ldr	r6, [pc, #132]	; (80c <nvm_write_buffer+0x88>)
     788:	9100      	str	r1, [sp, #0]
     78a:	8833      	ldrh	r3, [r6, #0]
     78c:	8871      	ldrh	r1, [r6, #2]
     78e:	0015      	movs	r5, r2
     790:	4359      	muls	r1, r3
     792:	0004      	movs	r4, r0
     794:	2218      	movs	r2, #24
     796:	4281      	cmp	r1, r0
     798:	d326      	bcc.n	7e8 <nvm_write_buffer+0x64>
     79a:	1e59      	subs	r1, r3, #1
     79c:	4208      	tst	r0, r1
     79e:	d123      	bne.n	7e8 <nvm_write_buffer+0x64>
     7a0:	3a01      	subs	r2, #1
     7a2:	42ab      	cmp	r3, r5
     7a4:	d320      	bcc.n	7e8 <nvm_write_buffer+0x64>
     7a6:	4f1a      	ldr	r7, [pc, #104]	; (810 <nvm_write_buffer+0x8c>)
     7a8:	47b8      	blx	r7
     7aa:	2205      	movs	r2, #5
     7ac:	2800      	cmp	r0, #0
     7ae:	d01b      	beq.n	7e8 <nvm_write_buffer+0x64>
     7b0:	4b18      	ldr	r3, [pc, #96]	; (814 <nvm_write_buffer+0x90>)
     7b2:	4a19      	ldr	r2, [pc, #100]	; (818 <nvm_write_buffer+0x94>)
     7b4:	801a      	strh	r2, [r3, #0]
     7b6:	9301      	str	r3, [sp, #4]
     7b8:	47b8      	blx	r7
     7ba:	2800      	cmp	r0, #0
     7bc:	d0fc      	beq.n	7b8 <nvm_write_buffer+0x34>
     7be:	2320      	movs	r3, #32
     7c0:	9a01      	ldr	r2, [sp, #4]
     7c2:	33ff      	adds	r3, #255	; 0xff
     7c4:	8313      	strh	r3, [r2, #24]
     7c6:	2300      	movs	r3, #0
     7c8:	0862      	lsrs	r2, r4, #1
     7ca:	0052      	lsls	r2, r2, #1
     7cc:	1e68      	subs	r0, r5, #1
     7ce:	429d      	cmp	r5, r3
     7d0:	d80c      	bhi.n	7ec <nvm_write_buffer+0x68>
     7d2:	2200      	movs	r2, #0
     7d4:	7933      	ldrb	r3, [r6, #4]
     7d6:	4293      	cmp	r3, r2
     7d8:	d106      	bne.n	7e8 <nvm_write_buffer+0x64>
     7da:	2d3f      	cmp	r5, #63	; 0x3f
     7dc:	d804      	bhi.n	7e8 <nvm_write_buffer+0x64>
     7de:	0021      	movs	r1, r4
     7e0:	2004      	movs	r0, #4
     7e2:	4b0e      	ldr	r3, [pc, #56]	; (81c <nvm_write_buffer+0x98>)
     7e4:	4798      	blx	r3
     7e6:	0002      	movs	r2, r0
     7e8:	0010      	movs	r0, r2
     7ea:	bdfe      	pop	{r1, r2, r3, r4, r5, r6, r7, pc}
     7ec:	9900      	ldr	r1, [sp, #0]
     7ee:	5cc9      	ldrb	r1, [r1, r3]
     7f0:	4283      	cmp	r3, r0
     7f2:	db05      	blt.n	800 <nvm_write_buffer+0x7c>
     7f4:	b289      	uxth	r1, r1
     7f6:	3302      	adds	r3, #2
     7f8:	8011      	strh	r1, [r2, #0]
     7fa:	b29b      	uxth	r3, r3
     7fc:	3202      	adds	r2, #2
     7fe:	e7e6      	b.n	7ce <nvm_write_buffer+0x4a>
     800:	9f00      	ldr	r7, [sp, #0]
     802:	18ff      	adds	r7, r7, r3
     804:	787f      	ldrb	r7, [r7, #1]
     806:	023f      	lsls	r7, r7, #8
     808:	4339      	orrs	r1, r7
     80a:	e7f4      	b.n	7f6 <nvm_write_buffer+0x72>
     80c:	2000008c 	.word	0x2000008c
     810:	00000649 	.word	0x00000649
     814:	41004000 	.word	0x41004000
     818:	ffffa544 	.word	0xffffa544
     81c:	000006e1 	.word	0x000006e1

00000820 <nvm_read_buffer>:
     820:	b5f8      	push	{r3, r4, r5, r6, r7, lr}
     822:	4b16      	ldr	r3, [pc, #88]	; (87c <nvm_read_buffer+0x5c>)
     824:	000f      	movs	r7, r1
     826:	0016      	movs	r6, r2
     828:	8859      	ldrh	r1, [r3, #2]
     82a:	881a      	ldrh	r2, [r3, #0]
     82c:	0005      	movs	r5, r0
     82e:	4351      	muls	r1, r2
     830:	2318      	movs	r3, #24
     832:	4281      	cmp	r1, r0
     834:	d314      	bcc.n	860 <nvm_read_buffer+0x40>
     836:	1e54      	subs	r4, r2, #1
     838:	4004      	ands	r4, r0
     83a:	d111      	bne.n	860 <nvm_read_buffer+0x40>
     83c:	3b01      	subs	r3, #1
     83e:	42b2      	cmp	r2, r6
     840:	d30e      	bcc.n	860 <nvm_read_buffer+0x40>
     842:	4b0f      	ldr	r3, [pc, #60]	; (880 <nvm_read_buffer+0x60>)
     844:	4798      	blx	r3
     846:	2305      	movs	r3, #5
     848:	2800      	cmp	r0, #0
     84a:	d009      	beq.n	860 <nvm_read_buffer+0x40>
     84c:	2220      	movs	r2, #32
     84e:	4b0d      	ldr	r3, [pc, #52]	; (884 <nvm_read_buffer+0x64>)
     850:	32ff      	adds	r2, #255	; 0xff
     852:	086d      	lsrs	r5, r5, #1
     854:	831a      	strh	r2, [r3, #24]
     856:	006d      	lsls	r5, r5, #1
     858:	1e71      	subs	r1, r6, #1
     85a:	42a6      	cmp	r6, r4
     85c:	d802      	bhi.n	864 <nvm_read_buffer+0x44>
     85e:	2300      	movs	r3, #0
     860:	0018      	movs	r0, r3
     862:	bdf8      	pop	{r3, r4, r5, r6, r7, pc}
     864:	882b      	ldrh	r3, [r5, #0]
     866:	b29b      	uxth	r3, r3
     868:	553b      	strb	r3, [r7, r4]
     86a:	428c      	cmp	r4, r1
     86c:	da02      	bge.n	874 <nvm_read_buffer+0x54>
     86e:	193a      	adds	r2, r7, r4
     870:	0a1b      	lsrs	r3, r3, #8
     872:	7053      	strb	r3, [r2, #1]
     874:	3402      	adds	r4, #2
     876:	b2a4      	uxth	r4, r4
     878:	3502      	adds	r5, #2
     87a:	e7ee      	b.n	85a <nvm_read_buffer+0x3a>
     87c:	2000008c 	.word	0x2000008c
     880:	00000649 	.word	0x00000649
     884:	41004000 	.word	0x41004000

00000888 <nvm_erase_row>:
     888:	b570      	push	{r4, r5, r6, lr}
     88a:	4a13      	ldr	r2, [pc, #76]	; (8d8 <nvm_erase_row+0x50>)
     88c:	0004      	movs	r4, r0
     88e:	8813      	ldrh	r3, [r2, #0]
     890:	8852      	ldrh	r2, [r2, #2]
     892:	2018      	movs	r0, #24
     894:	435a      	muls	r2, r3
     896:	42a2      	cmp	r2, r4
     898:	d31c      	bcc.n	8d4 <nvm_erase_row+0x4c>
     89a:	009b      	lsls	r3, r3, #2
     89c:	3b01      	subs	r3, #1
     89e:	421c      	tst	r4, r3
     8a0:	d118      	bne.n	8d4 <nvm_erase_row+0x4c>
     8a2:	4d0e      	ldr	r5, [pc, #56]	; (8dc <nvm_erase_row+0x54>)
     8a4:	47a8      	blx	r5
     8a6:	0003      	movs	r3, r0
     8a8:	2005      	movs	r0, #5
     8aa:	2b00      	cmp	r3, #0
     8ac:	d012      	beq.n	8d4 <nvm_erase_row+0x4c>
     8ae:	2220      	movs	r2, #32
     8b0:	4b0b      	ldr	r3, [pc, #44]	; (8e0 <nvm_erase_row+0x58>)
     8b2:	08a4      	lsrs	r4, r4, #2
     8b4:	32ff      	adds	r2, #255	; 0xff
     8b6:	0064      	lsls	r4, r4, #1
     8b8:	831a      	strh	r2, [r3, #24]
     8ba:	61dc      	str	r4, [r3, #28]
     8bc:	001c      	movs	r4, r3
     8be:	4a09      	ldr	r2, [pc, #36]	; (8e4 <nvm_erase_row+0x5c>)
     8c0:	801a      	strh	r2, [r3, #0]
     8c2:	47a8      	blx	r5
     8c4:	2800      	cmp	r0, #0
     8c6:	d0fc      	beq.n	8c2 <nvm_erase_row+0x3a>
     8c8:	231c      	movs	r3, #28
     8ca:	8b20      	ldrh	r0, [r4, #24]
     8cc:	4018      	ands	r0, r3
     8ce:	1e43      	subs	r3, r0, #1
     8d0:	4198      	sbcs	r0, r3
     8d2:	0080      	lsls	r0, r0, #2
     8d4:	bd70      	pop	{r4, r5, r6, pc}
     8d6:	46c0      	nop			; (mov r8, r8)
     8d8:	2000008c 	.word	0x2000008c
     8dc:	00000649 	.word	0x00000649
     8e0:	41004000 	.word	0x41004000
     8e4:	ffffa502 	.word	0xffffa502

000008e8 <nvm_get_parameters>:
     8e8:	2220      	movs	r2, #32
     8ea:	b510      	push	{r4, lr}
     8ec:	2407      	movs	r4, #7
     8ee:	4b12      	ldr	r3, [pc, #72]	; (938 <nvm_get_parameters+0x50>)
     8f0:	32ff      	adds	r2, #255	; 0xff
     8f2:	831a      	strh	r2, [r3, #24]
     8f4:	689b      	ldr	r3, [r3, #8]
     8f6:	3a18      	subs	r2, #24
     8f8:	0c19      	lsrs	r1, r3, #16
     8fa:	4021      	ands	r1, r4
     8fc:	3aff      	subs	r2, #255	; 0xff
     8fe:	408a      	lsls	r2, r1
     900:	7002      	strb	r2, [r0, #0]
     902:	4a0e      	ldr	r2, [pc, #56]	; (93c <nvm_get_parameters+0x54>)
     904:	8043      	strh	r3, [r0, #2]
     906:	8813      	ldrh	r3, [r2, #0]
     908:	091b      	lsrs	r3, r3, #4
     90a:	4023      	ands	r3, r4
     90c:	42a3      	cmp	r3, r4
     90e:	d109      	bne.n	924 <nvm_get_parameters+0x3c>
     910:	2300      	movs	r3, #0
     912:	6043      	str	r3, [r0, #4]
     914:	2307      	movs	r3, #7
     916:	8812      	ldrh	r2, [r2, #0]
     918:	401a      	ands	r2, r3
     91a:	429a      	cmp	r2, r3
     91c:	d107      	bne.n	92e <nvm_get_parameters+0x46>
     91e:	2300      	movs	r3, #0
     920:	6083      	str	r3, [r0, #8]
     922:	bd10      	pop	{r4, pc}
     924:	2106      	movs	r1, #6
     926:	1ac9      	subs	r1, r1, r3
     928:	2304      	movs	r3, #4
     92a:	408b      	lsls	r3, r1
     92c:	e7f1      	b.n	912 <nvm_get_parameters+0x2a>
     92e:	1a9b      	subs	r3, r3, r2
     930:	2204      	movs	r2, #4
     932:	409a      	lsls	r2, r3
     934:	6082      	str	r2, [r0, #8]
     936:	e7f4      	b.n	922 <nvm_get_parameters+0x3a>
     938:	41004000 	.word	0x41004000
     93c:	00804000 	.word	0x00804000

00000940 <long_division>:
     940:	b5f0      	push	{r4, r5, r6, r7, lr}
     942:	2400      	movs	r4, #0
     944:	b089      	sub	sp, #36	; 0x24
     946:	9200      	str	r2, [sp, #0]
     948:	9301      	str	r3, [sp, #4]
     94a:	233f      	movs	r3, #63	; 0x3f
     94c:	2600      	movs	r6, #0
     94e:	2700      	movs	r7, #0
     950:	0025      	movs	r5, r4
     952:	9006      	str	r0, [sp, #24]
     954:	9107      	str	r1, [sp, #28]
     956:	9303      	str	r3, [sp, #12]
     958:	9a03      	ldr	r2, [sp, #12]
     95a:	4b13      	ldr	r3, [pc, #76]	; (9a8 <long_division+0x68>)
     95c:	2001      	movs	r0, #1
     95e:	2100      	movs	r1, #0
     960:	4798      	blx	r3
     962:	19b6      	adds	r6, r6, r6
     964:	417f      	adcs	r7, r7
     966:	9b06      	ldr	r3, [sp, #24]
     968:	9a07      	ldr	r2, [sp, #28]
     96a:	4003      	ands	r3, r0
     96c:	400a      	ands	r2, r1
     96e:	9604      	str	r6, [sp, #16]
     970:	9705      	str	r7, [sp, #20]
     972:	4313      	orrs	r3, r2
     974:	d003      	beq.n	97e <long_division+0x3e>
     976:	2301      	movs	r3, #1
     978:	4333      	orrs	r3, r6
     97a:	001e      	movs	r6, r3
     97c:	9f05      	ldr	r7, [sp, #20]
     97e:	9b01      	ldr	r3, [sp, #4]
     980:	42bb      	cmp	r3, r7
     982:	d809      	bhi.n	998 <long_division+0x58>
     984:	d102      	bne.n	98c <long_division+0x4c>
     986:	9b00      	ldr	r3, [sp, #0]
     988:	42b3      	cmp	r3, r6
     98a:	d805      	bhi.n	998 <long_division+0x58>
     98c:	9a00      	ldr	r2, [sp, #0]
     98e:	9b01      	ldr	r3, [sp, #4]
     990:	1ab6      	subs	r6, r6, r2
     992:	419f      	sbcs	r7, r3
     994:	4304      	orrs	r4, r0
     996:	430d      	orrs	r5, r1
     998:	9b03      	ldr	r3, [sp, #12]
     99a:	1e5a      	subs	r2, r3, #1
     99c:	9203      	str	r2, [sp, #12]
     99e:	d2db      	bcs.n	958 <long_division+0x18>
     9a0:	0020      	movs	r0, r4
     9a2:	0029      	movs	r1, r5
     9a4:	b009      	add	sp, #36	; 0x24
     9a6:	bdf0      	pop	{r4, r5, r6, r7, pc}
     9a8:	00002521 	.word	0x00002521

000009ac <_sercom_get_sync_baud_val>:
     9ac:	b510      	push	{r4, lr}
     9ae:	0849      	lsrs	r1, r1, #1
     9b0:	0004      	movs	r4, r0
     9b2:	2300      	movs	r3, #0
     9b4:	2040      	movs	r0, #64	; 0x40
     9b6:	42a1      	cmp	r1, r4
     9b8:	d201      	bcs.n	9be <_sercom_get_sync_baud_val+0x12>
     9ba:	bd10      	pop	{r4, pc}
     9bc:	0003      	movs	r3, r0
     9be:	1c58      	adds	r0, r3, #1
     9c0:	1b09      	subs	r1, r1, r4
     9c2:	b280      	uxth	r0, r0
     9c4:	428c      	cmp	r4, r1
     9c6:	d9f9      	bls.n	9bc <_sercom_get_sync_baud_val+0x10>
     9c8:	2040      	movs	r0, #64	; 0x40
     9ca:	2bff      	cmp	r3, #255	; 0xff
     9cc:	d8f5      	bhi.n	9ba <_sercom_get_sync_baud_val+0xe>
     9ce:	8013      	strh	r3, [r2, #0]
     9d0:	2000      	movs	r0, #0
     9d2:	e7f2      	b.n	9ba <_sercom_get_sync_baud_val+0xe>

000009d4 <_sercom_get_async_baud_val>:
     9d4:	b5f0      	push	{r4, r5, r6, r7, lr}
     9d6:	b085      	sub	sp, #20
     9d8:	001e      	movs	r6, r3
     9da:	ab0a      	add	r3, sp, #40	; 0x28
     9dc:	000d      	movs	r5, r1
     9de:	7819      	ldrb	r1, [r3, #0]
     9e0:	0003      	movs	r3, r0
     9e2:	434b      	muls	r3, r1
     9e4:	9203      	str	r2, [sp, #12]
     9e6:	2740      	movs	r7, #64	; 0x40
     9e8:	42ab      	cmp	r3, r5
     9ea:	d817      	bhi.n	a1c <_sercom_get_async_baud_val+0x48>
     9ec:	2e00      	cmp	r6, #0
     9ee:	d118      	bne.n	a22 <_sercom_get_async_baud_val+0x4e>
     9f0:	0002      	movs	r2, r0
     9f2:	0033      	movs	r3, r6
     9f4:	0008      	movs	r0, r1
     9f6:	4c1b      	ldr	r4, [pc, #108]	; (a64 <_sercom_get_async_baud_val+0x90>)
     9f8:	0031      	movs	r1, r6
     9fa:	47a0      	blx	r4
     9fc:	002a      	movs	r2, r5
     9fe:	0001      	movs	r1, r0
     a00:	0033      	movs	r3, r6
     a02:	4c19      	ldr	r4, [pc, #100]	; (a68 <_sercom_get_async_baud_val+0x94>)
     a04:	0030      	movs	r0, r6
     a06:	47a0      	blx	r4
     a08:	2200      	movs	r2, #0
     a0a:	2301      	movs	r3, #1
     a0c:	1a12      	subs	r2, r2, r0
     a0e:	418b      	sbcs	r3, r1
     a10:	0c14      	lsrs	r4, r2, #16
     a12:	0418      	lsls	r0, r3, #16
     a14:	4304      	orrs	r4, r0
     a16:	2700      	movs	r7, #0
     a18:	9b03      	ldr	r3, [sp, #12]
     a1a:	801c      	strh	r4, [r3, #0]
     a1c:	0038      	movs	r0, r7
     a1e:	b005      	add	sp, #20
     a20:	bdf0      	pop	{r4, r5, r6, r7, pc}
     a22:	2400      	movs	r4, #0
     a24:	2e01      	cmp	r6, #1
     a26:	d1f6      	bne.n	a16 <_sercom_get_async_baud_val+0x42>
     a28:	000a      	movs	r2, r1
     a2a:	0023      	movs	r3, r4
     a2c:	0021      	movs	r1, r4
     a2e:	4e0d      	ldr	r6, [pc, #52]	; (a64 <_sercom_get_async_baud_val+0x90>)
     a30:	47b0      	blx	r6
     a32:	9000      	str	r0, [sp, #0]
     a34:	9101      	str	r1, [sp, #4]
     a36:	000b      	movs	r3, r1
     a38:	0002      	movs	r2, r0
     a3a:	0021      	movs	r1, r4
     a3c:	0028      	movs	r0, r5
     a3e:	4c0a      	ldr	r4, [pc, #40]	; (a68 <_sercom_get_async_baud_val+0x94>)
     a40:	47a0      	blx	r4
     a42:	2380      	movs	r3, #128	; 0x80
     a44:	0006      	movs	r6, r0
     a46:	019b      	lsls	r3, r3, #6
     a48:	4298      	cmp	r0, r3
     a4a:	d8e7      	bhi.n	a1c <_sercom_get_async_baud_val+0x48>
     a4c:	9a00      	ldr	r2, [sp, #0]
     a4e:	9b01      	ldr	r3, [sp, #4]
     a50:	0f69      	lsrs	r1, r5, #29
     a52:	00e8      	lsls	r0, r5, #3
     a54:	47a0      	blx	r4
     a56:	00f4      	lsls	r4, r6, #3
     a58:	1b04      	subs	r4, r0, r4
     a5a:	b2e4      	uxtb	r4, r4
     a5c:	0364      	lsls	r4, r4, #13
     a5e:	4334      	orrs	r4, r6
     a60:	e7d9      	b.n	a16 <_sercom_get_async_baud_val+0x42>
     a62:	46c0      	nop			; (mov r8, r8)
     a64:	00002539 	.word	0x00002539
     a68:	00000941 	.word	0x00000941

00000a6c <sercom_set_gclk_generator>:
     a6c:	b537      	push	{r0, r1, r2, r4, r5, lr}
     a6e:	4c0d      	ldr	r4, [pc, #52]	; (aa4 <sercom_set_gclk_generator+0x38>)
     a70:	0005      	movs	r5, r0
     a72:	7823      	ldrb	r3, [r4, #0]
     a74:	2b00      	cmp	r3, #0
     a76:	d001      	beq.n	a7c <sercom_set_gclk_generator+0x10>
     a78:	2900      	cmp	r1, #0
     a7a:	d00c      	beq.n	a96 <sercom_set_gclk_generator+0x2a>
     a7c:	a901      	add	r1, sp, #4
     a7e:	2013      	movs	r0, #19
     a80:	4b09      	ldr	r3, [pc, #36]	; (aa8 <sercom_set_gclk_generator+0x3c>)
     a82:	700d      	strb	r5, [r1, #0]
     a84:	4798      	blx	r3
     a86:	2013      	movs	r0, #19
     a88:	4b08      	ldr	r3, [pc, #32]	; (aac <sercom_set_gclk_generator+0x40>)
     a8a:	4798      	blx	r3
     a8c:	2301      	movs	r3, #1
     a8e:	2000      	movs	r0, #0
     a90:	7065      	strb	r5, [r4, #1]
     a92:	7023      	strb	r3, [r4, #0]
     a94:	bd3e      	pop	{r1, r2, r3, r4, r5, pc}
     a96:	7863      	ldrb	r3, [r4, #1]
     a98:	0008      	movs	r0, r1
     a9a:	42ab      	cmp	r3, r5
     a9c:	d0fa      	beq.n	a94 <sercom_set_gclk_generator+0x28>
     a9e:	201d      	movs	r0, #29
     aa0:	e7f8      	b.n	a94 <sercom_set_gclk_generator+0x28>
     aa2:	46c0      	nop			; (mov r8, r8)
     aa4:	20000092 	.word	0x20000092
     aa8:	00001bd5 	.word	0x00001bd5
     aac:	00001b4d 	.word	0x00001b4d

00000ab0 <_sercom_get_default_pad>:
     ab0:	4a39      	ldr	r2, [pc, #228]	; (b98 <_sercom_get_default_pad+0xe8>)
     ab2:	0003      	movs	r3, r0
     ab4:	b500      	push	{lr}
     ab6:	0008      	movs	r0, r1
     ab8:	4293      	cmp	r3, r2
     aba:	d033      	beq.n	b24 <_sercom_get_default_pad+0x74>
     abc:	d807      	bhi.n	ace <_sercom_get_default_pad+0x1e>
     abe:	4a37      	ldr	r2, [pc, #220]	; (b9c <_sercom_get_default_pad+0xec>)
     ac0:	4293      	cmp	r3, r2
     ac2:	d014      	beq.n	aee <_sercom_get_default_pad+0x3e>
     ac4:	4a36      	ldr	r2, [pc, #216]	; (ba0 <_sercom_get_default_pad+0xf0>)
     ac6:	4293      	cmp	r3, r2
     ac8:	d01f      	beq.n	b0a <_sercom_get_default_pad+0x5a>
     aca:	2300      	movs	r3, #0
     acc:	e017      	b.n	afe <_sercom_get_default_pad+0x4e>
     ace:	4a35      	ldr	r2, [pc, #212]	; (ba4 <_sercom_get_default_pad+0xf4>)
     ad0:	4293      	cmp	r3, r2
     ad2:	d03a      	beq.n	b4a <_sercom_get_default_pad+0x9a>
     ad4:	4a34      	ldr	r2, [pc, #208]	; (ba8 <_sercom_get_default_pad+0xf8>)
     ad6:	4293      	cmp	r3, r2
     ad8:	d044      	beq.n	b64 <_sercom_get_default_pad+0xb4>
     ada:	4a34      	ldr	r2, [pc, #208]	; (bac <_sercom_get_default_pad+0xfc>)
     adc:	4293      	cmp	r3, r2
     ade:	d1f4      	bne.n	aca <_sercom_get_default_pad+0x1a>
     ae0:	2300      	movs	r3, #0
     ae2:	2903      	cmp	r1, #3
     ae4:	d80b      	bhi.n	afe <_sercom_get_default_pad+0x4e>
     ae6:	f001 fc85 	bl	23f4 <__gnu_thumb1_case_uqi>
     aea:	2a50      	.short	0x2a50
     aec:	2e2c      	.short	0x2e2c
     aee:	2300      	movs	r3, #0
     af0:	2903      	cmp	r1, #3
     af2:	d804      	bhi.n	afe <_sercom_get_default_pad+0x4e>
     af4:	f001 fc7e 	bl	23f4 <__gnu_thumb1_case_uqi>
     af8:	07050243 	.word	0x07050243
     afc:	4b2c      	ldr	r3, [pc, #176]	; (bb0 <_sercom_get_default_pad+0x100>)
     afe:	0018      	movs	r0, r3
     b00:	bd00      	pop	{pc}
     b02:	4b2c      	ldr	r3, [pc, #176]	; (bb4 <_sercom_get_default_pad+0x104>)
     b04:	e7fb      	b.n	afe <_sercom_get_default_pad+0x4e>
     b06:	4b2c      	ldr	r3, [pc, #176]	; (bb8 <_sercom_get_default_pad+0x108>)
     b08:	e7f9      	b.n	afe <_sercom_get_default_pad+0x4e>
     b0a:	2300      	movs	r3, #0
     b0c:	2903      	cmp	r1, #3
     b0e:	d8f6      	bhi.n	afe <_sercom_get_default_pad+0x4e>
     b10:	f001 fc70 	bl	23f4 <__gnu_thumb1_case_uqi>
     b14:	06040237 	.word	0x06040237
     b18:	4b28      	ldr	r3, [pc, #160]	; (bbc <_sercom_get_default_pad+0x10c>)
     b1a:	e7f0      	b.n	afe <_sercom_get_default_pad+0x4e>
     b1c:	4b28      	ldr	r3, [pc, #160]	; (bc0 <_sercom_get_default_pad+0x110>)
     b1e:	e7ee      	b.n	afe <_sercom_get_default_pad+0x4e>
     b20:	4b28      	ldr	r3, [pc, #160]	; (bc4 <_sercom_get_default_pad+0x114>)
     b22:	e7ec      	b.n	afe <_sercom_get_default_pad+0x4e>
     b24:	2300      	movs	r3, #0
     b26:	2903      	cmp	r1, #3
     b28:	d8e9      	bhi.n	afe <_sercom_get_default_pad+0x4e>
     b2a:	f001 fc63 	bl	23f4 <__gnu_thumb1_case_uqi>
     b2e:	022c      	.short	0x022c
     b30:	0604      	.short	0x0604
     b32:	4b25      	ldr	r3, [pc, #148]	; (bc8 <_sercom_get_default_pad+0x118>)
     b34:	e7e3      	b.n	afe <_sercom_get_default_pad+0x4e>
     b36:	4b25      	ldr	r3, [pc, #148]	; (bcc <_sercom_get_default_pad+0x11c>)
     b38:	e7e1      	b.n	afe <_sercom_get_default_pad+0x4e>
     b3a:	4b25      	ldr	r3, [pc, #148]	; (bd0 <_sercom_get_default_pad+0x120>)
     b3c:	e7df      	b.n	afe <_sercom_get_default_pad+0x4e>
     b3e:	4b25      	ldr	r3, [pc, #148]	; (bd4 <_sercom_get_default_pad+0x124>)
     b40:	e7dd      	b.n	afe <_sercom_get_default_pad+0x4e>
     b42:	4b25      	ldr	r3, [pc, #148]	; (bd8 <_sercom_get_default_pad+0x128>)
     b44:	e7db      	b.n	afe <_sercom_get_default_pad+0x4e>
     b46:	4b25      	ldr	r3, [pc, #148]	; (bdc <_sercom_get_default_pad+0x12c>)
     b48:	e7d9      	b.n	afe <_sercom_get_default_pad+0x4e>
     b4a:	2300      	movs	r3, #0
     b4c:	2903      	cmp	r1, #3
     b4e:	d8d6      	bhi.n	afe <_sercom_get_default_pad+0x4e>
     b50:	f001 fc50 	bl	23f4 <__gnu_thumb1_case_uqi>
     b54:	0604021d 	.word	0x0604021d
     b58:	4b21      	ldr	r3, [pc, #132]	; (be0 <_sercom_get_default_pad+0x130>)
     b5a:	e7d0      	b.n	afe <_sercom_get_default_pad+0x4e>
     b5c:	4b21      	ldr	r3, [pc, #132]	; (be4 <_sercom_get_default_pad+0x134>)
     b5e:	e7ce      	b.n	afe <_sercom_get_default_pad+0x4e>
     b60:	4b21      	ldr	r3, [pc, #132]	; (be8 <_sercom_get_default_pad+0x138>)
     b62:	e7cc      	b.n	afe <_sercom_get_default_pad+0x4e>
     b64:	2300      	movs	r3, #0
     b66:	2903      	cmp	r1, #3
     b68:	d8c9      	bhi.n	afe <_sercom_get_default_pad+0x4e>
     b6a:	f001 fc43 	bl	23f4 <__gnu_thumb1_case_uqi>
     b6e:	0212      	.short	0x0212
     b70:	0604      	.short	0x0604
     b72:	4b1e      	ldr	r3, [pc, #120]	; (bec <_sercom_get_default_pad+0x13c>)
     b74:	e7c3      	b.n	afe <_sercom_get_default_pad+0x4e>
     b76:	4b1e      	ldr	r3, [pc, #120]	; (bf0 <_sercom_get_default_pad+0x140>)
     b78:	e7c1      	b.n	afe <_sercom_get_default_pad+0x4e>
     b7a:	4b1e      	ldr	r3, [pc, #120]	; (bf4 <_sercom_get_default_pad+0x144>)
     b7c:	e7bf      	b.n	afe <_sercom_get_default_pad+0x4e>
     b7e:	4b1e      	ldr	r3, [pc, #120]	; (bf8 <_sercom_get_default_pad+0x148>)
     b80:	e7bd      	b.n	afe <_sercom_get_default_pad+0x4e>
     b82:	2303      	movs	r3, #3
     b84:	e7bb      	b.n	afe <_sercom_get_default_pad+0x4e>
     b86:	4b1d      	ldr	r3, [pc, #116]	; (bfc <_sercom_get_default_pad+0x14c>)
     b88:	e7b9      	b.n	afe <_sercom_get_default_pad+0x4e>
     b8a:	4b1d      	ldr	r3, [pc, #116]	; (c00 <_sercom_get_default_pad+0x150>)
     b8c:	e7b7      	b.n	afe <_sercom_get_default_pad+0x4e>
     b8e:	4b1d      	ldr	r3, [pc, #116]	; (c04 <_sercom_get_default_pad+0x154>)
     b90:	e7b5      	b.n	afe <_sercom_get_default_pad+0x4e>
     b92:	4b1d      	ldr	r3, [pc, #116]	; (c08 <_sercom_get_default_pad+0x158>)
     b94:	e7b3      	b.n	afe <_sercom_get_default_pad+0x4e>
     b96:	46c0      	nop			; (mov r8, r8)
     b98:	42001000 	.word	0x42001000
     b9c:	42000800 	.word	0x42000800
     ba0:	42000c00 	.word	0x42000c00
     ba4:	42001800 	.word	0x42001800
     ba8:	42001c00 	.word	0x42001c00
     bac:	42001400 	.word	0x42001400
     bb0:	00050003 	.word	0x00050003
     bb4:	00060003 	.word	0x00060003
     bb8:	00070003 	.word	0x00070003
     bbc:	00010003 	.word	0x00010003
     bc0:	001e0003 	.word	0x001e0003
     bc4:	001f0003 	.word	0x001f0003
     bc8:	00090003 	.word	0x00090003
     bcc:	000a0003 	.word	0x000a0003
     bd0:	000b0003 	.word	0x000b0003
     bd4:	00110003 	.word	0x00110003
     bd8:	00120003 	.word	0x00120003
     bdc:	00130003 	.word	0x00130003
     be0:	000d0003 	.word	0x000d0003
     be4:	000e0003 	.word	0x000e0003
     be8:	000f0003 	.word	0x000f0003
     bec:	00170003 	.word	0x00170003
     bf0:	00180003 	.word	0x00180003
     bf4:	00190003 	.word	0x00190003
     bf8:	00040003 	.word	0x00040003
     bfc:	00080003 	.word	0x00080003
     c00:	00100003 	.word	0x00100003
     c04:	000c0003 	.word	0x000c0003
     c08:	00160003 	.word	0x00160003

00000c0c <_sercom_get_sercom_inst_index>:
     c0c:	b570      	push	{r4, r5, r6, lr}
     c0e:	b086      	sub	sp, #24
     c10:	4669      	mov	r1, sp
     c12:	4b09      	ldr	r3, [pc, #36]	; (c38 <_sercom_get_sercom_inst_index+0x2c>)
     c14:	466a      	mov	r2, sp
     c16:	cb70      	ldmia	r3!, {r4, r5, r6}
     c18:	c170      	stmia	r1!, {r4, r5, r6}
     c1a:	cb70      	ldmia	r3!, {r4, r5, r6}
     c1c:	c170      	stmia	r1!, {r4, r5, r6}
     c1e:	2300      	movs	r3, #0
     c20:	0099      	lsls	r1, r3, #2
     c22:	5851      	ldr	r1, [r2, r1]
     c24:	4281      	cmp	r1, r0
     c26:	d102      	bne.n	c2e <_sercom_get_sercom_inst_index+0x22>
     c28:	b2d8      	uxtb	r0, r3
     c2a:	b006      	add	sp, #24
     c2c:	bd70      	pop	{r4, r5, r6, pc}
     c2e:	3301      	adds	r3, #1
     c30:	2b06      	cmp	r3, #6
     c32:	d1f5      	bne.n	c20 <_sercom_get_sercom_inst_index+0x14>
     c34:	2000      	movs	r0, #0
     c36:	e7f8      	b.n	c2a <_sercom_get_sercom_inst_index+0x1e>
     c38:	000036ec 	.word	0x000036ec

00000c3c <spi_write>:
     c3c:	6803      	ldr	r3, [r0, #0]
     c3e:	2005      	movs	r0, #5
     c40:	7e1a      	ldrb	r2, [r3, #24]
     c42:	07d2      	lsls	r2, r2, #31
     c44:	d503      	bpl.n	c4e <spi_write+0x12>
     c46:	2000      	movs	r0, #0
     c48:	05c9      	lsls	r1, r1, #23
     c4a:	0dc9      	lsrs	r1, r1, #23
     c4c:	6299      	str	r1, [r3, #40]	; 0x28
     c4e:	4770      	bx	lr

00000c50 <spi_read>:
     c50:	b530      	push	{r4, r5, lr}
     c52:	2404      	movs	r4, #4
     c54:	6803      	ldr	r3, [r0, #0]
     c56:	2210      	movs	r2, #16
     c58:	7e1d      	ldrb	r5, [r3, #24]
     c5a:	4225      	tst	r5, r4
     c5c:	d00c      	beq.n	c78 <spi_read+0x28>
     c5e:	8b5d      	ldrh	r5, [r3, #26]
     c60:	2200      	movs	r2, #0
     c62:	4225      	tst	r5, r4
     c64:	d001      	beq.n	c6a <spi_read+0x1a>
     c66:	835c      	strh	r4, [r3, #26]
     c68:	321e      	adds	r2, #30
     c6a:	7980      	ldrb	r0, [r0, #6]
     c6c:	6a9b      	ldr	r3, [r3, #40]	; 0x28
     c6e:	2801      	cmp	r0, #1
     c70:	d104      	bne.n	c7c <spi_read+0x2c>
     c72:	05db      	lsls	r3, r3, #23
     c74:	0ddb      	lsrs	r3, r3, #23
     c76:	800b      	strh	r3, [r1, #0]
     c78:	0010      	movs	r0, r2
     c7a:	bd30      	pop	{r4, r5, pc}
     c7c:	b2db      	uxtb	r3, r3
     c7e:	e7fa      	b.n	c76 <spi_read+0x26>

00000c80 <spi_init>:
     c80:	b5f0      	push	{r4, r5, r6, r7, lr}
     c82:	0005      	movs	r5, r0
     c84:	6029      	str	r1, [r5, #0]
     c86:	0014      	movs	r4, r2
     c88:	680a      	ldr	r2, [r1, #0]
     c8a:	b089      	sub	sp, #36	; 0x24
     c8c:	000f      	movs	r7, r1
     c8e:	231c      	movs	r3, #28
     c90:	0792      	lsls	r2, r2, #30
     c92:	d500      	bpl.n	c96 <spi_init+0x16>
     c94:	e0ba      	b.n	e0c <spi_init+0x18c>
     c96:	2601      	movs	r6, #1
     c98:	680b      	ldr	r3, [r1, #0]
     c9a:	4033      	ands	r3, r6
     c9c:	9301      	str	r3, [sp, #4]
     c9e:	9a01      	ldr	r2, [sp, #4]
     ca0:	2305      	movs	r3, #5
     ca2:	2a00      	cmp	r2, #0
     ca4:	d000      	beq.n	ca8 <spi_init+0x28>
     ca6:	e0b1      	b.n	e0c <spi_init+0x18c>
     ca8:	0008      	movs	r0, r1
     caa:	4b5a      	ldr	r3, [pc, #360]	; (e14 <spi_init+0x194>)
     cac:	4798      	blx	r3
     cae:	1c81      	adds	r1, r0, #2
     cb0:	408e      	lsls	r6, r1
     cb2:	4b59      	ldr	r3, [pc, #356]	; (e18 <spi_init+0x198>)
     cb4:	3014      	adds	r0, #20
     cb6:	6a1a      	ldr	r2, [r3, #32]
     cb8:	4316      	orrs	r6, r2
     cba:	621e      	str	r6, [r3, #32]
     cbc:	1d63      	adds	r3, r4, #5
     cbe:	7fdb      	ldrb	r3, [r3, #31]
     cc0:	aa02      	add	r2, sp, #8
     cc2:	b2c6      	uxtb	r6, r0
     cc4:	7013      	strb	r3, [r2, #0]
     cc6:	0011      	movs	r1, r2
     cc8:	0030      	movs	r0, r6
     cca:	4b54      	ldr	r3, [pc, #336]	; (e1c <spi_init+0x19c>)
     ccc:	4798      	blx	r3
     cce:	0030      	movs	r0, r6
     cd0:	4b53      	ldr	r3, [pc, #332]	; (e20 <spi_init+0x1a0>)
     cd2:	4798      	blx	r3
     cd4:	1d63      	adds	r3, r4, #5
     cd6:	7fd8      	ldrb	r0, [r3, #31]
     cd8:	9901      	ldr	r1, [sp, #4]
     cda:	4b52      	ldr	r3, [pc, #328]	; (e24 <spi_init+0x1a4>)
     cdc:	4798      	blx	r3
     cde:	7823      	ldrb	r3, [r4, #0]
     ce0:	2b01      	cmp	r3, #1
     ce2:	d103      	bne.n	cec <spi_init+0x6c>
     ce4:	683a      	ldr	r2, [r7, #0]
     ce6:	330b      	adds	r3, #11
     ce8:	4313      	orrs	r3, r2
     cea:	603b      	str	r3, [r7, #0]
     cec:	002b      	movs	r3, r5
     cee:	002a      	movs	r2, r5
     cf0:	2600      	movs	r6, #0
     cf2:	330c      	adds	r3, #12
     cf4:	3228      	adds	r2, #40	; 0x28
     cf6:	c340      	stmia	r3!, {r6}
     cf8:	4293      	cmp	r3, r2
     cfa:	d1fc      	bne.n	cf6 <spi_init+0x76>
     cfc:	002b      	movs	r3, r5
     cfe:	3336      	adds	r3, #54	; 0x36
     d00:	86ae      	strh	r6, [r5, #52]	; 0x34
     d02:	62ee      	str	r6, [r5, #44]	; 0x2c
     d04:	862e      	strh	r6, [r5, #48]	; 0x30
     d06:	62ae      	str	r6, [r5, #40]	; 0x28
     d08:	701e      	strb	r6, [r3, #0]
     d0a:	705e      	strb	r6, [r3, #1]
     d0c:	709e      	strb	r6, [r3, #2]
     d0e:	2303      	movs	r3, #3
     d10:	6828      	ldr	r0, [r5, #0]
     d12:	726b      	strb	r3, [r5, #9]
     d14:	4b3f      	ldr	r3, [pc, #252]	; (e14 <spi_init+0x194>)
     d16:	712e      	strb	r6, [r5, #4]
     d18:	4798      	blx	r3
     d1a:	0007      	movs	r7, r0
     d1c:	4b42      	ldr	r3, [pc, #264]	; (e28 <spi_init+0x1a8>)
     d1e:	4943      	ldr	r1, [pc, #268]	; (e2c <spi_init+0x1ac>)
     d20:	4798      	blx	r3
     d22:	4b43      	ldr	r3, [pc, #268]	; (e30 <spi_init+0x1b0>)
     d24:	00bf      	lsls	r7, r7, #2
     d26:	50fd      	str	r5, [r7, r3]
     d28:	2380      	movs	r3, #128	; 0x80
     d2a:	aa02      	add	r2, sp, #8
     d2c:	7113      	strb	r3, [r2, #4]
     d2e:	2301      	movs	r3, #1
     d30:	7193      	strb	r3, [r2, #6]
     d32:	7823      	ldrb	r3, [r4, #0]
     d34:	682f      	ldr	r7, [r5, #0]
     d36:	7156      	strb	r6, [r2, #5]
     d38:	71d6      	strb	r6, [r2, #7]
     d3a:	2b00      	cmp	r3, #0
     d3c:	d100      	bne.n	d40 <spi_init+0xc0>
     d3e:	7196      	strb	r6, [r2, #6]
     d40:	2600      	movs	r6, #0
     d42:	6aa3      	ldr	r3, [r4, #40]	; 0x28
     d44:	9304      	str	r3, [sp, #16]
     d46:	6ae3      	ldr	r3, [r4, #44]	; 0x2c
     d48:	9305      	str	r3, [sp, #20]
     d4a:	6b23      	ldr	r3, [r4, #48]	; 0x30
     d4c:	9306      	str	r3, [sp, #24]
     d4e:	6b63      	ldr	r3, [r4, #52]	; 0x34
     d50:	9307      	str	r3, [sp, #28]
     d52:	00b3      	lsls	r3, r6, #2
     d54:	aa04      	add	r2, sp, #16
     d56:	5898      	ldr	r0, [r3, r2]
     d58:	b2f1      	uxtb	r1, r6
     d5a:	2800      	cmp	r0, #0
     d5c:	d102      	bne.n	d64 <spi_init+0xe4>
     d5e:	0038      	movs	r0, r7
     d60:	4b34      	ldr	r3, [pc, #208]	; (e34 <spi_init+0x1b4>)
     d62:	4798      	blx	r3
     d64:	1c43      	adds	r3, r0, #1
     d66:	d006      	beq.n	d76 <spi_init+0xf6>
     d68:	ab02      	add	r3, sp, #8
     d6a:	7118      	strb	r0, [r3, #4]
     d6c:	0c00      	lsrs	r0, r0, #16
     d6e:	b2c0      	uxtb	r0, r0
     d70:	a903      	add	r1, sp, #12
     d72:	4b31      	ldr	r3, [pc, #196]	; (e38 <spi_init+0x1b8>)
     d74:	4798      	blx	r3
     d76:	3601      	adds	r6, #1
     d78:	2e04      	cmp	r6, #4
     d7a:	d1ea      	bne.n	d52 <spi_init+0xd2>
     d7c:	7823      	ldrb	r3, [r4, #0]
     d7e:	716b      	strb	r3, [r5, #5]
     d80:	7c23      	ldrb	r3, [r4, #16]
     d82:	71ab      	strb	r3, [r5, #6]
     d84:	7ca3      	ldrb	r3, [r4, #18]
     d86:	71eb      	strb	r3, [r5, #7]
     d88:	7d23      	ldrb	r3, [r4, #20]
     d8a:	722b      	strb	r3, [r5, #8]
     d8c:	ab02      	add	r3, sp, #8
     d8e:	1c9e      	adds	r6, r3, #2
     d90:	2300      	movs	r3, #0
     d92:	8033      	strh	r3, [r6, #0]
     d94:	7823      	ldrb	r3, [r4, #0]
     d96:	2b01      	cmp	r3, #1
     d98:	d110      	bne.n	dbc <spi_init+0x13c>
     d9a:	4b1e      	ldr	r3, [pc, #120]	; (e14 <spi_init+0x194>)
     d9c:	6828      	ldr	r0, [r5, #0]
     d9e:	4798      	blx	r3
     da0:	3014      	adds	r0, #20
     da2:	4b26      	ldr	r3, [pc, #152]	; (e3c <spi_init+0x1bc>)
     da4:	b2c0      	uxtb	r0, r0
     da6:	4798      	blx	r3
     da8:	4b25      	ldr	r3, [pc, #148]	; (e40 <spi_init+0x1c0>)
     daa:	0001      	movs	r1, r0
     dac:	0032      	movs	r2, r6
     dae:	69a0      	ldr	r0, [r4, #24]
     db0:	4798      	blx	r3
     db2:	2317      	movs	r3, #23
     db4:	2800      	cmp	r0, #0
     db6:	d129      	bne.n	e0c <spi_init+0x18c>
     db8:	7833      	ldrb	r3, [r6, #0]
     dba:	733b      	strb	r3, [r7, #12]
     dbc:	68a3      	ldr	r3, [r4, #8]
     dbe:	6862      	ldr	r2, [r4, #4]
     dc0:	7c61      	ldrb	r1, [r4, #17]
     dc2:	431a      	orrs	r2, r3
     dc4:	68e3      	ldr	r3, [r4, #12]
     dc6:	431a      	orrs	r2, r3
     dc8:	7c23      	ldrb	r3, [r4, #16]
     dca:	2900      	cmp	r1, #0
     dcc:	d103      	bne.n	dd6 <spi_init+0x156>
     dce:	491d      	ldr	r1, [pc, #116]	; (e44 <spi_init+0x1c4>)
     dd0:	7889      	ldrb	r1, [r1, #2]
     dd2:	0789      	lsls	r1, r1, #30
     dd4:	d501      	bpl.n	dda <spi_init+0x15a>
     dd6:	2180      	movs	r1, #128	; 0x80
     dd8:	430a      	orrs	r2, r1
     dda:	7ca1      	ldrb	r1, [r4, #18]
     ddc:	2900      	cmp	r1, #0
     dde:	d002      	beq.n	de6 <spi_init+0x166>
     de0:	2180      	movs	r1, #128	; 0x80
     de2:	0289      	lsls	r1, r1, #10
     de4:	430b      	orrs	r3, r1
     de6:	7ce1      	ldrb	r1, [r4, #19]
     de8:	2900      	cmp	r1, #0
     dea:	d002      	beq.n	df2 <spi_init+0x172>
     dec:	2180      	movs	r1, #128	; 0x80
     dee:	0089      	lsls	r1, r1, #2
     df0:	430b      	orrs	r3, r1
     df2:	7d21      	ldrb	r1, [r4, #20]
     df4:	2900      	cmp	r1, #0
     df6:	d002      	beq.n	dfe <spi_init+0x17e>
     df8:	2180      	movs	r1, #128	; 0x80
     dfa:	0189      	lsls	r1, r1, #6
     dfc:	430b      	orrs	r3, r1
     dfe:	6839      	ldr	r1, [r7, #0]
     e00:	430a      	orrs	r2, r1
     e02:	603a      	str	r2, [r7, #0]
     e04:	687a      	ldr	r2, [r7, #4]
     e06:	4313      	orrs	r3, r2
     e08:	607b      	str	r3, [r7, #4]
     e0a:	2300      	movs	r3, #0
     e0c:	0018      	movs	r0, r3
     e0e:	b009      	add	sp, #36	; 0x24
     e10:	bdf0      	pop	{r4, r5, r6, r7, pc}
     e12:	46c0      	nop			; (mov r8, r8)
     e14:	00000c0d 	.word	0x00000c0d
     e18:	40000400 	.word	0x40000400
     e1c:	00001bd5 	.word	0x00001bd5
     e20:	00001b4d 	.word	0x00001b4d
     e24:	00000a6d 	.word	0x00000a6d
     e28:	00001115 	.word	0x00001115
     e2c:	00000f65 	.word	0x00000f65
     e30:	200000e0 	.word	0x200000e0
     e34:	00000ab1 	.word	0x00000ab1
     e38:	00001ca9 	.word	0x00001ca9
     e3c:	00001bf1 	.word	0x00001bf1
     e40:	000009ad 	.word	0x000009ad
     e44:	41002000 	.word	0x41002000

00000e48 <spi_read_buffer_wait>:
     e48:	b5f0      	push	{r4, r5, r6, r7, lr}
     e4a:	b085      	sub	sp, #20
     e4c:	9301      	str	r3, [sp, #4]
     e4e:	0003      	movs	r3, r0
     e50:	0004      	movs	r4, r0
     e52:	2005      	movs	r0, #5
     e54:	9100      	str	r1, [sp, #0]
     e56:	3338      	adds	r3, #56	; 0x38
     e58:	781b      	ldrb	r3, [r3, #0]
     e5a:	0016      	movs	r6, r2
     e5c:	4283      	cmp	r3, r0
     e5e:	d033      	beq.n	ec8 <spi_read_buffer_wait+0x80>
     e60:	3012      	adds	r0, #18
     e62:	2a00      	cmp	r2, #0
     e64:	d030      	beq.n	ec8 <spi_read_buffer_wait+0x80>
     e66:	79e3      	ldrb	r3, [r4, #7]
     e68:	3005      	adds	r0, #5
     e6a:	2b00      	cmp	r3, #0
     e6c:	d02c      	beq.n	ec8 <spi_read_buffer_wait+0x80>
     e6e:	2500      	movs	r5, #0
     e70:	7963      	ldrb	r3, [r4, #5]
     e72:	2b01      	cmp	r3, #1
     e74:	d108      	bne.n	e88 <spi_read_buffer_wait+0x40>
     e76:	6822      	ldr	r2, [r4, #0]
     e78:	2101      	movs	r1, #1
     e7a:	7e13      	ldrb	r3, [r2, #24]
     e7c:	420b      	tst	r3, r1
     e7e:	d0fb      	beq.n	e78 <spi_read_buffer_wait+0x30>
     e80:	9901      	ldr	r1, [sp, #4]
     e82:	0020      	movs	r0, r4
     e84:	4b12      	ldr	r3, [pc, #72]	; (ed0 <spi_read_buffer_wait+0x88>)
     e86:	4798      	blx	r3
     e88:	6822      	ldr	r2, [r4, #0]
     e8a:	2104      	movs	r1, #4
     e8c:	7e13      	ldrb	r3, [r2, #24]
     e8e:	420b      	tst	r3, r1
     e90:	d0fb      	beq.n	e8a <spi_read_buffer_wait+0x42>
     e92:	ab02      	add	r3, sp, #8
     e94:	1d9f      	adds	r7, r3, #6
     e96:	2300      	movs	r3, #0
     e98:	0039      	movs	r1, r7
     e9a:	803b      	strh	r3, [r7, #0]
     e9c:	0020      	movs	r0, r4
     e9e:	4b0d      	ldr	r3, [pc, #52]	; (ed4 <spi_read_buffer_wait+0x8c>)
     ea0:	4798      	blx	r3
     ea2:	2800      	cmp	r0, #0
     ea4:	d110      	bne.n	ec8 <spi_read_buffer_wait+0x80>
     ea6:	9900      	ldr	r1, [sp, #0]
     ea8:	883a      	ldrh	r2, [r7, #0]
     eaa:	1c6b      	adds	r3, r5, #1
     eac:	554a      	strb	r2, [r1, r5]
     eae:	79a1      	ldrb	r1, [r4, #6]
     eb0:	b29b      	uxth	r3, r3
     eb2:	2901      	cmp	r1, #1
     eb4:	d10a      	bne.n	ecc <spi_read_buffer_wait+0x84>
     eb6:	9900      	ldr	r1, [sp, #0]
     eb8:	3502      	adds	r5, #2
     eba:	0a12      	lsrs	r2, r2, #8
     ebc:	b2ad      	uxth	r5, r5
     ebe:	54ca      	strb	r2, [r1, r3]
     ec0:	3e01      	subs	r6, #1
     ec2:	b2b6      	uxth	r6, r6
     ec4:	2e00      	cmp	r6, #0
     ec6:	d1d3      	bne.n	e70 <spi_read_buffer_wait+0x28>
     ec8:	b005      	add	sp, #20
     eca:	bdf0      	pop	{r4, r5, r6, r7, pc}
     ecc:	001d      	movs	r5, r3
     ece:	e7f7      	b.n	ec0 <spi_read_buffer_wait+0x78>
     ed0:	00000c3d 	.word	0x00000c3d
     ed4:	00000c51 	.word	0x00000c51

00000ed8 <spi_write_buffer_wait>:
     ed8:	0003      	movs	r3, r0
     eda:	b5f7      	push	{r0, r1, r2, r4, r5, r6, r7, lr}
     edc:	0004      	movs	r4, r0
     ede:	2005      	movs	r0, #5
     ee0:	3338      	adds	r3, #56	; 0x38
     ee2:	781b      	ldrb	r3, [r3, #0]
     ee4:	000f      	movs	r7, r1
     ee6:	0015      	movs	r5, r2
     ee8:	4283      	cmp	r3, r0
     eea:	d003      	beq.n	ef4 <spi_write_buffer_wait+0x1c>
     eec:	3012      	adds	r0, #18
     eee:	2600      	movs	r6, #0
     ef0:	2a00      	cmp	r2, #0
     ef2:	d120      	bne.n	f36 <spi_write_buffer_wait+0x5e>
     ef4:	bdfe      	pop	{r1, r2, r3, r4, r5, r6, r7, pc}
     ef6:	2101      	movs	r1, #1
     ef8:	7e1a      	ldrb	r2, [r3, #24]
     efa:	420a      	tst	r2, r1
     efc:	d0fb      	beq.n	ef6 <spi_write_buffer_wait+0x1e>
     efe:	79a2      	ldrb	r2, [r4, #6]
     f00:	1873      	adds	r3, r6, r1
     f02:	b29b      	uxth	r3, r3
     f04:	5db9      	ldrb	r1, [r7, r6]
     f06:	2a01      	cmp	r2, #1
     f08:	d017      	beq.n	f3a <spi_write_buffer_wait+0x62>
     f0a:	001e      	movs	r6, r3
     f0c:	b289      	uxth	r1, r1
     f0e:	4b13      	ldr	r3, [pc, #76]	; (f5c <spi_write_buffer_wait+0x84>)
     f10:	0020      	movs	r0, r4
     f12:	4798      	blx	r3
     f14:	79e3      	ldrb	r3, [r4, #7]
     f16:	2b00      	cmp	r3, #0
     f18:	d009      	beq.n	f2e <spi_write_buffer_wait+0x56>
     f1a:	6822      	ldr	r2, [r4, #0]
     f1c:	2104      	movs	r1, #4
     f1e:	7e13      	ldrb	r3, [r2, #24]
     f20:	420b      	tst	r3, r1
     f22:	d0fb      	beq.n	f1c <spi_write_buffer_wait+0x44>
     f24:	466b      	mov	r3, sp
     f26:	0020      	movs	r0, r4
     f28:	1d99      	adds	r1, r3, #6
     f2a:	4b0d      	ldr	r3, [pc, #52]	; (f60 <spi_write_buffer_wait+0x88>)
     f2c:	4798      	blx	r3
     f2e:	3d01      	subs	r5, #1
     f30:	b2ad      	uxth	r5, r5
     f32:	2d00      	cmp	r5, #0
     f34:	d007      	beq.n	f46 <spi_write_buffer_wait+0x6e>
     f36:	6823      	ldr	r3, [r4, #0]
     f38:	e7dd      	b.n	ef6 <spi_write_buffer_wait+0x1e>
     f3a:	5cfb      	ldrb	r3, [r7, r3]
     f3c:	3602      	adds	r6, #2
     f3e:	021b      	lsls	r3, r3, #8
     f40:	b2b6      	uxth	r6, r6
     f42:	4319      	orrs	r1, r3
     f44:	e7e3      	b.n	f0e <spi_write_buffer_wait+0x36>
     f46:	7963      	ldrb	r3, [r4, #5]
     f48:	0028      	movs	r0, r5
     f4a:	2b01      	cmp	r3, #1
     f4c:	d1d2      	bne.n	ef4 <spi_write_buffer_wait+0x1c>
     f4e:	6821      	ldr	r1, [r4, #0]
     f50:	3301      	adds	r3, #1
     f52:	7e0a      	ldrb	r2, [r1, #24]
     f54:	421a      	tst	r2, r3
     f56:	d0fc      	beq.n	f52 <spi_write_buffer_wait+0x7a>
     f58:	2000      	movs	r0, #0
     f5a:	e7cb      	b.n	ef4 <spi_write_buffer_wait+0x1c>
     f5c:	00000c3d 	.word	0x00000c3d
     f60:	00000c51 	.word	0x00000c51

00000f64 <_spi_interrupt_handler>:
     f64:	b5f8      	push	{r3, r4, r5, r6, r7, lr}
     f66:	4b68      	ldr	r3, [pc, #416]	; (1108 <_spi_interrupt_handler+0x1a4>)
     f68:	0080      	lsls	r0, r0, #2
     f6a:	58c4      	ldr	r4, [r0, r3]
     f6c:	0023      	movs	r3, r4
     f6e:	0022      	movs	r2, r4
     f70:	3337      	adds	r3, #55	; 0x37
     f72:	3236      	adds	r2, #54	; 0x36
     f74:	6825      	ldr	r5, [r4, #0]
     f76:	781b      	ldrb	r3, [r3, #0]
     f78:	7816      	ldrb	r6, [r2, #0]
     f7a:	401e      	ands	r6, r3
     f7c:	7e2b      	ldrb	r3, [r5, #24]
     f7e:	7daf      	ldrb	r7, [r5, #22]
     f80:	401f      	ands	r7, r3
     f82:	07fb      	lsls	r3, r7, #31
     f84:	d534      	bpl.n	ff0 <_spi_interrupt_handler+0x8c>
     f86:	7962      	ldrb	r2, [r4, #5]
     f88:	2a01      	cmp	r2, #1
     f8a:	d131      	bne.n	ff0 <_spi_interrupt_handler+0x8c>
     f8c:	7a63      	ldrb	r3, [r4, #9]
     f8e:	2b00      	cmp	r3, #0
     f90:	d10d      	bne.n	fae <_spi_interrupt_handler+0x4a>
     f92:	4b5e      	ldr	r3, [pc, #376]	; (110c <_spi_interrupt_handler+0x1a8>)
     f94:	881b      	ldrh	r3, [r3, #0]
     f96:	62ab      	str	r3, [r5, #40]	; 0x28
     f98:	8e63      	ldrh	r3, [r4, #50]	; 0x32
     f9a:	3b01      	subs	r3, #1
     f9c:	b29b      	uxth	r3, r3
     f9e:	8663      	strh	r3, [r4, #50]	; 0x32
     fa0:	8e63      	ldrh	r3, [r4, #50]	; 0x32
     fa2:	2b00      	cmp	r3, #0
     fa4:	d100      	bne.n	fa8 <_spi_interrupt_handler+0x44>
     fa6:	752a      	strb	r2, [r5, #20]
     fa8:	7963      	ldrb	r3, [r4, #5]
     faa:	2b01      	cmp	r3, #1
     fac:	d120      	bne.n	ff0 <_spi_interrupt_handler+0x8c>
     fae:	7a63      	ldrb	r3, [r4, #9]
     fb0:	2b00      	cmp	r3, #0
     fb2:	d01d      	beq.n	ff0 <_spi_interrupt_handler+0x8c>
     fb4:	6ae1      	ldr	r1, [r4, #44]	; 0x2c
     fb6:	6822      	ldr	r2, [r4, #0]
     fb8:	1c48      	adds	r0, r1, #1
     fba:	780b      	ldrb	r3, [r1, #0]
     fbc:	62e0      	str	r0, [r4, #44]	; 0x2c
     fbe:	79a0      	ldrb	r0, [r4, #6]
     fc0:	b2db      	uxtb	r3, r3
     fc2:	2801      	cmp	r0, #1
     fc4:	d051      	beq.n	106a <_spi_interrupt_handler+0x106>
     fc6:	b29b      	uxth	r3, r3
     fc8:	05db      	lsls	r3, r3, #23
     fca:	0ddb      	lsrs	r3, r3, #23
     fcc:	6293      	str	r3, [r2, #40]	; 0x28
     fce:	8ea3      	ldrh	r3, [r4, #52]	; 0x34
     fd0:	3b01      	subs	r3, #1
     fd2:	b29b      	uxth	r3, r3
     fd4:	86a3      	strh	r3, [r4, #52]	; 0x34
     fd6:	8ea3      	ldrh	r3, [r4, #52]	; 0x34
     fd8:	2b00      	cmp	r3, #0
     fda:	d109      	bne.n	ff0 <_spi_interrupt_handler+0x8c>
     fdc:	3301      	adds	r3, #1
     fde:	752b      	strb	r3, [r5, #20]
     fe0:	7a63      	ldrb	r3, [r4, #9]
     fe2:	2b01      	cmp	r3, #1
     fe4:	d104      	bne.n	ff0 <_spi_interrupt_handler+0x8c>
     fe6:	79e3      	ldrb	r3, [r4, #7]
     fe8:	2b00      	cmp	r3, #0
     fea:	d101      	bne.n	ff0 <_spi_interrupt_handler+0x8c>
     fec:	3302      	adds	r3, #2
     fee:	75ab      	strb	r3, [r5, #22]
     ff0:	2104      	movs	r1, #4
     ff2:	420f      	tst	r7, r1
     ff4:	d015      	beq.n	1022 <_spi_interrupt_handler+0xbe>
     ff6:	8b6b      	ldrh	r3, [r5, #26]
     ff8:	420b      	tst	r3, r1
     ffa:	d03c      	beq.n	1076 <_spi_interrupt_handler+0x112>
     ffc:	7a63      	ldrb	r3, [r4, #9]
     ffe:	2b01      	cmp	r3, #1
    1000:	d00c      	beq.n	101c <_spi_interrupt_handler+0xb8>
    1002:	0023      	movs	r3, r4
    1004:	221e      	movs	r2, #30
    1006:	3338      	adds	r3, #56	; 0x38
    1008:	701a      	strb	r2, [r3, #0]
    100a:	2303      	movs	r3, #3
    100c:	7263      	strb	r3, [r4, #9]
    100e:	3302      	adds	r3, #2
    1010:	752b      	strb	r3, [r5, #20]
    1012:	0733      	lsls	r3, r6, #28
    1014:	d502      	bpl.n	101c <_spi_interrupt_handler+0xb8>
    1016:	0020      	movs	r0, r4
    1018:	69a3      	ldr	r3, [r4, #24]
    101a:	4798      	blx	r3
    101c:	6aab      	ldr	r3, [r5, #40]	; 0x28
    101e:	2304      	movs	r3, #4
    1020:	836b      	strh	r3, [r5, #26]
    1022:	2102      	movs	r1, #2
    1024:	420f      	tst	r7, r1
    1026:	d014      	beq.n	1052 <_spi_interrupt_handler+0xee>
    1028:	7963      	ldrb	r3, [r4, #5]
    102a:	2b01      	cmp	r3, #1
    102c:	d111      	bne.n	1052 <_spi_interrupt_handler+0xee>
    102e:	7a63      	ldrb	r3, [r4, #9]
    1030:	b2db      	uxtb	r3, r3
    1032:	2b01      	cmp	r3, #1
    1034:	d10d      	bne.n	1052 <_spi_interrupt_handler+0xee>
    1036:	79e2      	ldrb	r2, [r4, #7]
    1038:	2a00      	cmp	r2, #0
    103a:	d10a      	bne.n	1052 <_spi_interrupt_handler+0xee>
    103c:	7529      	strb	r1, [r5, #20]
    103e:	3101      	adds	r1, #1
    1040:	7261      	strb	r1, [r4, #9]
    1042:	0021      	movs	r1, r4
    1044:	3138      	adds	r1, #56	; 0x38
    1046:	700a      	strb	r2, [r1, #0]
    1048:	421e      	tst	r6, r3
    104a:	d002      	beq.n	1052 <_spi_interrupt_handler+0xee>
    104c:	0020      	movs	r0, r4
    104e:	68e3      	ldr	r3, [r4, #12]
    1050:	4798      	blx	r3
    1052:	b27f      	sxtb	r7, r7
    1054:	2f00      	cmp	r7, #0
    1056:	da07      	bge.n	1068 <_spi_interrupt_handler+0x104>
    1058:	2380      	movs	r3, #128	; 0x80
    105a:	752b      	strb	r3, [r5, #20]
    105c:	762b      	strb	r3, [r5, #24]
    105e:	0673      	lsls	r3, r6, #25
    1060:	d502      	bpl.n	1068 <_spi_interrupt_handler+0x104>
    1062:	6a63      	ldr	r3, [r4, #36]	; 0x24
    1064:	0020      	movs	r0, r4
    1066:	4798      	blx	r3
    1068:	bdf8      	pop	{r3, r4, r5, r6, r7, pc}
    106a:	7848      	ldrb	r0, [r1, #1]
    106c:	3102      	adds	r1, #2
    106e:	0200      	lsls	r0, r0, #8
    1070:	4303      	orrs	r3, r0
    1072:	62e1      	str	r1, [r4, #44]	; 0x2c
    1074:	e7a8      	b.n	fc8 <_spi_interrupt_handler+0x64>
    1076:	7a62      	ldrb	r2, [r4, #9]
    1078:	6823      	ldr	r3, [r4, #0]
    107a:	b2d2      	uxtb	r2, r2
    107c:	6a9b      	ldr	r3, [r3, #40]	; 0x28
    107e:	2a01      	cmp	r2, #1
    1080:	d113      	bne.n	10aa <_spi_interrupt_handler+0x146>
    1082:	8e63      	ldrh	r3, [r4, #50]	; 0x32
    1084:	3b01      	subs	r3, #1
    1086:	b29b      	uxth	r3, r3
    1088:	8663      	strh	r3, [r4, #50]	; 0x32
    108a:	8e63      	ldrh	r3, [r4, #50]	; 0x32
    108c:	b29b      	uxth	r3, r3
    108e:	2b00      	cmp	r3, #0
    1090:	d1c7      	bne.n	1022 <_spi_interrupt_handler+0xbe>
    1092:	7529      	strb	r1, [r5, #20]
    1094:	0021      	movs	r1, r4
    1096:	3138      	adds	r1, #56	; 0x38
    1098:	700b      	strb	r3, [r1, #0]
    109a:	3303      	adds	r3, #3
    109c:	7263      	strb	r3, [r4, #9]
    109e:	4216      	tst	r6, r2
    10a0:	d0bf      	beq.n	1022 <_spi_interrupt_handler+0xbe>
    10a2:	0020      	movs	r0, r4
    10a4:	68e3      	ldr	r3, [r4, #12]
    10a6:	4798      	blx	r3
    10a8:	e7bb      	b.n	1022 <_spi_interrupt_handler+0xbe>
    10aa:	05db      	lsls	r3, r3, #23
    10ac:	6aa1      	ldr	r1, [r4, #40]	; 0x28
    10ae:	0ddb      	lsrs	r3, r3, #23
    10b0:	b2da      	uxtb	r2, r3
    10b2:	700a      	strb	r2, [r1, #0]
    10b4:	6aa2      	ldr	r2, [r4, #40]	; 0x28
    10b6:	1c51      	adds	r1, r2, #1
    10b8:	62a1      	str	r1, [r4, #40]	; 0x28
    10ba:	79a1      	ldrb	r1, [r4, #6]
    10bc:	2901      	cmp	r1, #1
    10be:	d104      	bne.n	10ca <_spi_interrupt_handler+0x166>
    10c0:	0a1b      	lsrs	r3, r3, #8
    10c2:	7053      	strb	r3, [r2, #1]
    10c4:	6aa3      	ldr	r3, [r4, #40]	; 0x28
    10c6:	3301      	adds	r3, #1
    10c8:	62a3      	str	r3, [r4, #40]	; 0x28
    10ca:	8e23      	ldrh	r3, [r4, #48]	; 0x30
    10cc:	3b01      	subs	r3, #1
    10ce:	b29b      	uxth	r3, r3
    10d0:	8623      	strh	r3, [r4, #48]	; 0x30
    10d2:	8e23      	ldrh	r3, [r4, #48]	; 0x30
    10d4:	b29b      	uxth	r3, r3
    10d6:	2b00      	cmp	r3, #0
    10d8:	d1a3      	bne.n	1022 <_spi_interrupt_handler+0xbe>
    10da:	0022      	movs	r2, r4
    10dc:	3238      	adds	r2, #56	; 0x38
    10de:	7013      	strb	r3, [r2, #0]
    10e0:	3304      	adds	r3, #4
    10e2:	752b      	strb	r3, [r5, #20]
    10e4:	7a62      	ldrb	r2, [r4, #9]
    10e6:	2a02      	cmp	r2, #2
    10e8:	d104      	bne.n	10f4 <_spi_interrupt_handler+0x190>
    10ea:	421e      	tst	r6, r3
    10ec:	d099      	beq.n	1022 <_spi_interrupt_handler+0xbe>
    10ee:	0020      	movs	r0, r4
    10f0:	6963      	ldr	r3, [r4, #20]
    10f2:	e7d8      	b.n	10a6 <_spi_interrupt_handler+0x142>
    10f4:	7a63      	ldrb	r3, [r4, #9]
    10f6:	2b00      	cmp	r3, #0
    10f8:	d000      	beq.n	10fc <_spi_interrupt_handler+0x198>
    10fa:	e792      	b.n	1022 <_spi_interrupt_handler+0xbe>
    10fc:	07b3      	lsls	r3, r6, #30
    10fe:	d400      	bmi.n	1102 <_spi_interrupt_handler+0x19e>
    1100:	e78f      	b.n	1022 <_spi_interrupt_handler+0xbe>
    1102:	0020      	movs	r0, r4
    1104:	6923      	ldr	r3, [r4, #16]
    1106:	e7ce      	b.n	10a6 <_spi_interrupt_handler+0x142>
    1108:	200000e0 	.word	0x200000e0
    110c:	200000dc 	.word	0x200000dc

00001110 <_sercom_default_handler>:
    1110:	4770      	bx	lr
	...

00001114 <_sercom_set_handler>:
    1114:	b5f0      	push	{r4, r5, r6, r7, lr}
    1116:	4c09      	ldr	r4, [pc, #36]	; (113c <_sercom_set_handler+0x28>)
    1118:	4a09      	ldr	r2, [pc, #36]	; (1140 <_sercom_set_handler+0x2c>)
    111a:	7823      	ldrb	r3, [r4, #0]
    111c:	2b00      	cmp	r3, #0
    111e:	d109      	bne.n	1134 <_sercom_set_handler+0x20>
    1120:	001e      	movs	r6, r3
    1122:	4f08      	ldr	r7, [pc, #32]	; (1144 <_sercom_set_handler+0x30>)
    1124:	4d08      	ldr	r5, [pc, #32]	; (1148 <_sercom_set_handler+0x34>)
    1126:	50d7      	str	r7, [r2, r3]
    1128:	50ee      	str	r6, [r5, r3]
    112a:	3304      	adds	r3, #4
    112c:	2b18      	cmp	r3, #24
    112e:	d1fa      	bne.n	1126 <_sercom_set_handler+0x12>
    1130:	3b17      	subs	r3, #23
    1132:	7023      	strb	r3, [r4, #0]
    1134:	0080      	lsls	r0, r0, #2
    1136:	5011      	str	r1, [r2, r0]
    1138:	bdf0      	pop	{r4, r5, r6, r7, pc}
    113a:	46c0      	nop			; (mov r8, r8)
    113c:	20000094 	.word	0x20000094
    1140:	20000098 	.word	0x20000098
    1144:	00001111 	.word	0x00001111
    1148:	200000e0 	.word	0x200000e0

0000114c <_sercom_get_interrupt_vector>:
    114c:	b507      	push	{r0, r1, r2, lr}
    114e:	2309      	movs	r3, #9
    1150:	466a      	mov	r2, sp
    1152:	7013      	strb	r3, [r2, #0]
    1154:	3301      	adds	r3, #1
    1156:	7053      	strb	r3, [r2, #1]
    1158:	3301      	adds	r3, #1
    115a:	7093      	strb	r3, [r2, #2]
    115c:	3301      	adds	r3, #1
    115e:	70d3      	strb	r3, [r2, #3]
    1160:	3301      	adds	r3, #1
    1162:	7113      	strb	r3, [r2, #4]
    1164:	3301      	adds	r3, #1
    1166:	7153      	strb	r3, [r2, #5]
    1168:	4b02      	ldr	r3, [pc, #8]	; (1174 <_sercom_get_interrupt_vector+0x28>)
    116a:	4798      	blx	r3
    116c:	466b      	mov	r3, sp
    116e:	5618      	ldrsb	r0, [r3, r0]
    1170:	bd0e      	pop	{r1, r2, r3, pc}
    1172:	46c0      	nop			; (mov r8, r8)
    1174:	00000c0d 	.word	0x00000c0d

00001178 <SERCOM0_Handler>:
    1178:	b510      	push	{r4, lr}
    117a:	4b02      	ldr	r3, [pc, #8]	; (1184 <SERCOM0_Handler+0xc>)
    117c:	2000      	movs	r0, #0
    117e:	681b      	ldr	r3, [r3, #0]
    1180:	4798      	blx	r3
    1182:	bd10      	pop	{r4, pc}
    1184:	20000098 	.word	0x20000098

00001188 <SERCOM1_Handler>:
    1188:	b510      	push	{r4, lr}
    118a:	4b02      	ldr	r3, [pc, #8]	; (1194 <SERCOM1_Handler+0xc>)
    118c:	2001      	movs	r0, #1
    118e:	685b      	ldr	r3, [r3, #4]
    1190:	4798      	blx	r3
    1192:	bd10      	pop	{r4, pc}
    1194:	20000098 	.word	0x20000098

00001198 <SERCOM2_Handler>:
    1198:	b510      	push	{r4, lr}
    119a:	4b02      	ldr	r3, [pc, #8]	; (11a4 <SERCOM2_Handler+0xc>)
    119c:	2002      	movs	r0, #2
    119e:	689b      	ldr	r3, [r3, #8]
    11a0:	4798      	blx	r3
    11a2:	bd10      	pop	{r4, pc}
    11a4:	20000098 	.word	0x20000098

000011a8 <SERCOM3_Handler>:
    11a8:	b510      	push	{r4, lr}
    11aa:	4b02      	ldr	r3, [pc, #8]	; (11b4 <SERCOM3_Handler+0xc>)
    11ac:	2003      	movs	r0, #3
    11ae:	68db      	ldr	r3, [r3, #12]
    11b0:	4798      	blx	r3
    11b2:	bd10      	pop	{r4, pc}
    11b4:	20000098 	.word	0x20000098

000011b8 <SERCOM4_Handler>:
    11b8:	b510      	push	{r4, lr}
    11ba:	4b02      	ldr	r3, [pc, #8]	; (11c4 <SERCOM4_Handler+0xc>)
    11bc:	2004      	movs	r0, #4
    11be:	691b      	ldr	r3, [r3, #16]
    11c0:	4798      	blx	r3
    11c2:	bd10      	pop	{r4, pc}
    11c4:	20000098 	.word	0x20000098

000011c8 <SERCOM5_Handler>:
    11c8:	b510      	push	{r4, lr}
    11ca:	4b02      	ldr	r3, [pc, #8]	; (11d4 <SERCOM5_Handler+0xc>)
    11cc:	2005      	movs	r0, #5
    11ce:	695b      	ldr	r3, [r3, #20]
    11d0:	4798      	blx	r3
    11d2:	bd10      	pop	{r4, pc}
    11d4:	20000098 	.word	0x20000098

000011d8 <port_pin_set_config>:
    11d8:	b507      	push	{r0, r1, r2, lr}
    11da:	2280      	movs	r2, #128	; 0x80
    11dc:	ab01      	add	r3, sp, #4
    11de:	701a      	strb	r2, [r3, #0]
    11e0:	780a      	ldrb	r2, [r1, #0]
    11e2:	705a      	strb	r2, [r3, #1]
    11e4:	784a      	ldrb	r2, [r1, #1]
    11e6:	709a      	strb	r2, [r3, #2]
    11e8:	788a      	ldrb	r2, [r1, #2]
    11ea:	0019      	movs	r1, r3
    11ec:	70da      	strb	r2, [r3, #3]
    11ee:	4b01      	ldr	r3, [pc, #4]	; (11f4 <port_pin_set_config+0x1c>)
    11f0:	4798      	blx	r3
    11f2:	bd07      	pop	{r0, r1, r2, pc}
    11f4:	00001ca9 	.word	0x00001ca9

000011f8 <system_board_init>:
    11f8:	4770      	bx	lr
	...

000011fc <cpu_irq_enter_critical>:
    11fc:	4b09      	ldr	r3, [pc, #36]	; (1224 <cpu_irq_enter_critical+0x28>)
    11fe:	6819      	ldr	r1, [r3, #0]
    1200:	2900      	cmp	r1, #0
    1202:	d10b      	bne.n	121c <cpu_irq_enter_critical+0x20>
    1204:	f3ef 8010 	mrs	r0, PRIMASK
    1208:	4a07      	ldr	r2, [pc, #28]	; (1228 <cpu_irq_enter_critical+0x2c>)
    120a:	2800      	cmp	r0, #0
    120c:	d105      	bne.n	121a <cpu_irq_enter_critical+0x1e>
    120e:	b672      	cpsid	i
    1210:	f3bf 8f5f 	dmb	sy
    1214:	4905      	ldr	r1, [pc, #20]	; (122c <cpu_irq_enter_critical+0x30>)
    1216:	7008      	strb	r0, [r1, #0]
    1218:	2101      	movs	r1, #1
    121a:	7011      	strb	r1, [r2, #0]
    121c:	681a      	ldr	r2, [r3, #0]
    121e:	3201      	adds	r2, #1
    1220:	601a      	str	r2, [r3, #0]
    1222:	4770      	bx	lr
    1224:	200000b0 	.word	0x200000b0
    1228:	200000b4 	.word	0x200000b4
    122c:	20000008 	.word	0x20000008

00001230 <cpu_irq_leave_critical>:
    1230:	4b08      	ldr	r3, [pc, #32]	; (1254 <cpu_irq_leave_critical+0x24>)
    1232:	681a      	ldr	r2, [r3, #0]
    1234:	3a01      	subs	r2, #1
    1236:	601a      	str	r2, [r3, #0]
    1238:	681b      	ldr	r3, [r3, #0]
    123a:	2b00      	cmp	r3, #0
    123c:	d109      	bne.n	1252 <cpu_irq_leave_critical+0x22>
    123e:	4b06      	ldr	r3, [pc, #24]	; (1258 <cpu_irq_leave_critical+0x28>)
    1240:	781b      	ldrb	r3, [r3, #0]
    1242:	2b00      	cmp	r3, #0
    1244:	d005      	beq.n	1252 <cpu_irq_leave_critical+0x22>
    1246:	2201      	movs	r2, #1
    1248:	4b04      	ldr	r3, [pc, #16]	; (125c <cpu_irq_leave_critical+0x2c>)
    124a:	701a      	strb	r2, [r3, #0]
    124c:	f3bf 8f5f 	dmb	sy
    1250:	b662      	cpsie	i
    1252:	4770      	bx	lr
    1254:	200000b0 	.word	0x200000b0
    1258:	200000b4 	.word	0x200000b4
    125c:	20000008 	.word	0x20000008

00001260 <_usart_wait_for_sync>:
    1260:	6802      	ldr	r2, [r0, #0]
    1262:	69d3      	ldr	r3, [r2, #28]
    1264:	2b00      	cmp	r3, #0
    1266:	d1fc      	bne.n	1262 <_usart_wait_for_sync+0x2>
    1268:	4770      	bx	lr
	...

0000126c <usart_init>:
    126c:	b5f0      	push	{r4, r5, r6, r7, lr}
    126e:	0007      	movs	r7, r0
    1270:	b093      	sub	sp, #76	; 0x4c
    1272:	4ba0      	ldr	r3, [pc, #640]	; (14f4 <usart_init+0x288>)
    1274:	6039      	str	r1, [r7, #0]
    1276:	0008      	movs	r0, r1
    1278:	0016      	movs	r6, r2
    127a:	9104      	str	r1, [sp, #16]
    127c:	4798      	blx	r3
    127e:	2201      	movs	r2, #1
    1280:	9b04      	ldr	r3, [sp, #16]
    1282:	0005      	movs	r5, r0
    1284:	681b      	ldr	r3, [r3, #0]
    1286:	2005      	movs	r0, #5
    1288:	4213      	tst	r3, r2
    128a:	d000      	beq.n	128e <usart_init+0x22>
    128c:	e10f      	b.n	14ae <usart_init+0x242>
    128e:	9b04      	ldr	r3, [sp, #16]
    1290:	3017      	adds	r0, #23
    1292:	681c      	ldr	r4, [r3, #0]
    1294:	2302      	movs	r3, #2
    1296:	401c      	ands	r4, r3
    1298:	d000      	beq.n	129c <usart_init+0x30>
    129a:	e108      	b.n	14ae <usart_init+0x242>
    129c:	18eb      	adds	r3, r5, r3
    129e:	381b      	subs	r0, #27
    12a0:	4098      	lsls	r0, r3
    12a2:	0003      	movs	r3, r0
    12a4:	4a94      	ldr	r2, [pc, #592]	; (14f8 <usart_init+0x28c>)
    12a6:	3514      	adds	r5, #20
    12a8:	6a11      	ldr	r1, [r2, #32]
    12aa:	b2ed      	uxtb	r5, r5
    12ac:	430b      	orrs	r3, r1
    12ae:	6213      	str	r3, [r2, #32]
    12b0:	0033      	movs	r3, r6
    12b2:	332d      	adds	r3, #45	; 0x2d
    12b4:	9302      	str	r3, [sp, #8]
    12b6:	781b      	ldrb	r3, [r3, #0]
    12b8:	a90c      	add	r1, sp, #48	; 0x30
    12ba:	700b      	strb	r3, [r1, #0]
    12bc:	0028      	movs	r0, r5
    12be:	4b8f      	ldr	r3, [pc, #572]	; (14fc <usart_init+0x290>)
    12c0:	4798      	blx	r3
    12c2:	0028      	movs	r0, r5
    12c4:	4b8e      	ldr	r3, [pc, #568]	; (1500 <usart_init+0x294>)
    12c6:	4798      	blx	r3
    12c8:	9b02      	ldr	r3, [sp, #8]
    12ca:	0021      	movs	r1, r4
    12cc:	7818      	ldrb	r0, [r3, #0]
    12ce:	4b8d      	ldr	r3, [pc, #564]	; (1504 <usart_init+0x298>)
    12d0:	4798      	blx	r3
    12d2:	7af3      	ldrb	r3, [r6, #11]
    12d4:	2508      	movs	r5, #8
    12d6:	717b      	strb	r3, [r7, #5]
    12d8:	1d73      	adds	r3, r6, #5
    12da:	7fdb      	ldrb	r3, [r3, #31]
    12dc:	71bb      	strb	r3, [r7, #6]
    12de:	1db3      	adds	r3, r6, #6
    12e0:	7fdb      	ldrb	r3, [r3, #31]
    12e2:	71fb      	strb	r3, [r7, #7]
    12e4:	7ef3      	ldrb	r3, [r6, #27]
    12e6:	723b      	strb	r3, [r7, #8]
    12e8:	7f33      	ldrb	r3, [r6, #28]
    12ea:	727b      	strb	r3, [r7, #9]
    12ec:	683b      	ldr	r3, [r7, #0]
    12ee:	9303      	str	r3, [sp, #12]
    12f0:	0018      	movs	r0, r3
    12f2:	4b80      	ldr	r3, [pc, #512]	; (14f4 <usart_init+0x288>)
    12f4:	4798      	blx	r3
    12f6:	ab0e      	add	r3, sp, #56	; 0x38
    12f8:	801c      	strh	r4, [r3, #0]
    12fa:	8a33      	ldrh	r3, [r6, #16]
    12fc:	3014      	adds	r0, #20
    12fe:	9302      	str	r3, [sp, #8]
    1300:	2380      	movs	r3, #128	; 0x80
    1302:	9a02      	ldr	r2, [sp, #8]
    1304:	01db      	lsls	r3, r3, #7
    1306:	429a      	cmp	r2, r3
    1308:	d014      	beq.n	1334 <usart_init+0xc8>
    130a:	d808      	bhi.n	131e <usart_init+0xb2>
    130c:	2380      	movs	r3, #128	; 0x80
    130e:	2510      	movs	r5, #16
    1310:	019b      	lsls	r3, r3, #6
    1312:	429a      	cmp	r2, r3
    1314:	d100      	bne.n	1318 <usart_init+0xac>
    1316:	e0cd      	b.n	14b4 <usart_init+0x248>
    1318:	2510      	movs	r5, #16
    131a:	2400      	movs	r4, #0
    131c:	e00a      	b.n	1334 <usart_init+0xc8>
    131e:	23c0      	movs	r3, #192	; 0xc0
    1320:	9a02      	ldr	r2, [sp, #8]
    1322:	01db      	lsls	r3, r3, #7
    1324:	429a      	cmp	r2, r3
    1326:	d100      	bne.n	132a <usart_init+0xbe>
    1328:	e0c3      	b.n	14b2 <usart_init+0x246>
    132a:	2380      	movs	r3, #128	; 0x80
    132c:	2503      	movs	r5, #3
    132e:	021b      	lsls	r3, r3, #8
    1330:	429a      	cmp	r2, r3
    1332:	d1f1      	bne.n	1318 <usart_init+0xac>
    1334:	6833      	ldr	r3, [r6, #0]
    1336:	9306      	str	r3, [sp, #24]
    1338:	68f3      	ldr	r3, [r6, #12]
    133a:	9307      	str	r3, [sp, #28]
    133c:	6973      	ldr	r3, [r6, #20]
    133e:	9308      	str	r3, [sp, #32]
    1340:	7e33      	ldrb	r3, [r6, #24]
    1342:	9309      	str	r3, [sp, #36]	; 0x24
    1344:	1df3      	adds	r3, r6, #7
    1346:	7fdb      	ldrb	r3, [r3, #31]
    1348:	930a      	str	r3, [sp, #40]	; 0x28
    134a:	6873      	ldr	r3, [r6, #4]
    134c:	9305      	str	r3, [sp, #20]
    134e:	0033      	movs	r3, r6
    1350:	9a05      	ldr	r2, [sp, #20]
    1352:	3308      	adds	r3, #8
    1354:	2a00      	cmp	r2, #0
    1356:	d100      	bne.n	135a <usart_init+0xee>
    1358:	e0ae      	b.n	14b8 <usart_init+0x24c>
    135a:	2280      	movs	r2, #128	; 0x80
    135c:	9905      	ldr	r1, [sp, #20]
    135e:	0552      	lsls	r2, r2, #21
    1360:	4291      	cmp	r1, r2
    1362:	d10e      	bne.n	1382 <usart_init+0x116>
    1364:	7fdb      	ldrb	r3, [r3, #31]
    1366:	2b00      	cmp	r3, #0
    1368:	d10b      	bne.n	1382 <usart_init+0x116>
    136a:	4b67      	ldr	r3, [pc, #412]	; (1508 <usart_init+0x29c>)
    136c:	b2c0      	uxtb	r0, r0
    136e:	6a34      	ldr	r4, [r6, #32]
    1370:	4798      	blx	r3
    1372:	aa0e      	add	r2, sp, #56	; 0x38
    1374:	0001      	movs	r1, r0
    1376:	4b65      	ldr	r3, [pc, #404]	; (150c <usart_init+0x2a0>)
    1378:	0020      	movs	r0, r4
    137a:	4798      	blx	r3
    137c:	2800      	cmp	r0, #0
    137e:	d000      	beq.n	1382 <usart_init+0x116>
    1380:	e095      	b.n	14ae <usart_init+0x242>
    1382:	7e73      	ldrb	r3, [r6, #25]
    1384:	2b00      	cmp	r3, #0
    1386:	d002      	beq.n	138e <usart_init+0x122>
    1388:	7eb3      	ldrb	r3, [r6, #26]
    138a:	9a03      	ldr	r2, [sp, #12]
    138c:	7393      	strb	r3, [r2, #14]
    138e:	4b60      	ldr	r3, [pc, #384]	; (1510 <usart_init+0x2a4>)
    1390:	0038      	movs	r0, r7
    1392:	4798      	blx	r3
    1394:	ab0a      	add	r3, sp, #40	; 0x28
    1396:	8a1b      	ldrh	r3, [r3, #16]
    1398:	9a03      	ldr	r2, [sp, #12]
    139a:	9c06      	ldr	r4, [sp, #24]
    139c:	8193      	strh	r3, [r2, #12]
    139e:	9b07      	ldr	r3, [sp, #28]
    13a0:	431c      	orrs	r4, r3
    13a2:	9b08      	ldr	r3, [sp, #32]
    13a4:	431c      	orrs	r4, r3
    13a6:	9b05      	ldr	r3, [sp, #20]
    13a8:	431c      	orrs	r4, r3
    13aa:	9b02      	ldr	r3, [sp, #8]
    13ac:	431c      	orrs	r4, r3
    13ae:	9b09      	ldr	r3, [sp, #36]	; 0x24
    13b0:	021b      	lsls	r3, r3, #8
    13b2:	431c      	orrs	r4, r3
    13b4:	9b0a      	ldr	r3, [sp, #40]	; 0x28
    13b6:	075b      	lsls	r3, r3, #29
    13b8:	431c      	orrs	r4, r3
    13ba:	0033      	movs	r3, r6
    13bc:	3308      	adds	r3, #8
    13be:	7fdb      	ldrb	r3, [r3, #31]
    13c0:	2b00      	cmp	r3, #0
    13c2:	d101      	bne.n	13c8 <usart_init+0x15c>
    13c4:	3304      	adds	r3, #4
    13c6:	431c      	orrs	r4, r3
    13c8:	7e75      	ldrb	r5, [r6, #25]
    13ca:	7f33      	ldrb	r3, [r6, #28]
    13cc:	02ad      	lsls	r5, r5, #10
    13ce:	025b      	lsls	r3, r3, #9
    13d0:	431d      	orrs	r5, r3
    13d2:	7f73      	ldrb	r3, [r6, #29]
    13d4:	7af2      	ldrb	r2, [r6, #11]
    13d6:	021b      	lsls	r3, r3, #8
    13d8:	431d      	orrs	r5, r3
    13da:	1d73      	adds	r3, r6, #5
    13dc:	7fdb      	ldrb	r3, [r3, #31]
    13de:	045b      	lsls	r3, r3, #17
    13e0:	431d      	orrs	r5, r3
    13e2:	1db3      	adds	r3, r6, #6
    13e4:	7fdb      	ldrb	r3, [r3, #31]
    13e6:	041b      	lsls	r3, r3, #16
    13e8:	432b      	orrs	r3, r5
    13ea:	7ab5      	ldrb	r5, [r6, #10]
    13ec:	4315      	orrs	r5, r2
    13ee:	431d      	orrs	r5, r3
    13f0:	8933      	ldrh	r3, [r6, #8]
    13f2:	2bff      	cmp	r3, #255	; 0xff
    13f4:	d100      	bne.n	13f8 <usart_init+0x18c>
    13f6:	e075      	b.n	14e4 <usart_init+0x278>
    13f8:	2280      	movs	r2, #128	; 0x80
    13fa:	0452      	lsls	r2, r2, #17
    13fc:	4314      	orrs	r4, r2
    13fe:	431d      	orrs	r5, r3
    1400:	0033      	movs	r3, r6
    1402:	332c      	adds	r3, #44	; 0x2c
    1404:	781b      	ldrb	r3, [r3, #0]
    1406:	2b00      	cmp	r3, #0
    1408:	d103      	bne.n	1412 <usart_init+0x1a6>
    140a:	4b42      	ldr	r3, [pc, #264]	; (1514 <usart_init+0x2a8>)
    140c:	789b      	ldrb	r3, [r3, #2]
    140e:	079b      	lsls	r3, r3, #30
    1410:	d501      	bpl.n	1416 <usart_init+0x1aa>
    1412:	2380      	movs	r3, #128	; 0x80
    1414:	431c      	orrs	r4, r3
    1416:	0038      	movs	r0, r7
    1418:	4b3d      	ldr	r3, [pc, #244]	; (1510 <usart_init+0x2a4>)
    141a:	4798      	blx	r3
    141c:	9b03      	ldr	r3, [sp, #12]
    141e:	0038      	movs	r0, r7
    1420:	605d      	str	r5, [r3, #4]
    1422:	4b3b      	ldr	r3, [pc, #236]	; (1510 <usart_init+0x2a4>)
    1424:	4798      	blx	r3
    1426:	9b03      	ldr	r3, [sp, #12]
    1428:	2500      	movs	r5, #0
    142a:	601c      	str	r4, [r3, #0]
    142c:	2380      	movs	r3, #128	; 0x80
    142e:	ac0d      	add	r4, sp, #52	; 0x34
    1430:	7023      	strb	r3, [r4, #0]
    1432:	6b33      	ldr	r3, [r6, #48]	; 0x30
    1434:	7065      	strb	r5, [r4, #1]
    1436:	930e      	str	r3, [sp, #56]	; 0x38
    1438:	6b73      	ldr	r3, [r6, #52]	; 0x34
    143a:	70e5      	strb	r5, [r4, #3]
    143c:	930f      	str	r3, [sp, #60]	; 0x3c
    143e:	6bb3      	ldr	r3, [r6, #56]	; 0x38
    1440:	70a5      	strb	r5, [r4, #2]
    1442:	9310      	str	r3, [sp, #64]	; 0x40
    1444:	6bf3      	ldr	r3, [r6, #60]	; 0x3c
    1446:	9302      	str	r3, [sp, #8]
    1448:	9311      	str	r3, [sp, #68]	; 0x44
    144a:	2010      	movs	r0, #16
    144c:	aa0a      	add	r2, sp, #40	; 0x28
    144e:	00ab      	lsls	r3, r5, #2
    1450:	1812      	adds	r2, r2, r0
    1452:	58d0      	ldr	r0, [r2, r3]
    1454:	b2e9      	uxtb	r1, r5
    1456:	2800      	cmp	r0, #0
    1458:	d102      	bne.n	1460 <usart_init+0x1f4>
    145a:	9804      	ldr	r0, [sp, #16]
    145c:	4b2e      	ldr	r3, [pc, #184]	; (1518 <usart_init+0x2ac>)
    145e:	4798      	blx	r3
    1460:	1c43      	adds	r3, r0, #1
    1462:	d005      	beq.n	1470 <usart_init+0x204>
    1464:	7020      	strb	r0, [r4, #0]
    1466:	0c00      	lsrs	r0, r0, #16
    1468:	b2c0      	uxtb	r0, r0
    146a:	0021      	movs	r1, r4
    146c:	4b2b      	ldr	r3, [pc, #172]	; (151c <usart_init+0x2b0>)
    146e:	4798      	blx	r3
    1470:	3501      	adds	r5, #1
    1472:	2d04      	cmp	r5, #4
    1474:	d1e9      	bne.n	144a <usart_init+0x1de>
    1476:	003b      	movs	r3, r7
    1478:	2400      	movs	r4, #0
    147a:	3330      	adds	r3, #48	; 0x30
    147c:	85fc      	strh	r4, [r7, #46]	; 0x2e
    147e:	60fc      	str	r4, [r7, #12]
    1480:	613c      	str	r4, [r7, #16]
    1482:	617c      	str	r4, [r7, #20]
    1484:	61bc      	str	r4, [r7, #24]
    1486:	61fc      	str	r4, [r7, #28]
    1488:	623c      	str	r4, [r7, #32]
    148a:	62bc      	str	r4, [r7, #40]	; 0x28
    148c:	627c      	str	r4, [r7, #36]	; 0x24
    148e:	85bc      	strh	r4, [r7, #44]	; 0x2c
    1490:	709c      	strb	r4, [r3, #2]
    1492:	701c      	strb	r4, [r3, #0]
    1494:	705c      	strb	r4, [r3, #1]
    1496:	70dc      	strb	r4, [r3, #3]
    1498:	6838      	ldr	r0, [r7, #0]
    149a:	4b16      	ldr	r3, [pc, #88]	; (14f4 <usart_init+0x288>)
    149c:	4798      	blx	r3
    149e:	0005      	movs	r5, r0
    14a0:	4b1f      	ldr	r3, [pc, #124]	; (1520 <usart_init+0x2b4>)
    14a2:	4920      	ldr	r1, [pc, #128]	; (1524 <usart_init+0x2b8>)
    14a4:	4798      	blx	r3
    14a6:	0020      	movs	r0, r4
    14a8:	4b1f      	ldr	r3, [pc, #124]	; (1528 <usart_init+0x2bc>)
    14aa:	00ad      	lsls	r5, r5, #2
    14ac:	50ef      	str	r7, [r5, r3]
    14ae:	b013      	add	sp, #76	; 0x4c
    14b0:	bdf0      	pop	{r4, r5, r6, r7, pc}
    14b2:	2508      	movs	r5, #8
    14b4:	2401      	movs	r4, #1
    14b6:	e73d      	b.n	1334 <usart_init+0xc8>
    14b8:	7fdb      	ldrb	r3, [r3, #31]
    14ba:	2b00      	cmp	r3, #0
    14bc:	d007      	beq.n	14ce <usart_init+0x262>
    14be:	0023      	movs	r3, r4
    14c0:	6ab1      	ldr	r1, [r6, #40]	; 0x28
    14c2:	6a30      	ldr	r0, [r6, #32]
    14c4:	9500      	str	r5, [sp, #0]
    14c6:	aa0e      	add	r2, sp, #56	; 0x38
    14c8:	4c18      	ldr	r4, [pc, #96]	; (152c <usart_init+0x2c0>)
    14ca:	47a0      	blx	r4
    14cc:	e756      	b.n	137c <usart_init+0x110>
    14ce:	6a33      	ldr	r3, [r6, #32]
    14d0:	b2c0      	uxtb	r0, r0
    14d2:	930b      	str	r3, [sp, #44]	; 0x2c
    14d4:	4b0c      	ldr	r3, [pc, #48]	; (1508 <usart_init+0x29c>)
    14d6:	4798      	blx	r3
    14d8:	9500      	str	r5, [sp, #0]
    14da:	0001      	movs	r1, r0
    14dc:	0023      	movs	r3, r4
    14de:	aa0e      	add	r2, sp, #56	; 0x38
    14e0:	980b      	ldr	r0, [sp, #44]	; 0x2c
    14e2:	e7f1      	b.n	14c8 <usart_init+0x25c>
    14e4:	7ef3      	ldrb	r3, [r6, #27]
    14e6:	2b00      	cmp	r3, #0
    14e8:	d100      	bne.n	14ec <usart_init+0x280>
    14ea:	e789      	b.n	1400 <usart_init+0x194>
    14ec:	2380      	movs	r3, #128	; 0x80
    14ee:	04db      	lsls	r3, r3, #19
    14f0:	431c      	orrs	r4, r3
    14f2:	e785      	b.n	1400 <usart_init+0x194>
    14f4:	00000c0d 	.word	0x00000c0d
    14f8:	40000400 	.word	0x40000400
    14fc:	00001bd5 	.word	0x00001bd5
    1500:	00001b4d 	.word	0x00001b4d
    1504:	00000a6d 	.word	0x00000a6d
    1508:	00001bf1 	.word	0x00001bf1
    150c:	000009ad 	.word	0x000009ad
    1510:	00001261 	.word	0x00001261
    1514:	41002000 	.word	0x41002000
    1518:	00000ab1 	.word	0x00000ab1
    151c:	00001ca9 	.word	0x00001ca9
    1520:	00001115 	.word	0x00001115
    1524:	0000164d 	.word	0x0000164d
    1528:	200000e0 	.word	0x200000e0
    152c:	000009d5 	.word	0x000009d5

00001530 <usart_write_wait>:
    1530:	b570      	push	{r4, r5, r6, lr}
    1532:	79c2      	ldrb	r2, [r0, #7]
    1534:	000d      	movs	r5, r1
    1536:	231c      	movs	r3, #28
    1538:	2a00      	cmp	r2, #0
    153a:	d00c      	beq.n	1556 <usart_write_wait+0x26>
    153c:	8dc2      	ldrh	r2, [r0, #46]	; 0x2e
    153e:	3b17      	subs	r3, #23
    1540:	2a00      	cmp	r2, #0
    1542:	d108      	bne.n	1556 <usart_write_wait+0x26>
    1544:	4b05      	ldr	r3, [pc, #20]	; (155c <usart_write_wait+0x2c>)
    1546:	6804      	ldr	r4, [r0, #0]
    1548:	4798      	blx	r3
    154a:	2302      	movs	r3, #2
    154c:	8525      	strh	r5, [r4, #40]	; 0x28
    154e:	7e22      	ldrb	r2, [r4, #24]
    1550:	421a      	tst	r2, r3
    1552:	d0fc      	beq.n	154e <usart_write_wait+0x1e>
    1554:	2300      	movs	r3, #0
    1556:	0018      	movs	r0, r3
    1558:	bd70      	pop	{r4, r5, r6, pc}
    155a:	46c0      	nop			; (mov r8, r8)
    155c:	00001261 	.word	0x00001261

00001560 <usart_read_wait>:
    1560:	b570      	push	{r4, r5, r6, lr}
    1562:	7982      	ldrb	r2, [r0, #6]
    1564:	000e      	movs	r6, r1
    1566:	231c      	movs	r3, #28
    1568:	2a00      	cmp	r2, #0
    156a:	d013      	beq.n	1594 <usart_read_wait+0x34>
    156c:	8d82      	ldrh	r2, [r0, #44]	; 0x2c
    156e:	3b17      	subs	r3, #23
    1570:	2a00      	cmp	r2, #0
    1572:	d10f      	bne.n	1594 <usart_read_wait+0x34>
    1574:	2504      	movs	r5, #4
    1576:	6804      	ldr	r4, [r0, #0]
    1578:	7e22      	ldrb	r2, [r4, #24]
    157a:	422a      	tst	r2, r5
    157c:	d00a      	beq.n	1594 <usart_read_wait+0x34>
    157e:	4b14      	ldr	r3, [pc, #80]	; (15d0 <usart_read_wait+0x70>)
    1580:	4798      	blx	r3
    1582:	8b63      	ldrh	r3, [r4, #26]
    1584:	b2db      	uxtb	r3, r3
    1586:	069a      	lsls	r2, r3, #26
    1588:	d01d      	beq.n	15c6 <usart_read_wait+0x66>
    158a:	2202      	movs	r2, #2
    158c:	4213      	tst	r3, r2
    158e:	d003      	beq.n	1598 <usart_read_wait+0x38>
    1590:	231a      	movs	r3, #26
    1592:	8362      	strh	r2, [r4, #26]
    1594:	0018      	movs	r0, r3
    1596:	bd70      	pop	{r4, r5, r6, pc}
    1598:	422b      	tst	r3, r5
    159a:	d002      	beq.n	15a2 <usart_read_wait+0x42>
    159c:	8365      	strh	r5, [r4, #26]
    159e:	231e      	movs	r3, #30
    15a0:	e7f8      	b.n	1594 <usart_read_wait+0x34>
    15a2:	2201      	movs	r2, #1
    15a4:	4213      	tst	r3, r2
    15a6:	d002      	beq.n	15ae <usart_read_wait+0x4e>
    15a8:	8362      	strh	r2, [r4, #26]
    15aa:	2313      	movs	r3, #19
    15ac:	e7f2      	b.n	1594 <usart_read_wait+0x34>
    15ae:	2210      	movs	r2, #16
    15b0:	4213      	tst	r3, r2
    15b2:	d002      	beq.n	15ba <usart_read_wait+0x5a>
    15b4:	8362      	strh	r2, [r4, #26]
    15b6:	2342      	movs	r3, #66	; 0x42
    15b8:	e7ec      	b.n	1594 <usart_read_wait+0x34>
    15ba:	2220      	movs	r2, #32
    15bc:	4213      	tst	r3, r2
    15be:	d002      	beq.n	15c6 <usart_read_wait+0x66>
    15c0:	8362      	strh	r2, [r4, #26]
    15c2:	2341      	movs	r3, #65	; 0x41
    15c4:	e7e6      	b.n	1594 <usart_read_wait+0x34>
    15c6:	8d23      	ldrh	r3, [r4, #40]	; 0x28
    15c8:	8033      	strh	r3, [r6, #0]
    15ca:	2300      	movs	r3, #0
    15cc:	e7e2      	b.n	1594 <usart_read_wait+0x34>
    15ce:	46c0      	nop			; (mov r8, r8)
    15d0:	00001261 	.word	0x00001261

000015d4 <usart_read_buffer_wait>:
    15d4:	b5f0      	push	{r4, r5, r6, r7, lr}
    15d6:	b085      	sub	sp, #20
    15d8:	0006      	movs	r6, r0
    15da:	9100      	str	r1, [sp, #0]
    15dc:	0015      	movs	r5, r2
    15de:	2017      	movs	r0, #23
    15e0:	2a00      	cmp	r2, #0
    15e2:	d028      	beq.n	1636 <usart_read_buffer_wait+0x62>
    15e4:	79b3      	ldrb	r3, [r6, #6]
    15e6:	3005      	adds	r0, #5
    15e8:	2b00      	cmp	r3, #0
    15ea:	d024      	beq.n	1636 <usart_read_buffer_wait+0x62>
    15ec:	2400      	movs	r4, #0
    15ee:	6833      	ldr	r3, [r6, #0]
    15f0:	9301      	str	r3, [sp, #4]
    15f2:	2380      	movs	r3, #128	; 0x80
    15f4:	025b      	lsls	r3, r3, #9
    15f6:	2104      	movs	r1, #4
    15f8:	9a01      	ldr	r2, [sp, #4]
    15fa:	7e12      	ldrb	r2, [r2, #24]
    15fc:	420a      	tst	r2, r1
    15fe:	d01c      	beq.n	163a <usart_read_buffer_wait+0x66>
    1600:	ab02      	add	r3, sp, #8
    1602:	1d9f      	adds	r7, r3, #6
    1604:	2300      	movs	r3, #0
    1606:	0039      	movs	r1, r7
    1608:	803b      	strh	r3, [r7, #0]
    160a:	0030      	movs	r0, r6
    160c:	4b0e      	ldr	r3, [pc, #56]	; (1648 <usart_read_buffer_wait+0x74>)
    160e:	4798      	blx	r3
    1610:	2800      	cmp	r0, #0
    1612:	d110      	bne.n	1636 <usart_read_buffer_wait+0x62>
    1614:	9900      	ldr	r1, [sp, #0]
    1616:	883a      	ldrh	r2, [r7, #0]
    1618:	1c63      	adds	r3, r4, #1
    161a:	550a      	strb	r2, [r1, r4]
    161c:	7971      	ldrb	r1, [r6, #5]
    161e:	b29b      	uxth	r3, r3
    1620:	2901      	cmp	r1, #1
    1622:	d10f      	bne.n	1644 <usart_read_buffer_wait+0x70>
    1624:	9900      	ldr	r1, [sp, #0]
    1626:	3402      	adds	r4, #2
    1628:	0a12      	lsrs	r2, r2, #8
    162a:	b2a4      	uxth	r4, r4
    162c:	54ca      	strb	r2, [r1, r3]
    162e:	3d01      	subs	r5, #1
    1630:	b2ad      	uxth	r5, r5
    1632:	2d00      	cmp	r5, #0
    1634:	d1dd      	bne.n	15f2 <usart_read_buffer_wait+0x1e>
    1636:	b005      	add	sp, #20
    1638:	bdf0      	pop	{r4, r5, r6, r7, pc}
    163a:	3b01      	subs	r3, #1
    163c:	2b00      	cmp	r3, #0
    163e:	d1da      	bne.n	15f6 <usart_read_buffer_wait+0x22>
    1640:	2012      	movs	r0, #18
    1642:	e7f8      	b.n	1636 <usart_read_buffer_wait+0x62>
    1644:	001c      	movs	r4, r3
    1646:	e7f2      	b.n	162e <usart_read_buffer_wait+0x5a>
    1648:	00001561 	.word	0x00001561

0000164c <_usart_interrupt_handler>:
    164c:	b5f8      	push	{r3, r4, r5, r6, r7, lr}
    164e:	4b58      	ldr	r3, [pc, #352]	; (17b0 <_usart_interrupt_handler+0x164>)
    1650:	0080      	lsls	r0, r0, #2
    1652:	58c4      	ldr	r4, [r0, r3]
    1654:	6825      	ldr	r5, [r4, #0]
    1656:	69eb      	ldr	r3, [r5, #28]
    1658:	2b00      	cmp	r3, #0
    165a:	d1fc      	bne.n	1656 <_usart_interrupt_handler+0xa>
    165c:	7e2b      	ldrb	r3, [r5, #24]
    165e:	7daf      	ldrb	r7, [r5, #22]
    1660:	401f      	ands	r7, r3
    1662:	0023      	movs	r3, r4
    1664:	3330      	adds	r3, #48	; 0x30
    1666:	781a      	ldrb	r2, [r3, #0]
    1668:	785e      	ldrb	r6, [r3, #1]
    166a:	2301      	movs	r3, #1
    166c:	4016      	ands	r6, r2
    166e:	421f      	tst	r7, r3
    1670:	d019      	beq.n	16a6 <_usart_interrupt_handler+0x5a>
    1672:	8de2      	ldrh	r2, [r4, #46]	; 0x2e
    1674:	2a00      	cmp	r2, #0
    1676:	d100      	bne.n	167a <_usart_interrupt_handler+0x2e>
    1678:	e072      	b.n	1760 <_usart_interrupt_handler+0x114>
    167a:	6aa2      	ldr	r2, [r4, #40]	; 0x28
    167c:	1c51      	adds	r1, r2, #1
    167e:	7813      	ldrb	r3, [r2, #0]
    1680:	62a1      	str	r1, [r4, #40]	; 0x28
    1682:	7961      	ldrb	r1, [r4, #5]
    1684:	b2db      	uxtb	r3, r3
    1686:	2901      	cmp	r1, #1
    1688:	d064      	beq.n	1754 <_usart_interrupt_handler+0x108>
    168a:	b29b      	uxth	r3, r3
    168c:	05db      	lsls	r3, r3, #23
    168e:	0ddb      	lsrs	r3, r3, #23
    1690:	852b      	strh	r3, [r5, #40]	; 0x28
    1692:	8de3      	ldrh	r3, [r4, #46]	; 0x2e
    1694:	3b01      	subs	r3, #1
    1696:	b29b      	uxth	r3, r3
    1698:	85e3      	strh	r3, [r4, #46]	; 0x2e
    169a:	2b00      	cmp	r3, #0
    169c:	d103      	bne.n	16a6 <_usart_interrupt_handler+0x5a>
    169e:	3301      	adds	r3, #1
    16a0:	752b      	strb	r3, [r5, #20]
    16a2:	3301      	adds	r3, #1
    16a4:	75ab      	strb	r3, [r5, #22]
    16a6:	2302      	movs	r3, #2
    16a8:	421f      	tst	r7, r3
    16aa:	d009      	beq.n	16c0 <_usart_interrupt_handler+0x74>
    16ac:	752b      	strb	r3, [r5, #20]
    16ae:	0023      	movs	r3, r4
    16b0:	2200      	movs	r2, #0
    16b2:	3333      	adds	r3, #51	; 0x33
    16b4:	701a      	strb	r2, [r3, #0]
    16b6:	07f3      	lsls	r3, r6, #31
    16b8:	d502      	bpl.n	16c0 <_usart_interrupt_handler+0x74>
    16ba:	0020      	movs	r0, r4
    16bc:	68e3      	ldr	r3, [r4, #12]
    16be:	4798      	blx	r3
    16c0:	2304      	movs	r3, #4
    16c2:	421f      	tst	r7, r3
    16c4:	d027      	beq.n	1716 <_usart_interrupt_handler+0xca>
    16c6:	8da2      	ldrh	r2, [r4, #44]	; 0x2c
    16c8:	2a00      	cmp	r2, #0
    16ca:	d100      	bne.n	16ce <_usart_interrupt_handler+0x82>
    16cc:	e06d      	b.n	17aa <_usart_interrupt_handler+0x15e>
    16ce:	8b6b      	ldrh	r3, [r5, #26]
    16d0:	b2db      	uxtb	r3, r3
    16d2:	071a      	lsls	r2, r3, #28
    16d4:	d446      	bmi.n	1764 <_usart_interrupt_handler+0x118>
    16d6:	223f      	movs	r2, #63	; 0x3f
    16d8:	4013      	ands	r3, r2
    16da:	d045      	beq.n	1768 <_usart_interrupt_handler+0x11c>
    16dc:	2202      	movs	r2, #2
    16de:	211a      	movs	r1, #26
    16e0:	4213      	tst	r3, r2
    16e2:	d10f      	bne.n	1704 <_usart_interrupt_handler+0xb8>
    16e4:	2204      	movs	r2, #4
    16e6:	211e      	movs	r1, #30
    16e8:	4213      	tst	r3, r2
    16ea:	d10b      	bne.n	1704 <_usart_interrupt_handler+0xb8>
    16ec:	2201      	movs	r2, #1
    16ee:	2113      	movs	r1, #19
    16f0:	4213      	tst	r3, r2
    16f2:	d107      	bne.n	1704 <_usart_interrupt_handler+0xb8>
    16f4:	2210      	movs	r2, #16
    16f6:	2142      	movs	r1, #66	; 0x42
    16f8:	4213      	tst	r3, r2
    16fa:	d103      	bne.n	1704 <_usart_interrupt_handler+0xb8>
    16fc:	2220      	movs	r2, #32
    16fe:	4213      	tst	r3, r2
    1700:	d004      	beq.n	170c <_usart_interrupt_handler+0xc0>
    1702:	2141      	movs	r1, #65	; 0x41
    1704:	0023      	movs	r3, r4
    1706:	3332      	adds	r3, #50	; 0x32
    1708:	7019      	strb	r1, [r3, #0]
    170a:	836a      	strh	r2, [r5, #26]
    170c:	0773      	lsls	r3, r6, #29
    170e:	d502      	bpl.n	1716 <_usart_interrupt_handler+0xca>
    1710:	0020      	movs	r0, r4
    1712:	6963      	ldr	r3, [r4, #20]
    1714:	4798      	blx	r3
    1716:	2310      	movs	r3, #16
    1718:	421f      	tst	r7, r3
    171a:	d006      	beq.n	172a <_usart_interrupt_handler+0xde>
    171c:	752b      	strb	r3, [r5, #20]
    171e:	762b      	strb	r3, [r5, #24]
    1720:	421e      	tst	r6, r3
    1722:	d002      	beq.n	172a <_usart_interrupt_handler+0xde>
    1724:	0020      	movs	r0, r4
    1726:	69e3      	ldr	r3, [r4, #28]
    1728:	4798      	blx	r3
    172a:	2320      	movs	r3, #32
    172c:	421f      	tst	r7, r3
    172e:	d006      	beq.n	173e <_usart_interrupt_handler+0xf2>
    1730:	752b      	strb	r3, [r5, #20]
    1732:	762b      	strb	r3, [r5, #24]
    1734:	0733      	lsls	r3, r6, #28
    1736:	d502      	bpl.n	173e <_usart_interrupt_handler+0xf2>
    1738:	0020      	movs	r0, r4
    173a:	69a3      	ldr	r3, [r4, #24]
    173c:	4798      	blx	r3
    173e:	2308      	movs	r3, #8
    1740:	421f      	tst	r7, r3
    1742:	d006      	beq.n	1752 <_usart_interrupt_handler+0x106>
    1744:	752b      	strb	r3, [r5, #20]
    1746:	762b      	strb	r3, [r5, #24]
    1748:	06b3      	lsls	r3, r6, #26
    174a:	d502      	bpl.n	1752 <_usart_interrupt_handler+0x106>
    174c:	6a23      	ldr	r3, [r4, #32]
    174e:	0020      	movs	r0, r4
    1750:	4798      	blx	r3
    1752:	bdf8      	pop	{r3, r4, r5, r6, r7, pc}
    1754:	7851      	ldrb	r1, [r2, #1]
    1756:	3202      	adds	r2, #2
    1758:	0209      	lsls	r1, r1, #8
    175a:	430b      	orrs	r3, r1
    175c:	62a2      	str	r2, [r4, #40]	; 0x28
    175e:	e795      	b.n	168c <_usart_interrupt_handler+0x40>
    1760:	752b      	strb	r3, [r5, #20]
    1762:	e7a0      	b.n	16a6 <_usart_interrupt_handler+0x5a>
    1764:	2237      	movs	r2, #55	; 0x37
    1766:	e7b7      	b.n	16d8 <_usart_interrupt_handler+0x8c>
    1768:	8d2b      	ldrh	r3, [r5, #40]	; 0x28
    176a:	6a61      	ldr	r1, [r4, #36]	; 0x24
    176c:	05db      	lsls	r3, r3, #23
    176e:	0ddb      	lsrs	r3, r3, #23
    1770:	b2da      	uxtb	r2, r3
    1772:	700a      	strb	r2, [r1, #0]
    1774:	6a62      	ldr	r2, [r4, #36]	; 0x24
    1776:	1c51      	adds	r1, r2, #1
    1778:	6261      	str	r1, [r4, #36]	; 0x24
    177a:	7961      	ldrb	r1, [r4, #5]
    177c:	2901      	cmp	r1, #1
    177e:	d104      	bne.n	178a <_usart_interrupt_handler+0x13e>
    1780:	0a1b      	lsrs	r3, r3, #8
    1782:	7053      	strb	r3, [r2, #1]
    1784:	6a63      	ldr	r3, [r4, #36]	; 0x24
    1786:	3301      	adds	r3, #1
    1788:	6263      	str	r3, [r4, #36]	; 0x24
    178a:	8da3      	ldrh	r3, [r4, #44]	; 0x2c
    178c:	3b01      	subs	r3, #1
    178e:	b29b      	uxth	r3, r3
    1790:	85a3      	strh	r3, [r4, #44]	; 0x2c
    1792:	2b00      	cmp	r3, #0
    1794:	d1bf      	bne.n	1716 <_usart_interrupt_handler+0xca>
    1796:	2204      	movs	r2, #4
    1798:	752a      	strb	r2, [r5, #20]
    179a:	0022      	movs	r2, r4
    179c:	3232      	adds	r2, #50	; 0x32
    179e:	7013      	strb	r3, [r2, #0]
    17a0:	07b3      	lsls	r3, r6, #30
    17a2:	d5b8      	bpl.n	1716 <_usart_interrupt_handler+0xca>
    17a4:	0020      	movs	r0, r4
    17a6:	6923      	ldr	r3, [r4, #16]
    17a8:	e7b4      	b.n	1714 <_usart_interrupt_handler+0xc8>
    17aa:	752b      	strb	r3, [r5, #20]
    17ac:	e7b3      	b.n	1716 <_usart_interrupt_handler+0xca>
    17ae:	46c0      	nop			; (mov r8, r8)
    17b0:	200000e0 	.word	0x200000e0

000017b4 <_system_dfll_wait_for_sync>:
    17b4:	2310      	movs	r3, #16
    17b6:	4902      	ldr	r1, [pc, #8]	; (17c0 <_system_dfll_wait_for_sync+0xc>)
    17b8:	68ca      	ldr	r2, [r1, #12]
    17ba:	421a      	tst	r2, r3
    17bc:	d0fc      	beq.n	17b8 <_system_dfll_wait_for_sync+0x4>
    17be:	4770      	bx	lr
    17c0:	40000800 	.word	0x40000800

000017c4 <system_clock_source_get_hz>:
    17c4:	b570      	push	{r4, r5, r6, lr}
    17c6:	2808      	cmp	r0, #8
    17c8:	d806      	bhi.n	17d8 <system_clock_source_get_hz+0x14>
    17ca:	f000 fe13 	bl	23f4 <__gnu_thumb1_case_uqi>
    17ce:	0508      	.short	0x0508
    17d0:	122e2e05 	.word	0x122e2e05
    17d4:	150b      	.short	0x150b
    17d6:	26          	.byte	0x26
    17d7:	00          	.byte	0x00
    17d8:	2400      	movs	r4, #0
    17da:	0020      	movs	r0, r4
    17dc:	bd70      	pop	{r4, r5, r6, pc}
    17de:	4b15      	ldr	r3, [pc, #84]	; (1834 <system_clock_source_get_hz+0x70>)
    17e0:	691c      	ldr	r4, [r3, #16]
    17e2:	e7fa      	b.n	17da <system_clock_source_get_hz+0x16>
    17e4:	4b14      	ldr	r3, [pc, #80]	; (1838 <system_clock_source_get_hz+0x74>)
    17e6:	4c15      	ldr	r4, [pc, #84]	; (183c <system_clock_source_get_hz+0x78>)
    17e8:	6a1b      	ldr	r3, [r3, #32]
    17ea:	059b      	lsls	r3, r3, #22
    17ec:	0f9b      	lsrs	r3, r3, #30
    17ee:	40dc      	lsrs	r4, r3
    17f0:	e7f3      	b.n	17da <system_clock_source_get_hz+0x16>
    17f2:	4b10      	ldr	r3, [pc, #64]	; (1834 <system_clock_source_get_hz+0x70>)
    17f4:	695c      	ldr	r4, [r3, #20]
    17f6:	e7f0      	b.n	17da <system_clock_source_get_hz+0x16>
    17f8:	4d0e      	ldr	r5, [pc, #56]	; (1834 <system_clock_source_get_hz+0x70>)
    17fa:	2400      	movs	r4, #0
    17fc:	682b      	ldr	r3, [r5, #0]
    17fe:	079b      	lsls	r3, r3, #30
    1800:	d5eb      	bpl.n	17da <system_clock_source_get_hz+0x16>
    1802:	4b0f      	ldr	r3, [pc, #60]	; (1840 <system_clock_source_get_hz+0x7c>)
    1804:	4798      	blx	r3
    1806:	682b      	ldr	r3, [r5, #0]
    1808:	075b      	lsls	r3, r3, #29
    180a:	d511      	bpl.n	1830 <system_clock_source_get_hz+0x6c>
    180c:	0020      	movs	r0, r4
    180e:	4b0d      	ldr	r3, [pc, #52]	; (1844 <system_clock_source_get_hz+0x80>)
    1810:	4798      	blx	r3
    1812:	68ac      	ldr	r4, [r5, #8]
    1814:	b2a4      	uxth	r4, r4
    1816:	4344      	muls	r4, r0
    1818:	e7df      	b.n	17da <system_clock_source_get_hz+0x16>
    181a:	4b0b      	ldr	r3, [pc, #44]	; (1848 <system_clock_source_get_hz+0x84>)
    181c:	2400      	movs	r4, #0
    181e:	781b      	ldrb	r3, [r3, #0]
    1820:	075b      	lsls	r3, r3, #29
    1822:	d5da      	bpl.n	17da <system_clock_source_get_hz+0x16>
    1824:	4b03      	ldr	r3, [pc, #12]	; (1834 <system_clock_source_get_hz+0x70>)
    1826:	68dc      	ldr	r4, [r3, #12]
    1828:	e7d7      	b.n	17da <system_clock_source_get_hz+0x16>
    182a:	2480      	movs	r4, #128	; 0x80
    182c:	0224      	lsls	r4, r4, #8
    182e:	e7d4      	b.n	17da <system_clock_source_get_hz+0x16>
    1830:	4c06      	ldr	r4, [pc, #24]	; (184c <system_clock_source_get_hz+0x88>)
    1832:	e7d2      	b.n	17da <system_clock_source_get_hz+0x16>
    1834:	200000b8 	.word	0x200000b8
    1838:	40000800 	.word	0x40000800
    183c:	007a1200 	.word	0x007a1200
    1840:	000017b5 	.word	0x000017b5
    1844:	00001bf1 	.word	0x00001bf1
    1848:	40000850 	.word	0x40000850
    184c:	02dc6c00 	.word	0x02dc6c00

00001850 <system_clock_source_osc8m_set_config>:
    1850:	b570      	push	{r4, r5, r6, lr}
    1852:	7884      	ldrb	r4, [r0, #2]
    1854:	7802      	ldrb	r2, [r0, #0]
    1856:	7845      	ldrb	r5, [r0, #1]
    1858:	2001      	movs	r0, #1
    185a:	2640      	movs	r6, #64	; 0x40
    185c:	4005      	ands	r5, r0
    185e:	4020      	ands	r0, r4
    1860:	2480      	movs	r4, #128	; 0x80
    1862:	4908      	ldr	r1, [pc, #32]	; (1884 <system_clock_source_osc8m_set_config+0x34>)
    1864:	01ad      	lsls	r5, r5, #6
    1866:	6a0b      	ldr	r3, [r1, #32]
    1868:	01c0      	lsls	r0, r0, #7
    186a:	43b3      	bics	r3, r6
    186c:	432b      	orrs	r3, r5
    186e:	43a3      	bics	r3, r4
    1870:	4303      	orrs	r3, r0
    1872:	2003      	movs	r0, #3
    1874:	4002      	ands	r2, r0
    1876:	4804      	ldr	r0, [pc, #16]	; (1888 <system_clock_source_osc8m_set_config+0x38>)
    1878:	0212      	lsls	r2, r2, #8
    187a:	4003      	ands	r3, r0
    187c:	4313      	orrs	r3, r2
    187e:	620b      	str	r3, [r1, #32]
    1880:	bd70      	pop	{r4, r5, r6, pc}
    1882:	46c0      	nop			; (mov r8, r8)
    1884:	40000800 	.word	0x40000800
    1888:	fffffcff 	.word	0xfffffcff

0000188c <system_clock_source_enable>:
    188c:	b5f8      	push	{r3, r4, r5, r6, r7, lr}
    188e:	2808      	cmp	r0, #8
    1890:	d806      	bhi.n	18a0 <system_clock_source_enable+0x14>
    1892:	f000 fdaf 	bl	23f4 <__gnu_thumb1_case_uqi>
    1896:	0514      	.short	0x0514
    1898:	1a0e0c05 	.word	0x1a0e0c05
    189c:	2007      	.short	0x2007
    189e:	34          	.byte	0x34
    189f:	00          	.byte	0x00
    18a0:	2017      	movs	r0, #23
    18a2:	bdf8      	pop	{r3, r4, r5, r6, r7, pc}
    18a4:	2302      	movs	r3, #2
    18a6:	4a19      	ldr	r2, [pc, #100]	; (190c <system_clock_source_enable+0x80>)
    18a8:	6a11      	ldr	r1, [r2, #32]
    18aa:	430b      	orrs	r3, r1
    18ac:	6213      	str	r3, [r2, #32]
    18ae:	2000      	movs	r0, #0
    18b0:	e7f7      	b.n	18a2 <system_clock_source_enable+0x16>
    18b2:	2302      	movs	r3, #2
    18b4:	4a15      	ldr	r2, [pc, #84]	; (190c <system_clock_source_enable+0x80>)
    18b6:	6991      	ldr	r1, [r2, #24]
    18b8:	430b      	orrs	r3, r1
    18ba:	6193      	str	r3, [r2, #24]
    18bc:	e7f7      	b.n	18ae <system_clock_source_enable+0x22>
    18be:	2302      	movs	r3, #2
    18c0:	4a12      	ldr	r2, [pc, #72]	; (190c <system_clock_source_enable+0x80>)
    18c2:	8a11      	ldrh	r1, [r2, #16]
    18c4:	430b      	orrs	r3, r1
    18c6:	8213      	strh	r3, [r2, #16]
    18c8:	e7f1      	b.n	18ae <system_clock_source_enable+0x22>
    18ca:	2302      	movs	r3, #2
    18cc:	4a0f      	ldr	r2, [pc, #60]	; (190c <system_clock_source_enable+0x80>)
    18ce:	8a91      	ldrh	r1, [r2, #20]
    18d0:	430b      	orrs	r3, r1
    18d2:	8293      	strh	r3, [r2, #20]
    18d4:	e7eb      	b.n	18ae <system_clock_source_enable+0x22>
    18d6:	2202      	movs	r2, #2
    18d8:	2400      	movs	r4, #0
    18da:	4e0d      	ldr	r6, [pc, #52]	; (1910 <system_clock_source_enable+0x84>)
    18dc:	4d0b      	ldr	r5, [pc, #44]	; (190c <system_clock_source_enable+0x80>)
    18de:	6833      	ldr	r3, [r6, #0]
    18e0:	4f0c      	ldr	r7, [pc, #48]	; (1914 <system_clock_source_enable+0x88>)
    18e2:	4313      	orrs	r3, r2
    18e4:	6033      	str	r3, [r6, #0]
    18e6:	84aa      	strh	r2, [r5, #36]	; 0x24
    18e8:	47b8      	blx	r7
    18ea:	68b3      	ldr	r3, [r6, #8]
    18ec:	62eb      	str	r3, [r5, #44]	; 0x2c
    18ee:	6873      	ldr	r3, [r6, #4]
    18f0:	62ab      	str	r3, [r5, #40]	; 0x28
    18f2:	84ac      	strh	r4, [r5, #36]	; 0x24
    18f4:	47b8      	blx	r7
    18f6:	6833      	ldr	r3, [r6, #0]
    18f8:	b29b      	uxth	r3, r3
    18fa:	84ab      	strh	r3, [r5, #36]	; 0x24
    18fc:	e7d7      	b.n	18ae <system_clock_source_enable+0x22>
    18fe:	2302      	movs	r3, #2
    1900:	4a05      	ldr	r2, [pc, #20]	; (1918 <system_clock_source_enable+0x8c>)
    1902:	7811      	ldrb	r1, [r2, #0]
    1904:	430b      	orrs	r3, r1
    1906:	7013      	strb	r3, [r2, #0]
    1908:	e7d1      	b.n	18ae <system_clock_source_enable+0x22>
    190a:	46c0      	nop			; (mov r8, r8)
    190c:	40000800 	.word	0x40000800
    1910:	200000b8 	.word	0x200000b8
    1914:	000017b5 	.word	0x000017b5
    1918:	40000844 	.word	0x40000844

0000191c <system_clock_init>:
    191c:	b57f      	push	{r0, r1, r2, r3, r4, r5, r6, lr}
    191e:	22c2      	movs	r2, #194	; 0xc2
    1920:	4b1b      	ldr	r3, [pc, #108]	; (1990 <system_clock_init+0x74>)
    1922:	00d2      	lsls	r2, r2, #3
    1924:	609a      	str	r2, [r3, #8]
    1926:	221e      	movs	r2, #30
    1928:	491a      	ldr	r1, [pc, #104]	; (1994 <system_clock_init+0x78>)
    192a:	2400      	movs	r4, #0
    192c:	684b      	ldr	r3, [r1, #4]
    192e:	ad01      	add	r5, sp, #4
    1930:	4393      	bics	r3, r2
    1932:	001a      	movs	r2, r3
    1934:	2302      	movs	r3, #2
    1936:	4313      	orrs	r3, r2
    1938:	604b      	str	r3, [r1, #4]
    193a:	2301      	movs	r3, #1
    193c:	702b      	strb	r3, [r5, #0]
    193e:	b2e0      	uxtb	r0, r4
    1940:	0029      	movs	r1, r5
    1942:	4b15      	ldr	r3, [pc, #84]	; (1998 <system_clock_init+0x7c>)
    1944:	3401      	adds	r4, #1
    1946:	4798      	blx	r3
    1948:	2c25      	cmp	r4, #37	; 0x25
    194a:	d1f8      	bne.n	193e <system_clock_init+0x22>
    194c:	2400      	movs	r4, #0
    194e:	466b      	mov	r3, sp
    1950:	2601      	movs	r6, #1
    1952:	705c      	strb	r4, [r3, #1]
    1954:	709e      	strb	r6, [r3, #2]
    1956:	701c      	strb	r4, [r3, #0]
    1958:	4668      	mov	r0, sp
    195a:	4b10      	ldr	r3, [pc, #64]	; (199c <system_clock_init+0x80>)
    195c:	4798      	blx	r3
    195e:	4b10      	ldr	r3, [pc, #64]	; (19a0 <system_clock_init+0x84>)
    1960:	2006      	movs	r0, #6
    1962:	4798      	blx	r3
    1964:	4b0f      	ldr	r3, [pc, #60]	; (19a4 <system_clock_init+0x88>)
    1966:	4798      	blx	r3
    1968:	4b0f      	ldr	r3, [pc, #60]	; (19a8 <system_clock_init+0x8c>)
    196a:	0029      	movs	r1, r5
    196c:	721c      	strb	r4, [r3, #8]
    196e:	725c      	strb	r4, [r3, #9]
    1970:	729c      	strb	r4, [r3, #10]
    1972:	72dc      	strb	r4, [r3, #11]
    1974:	2306      	movs	r3, #6
    1976:	0020      	movs	r0, r4
    1978:	702b      	strb	r3, [r5, #0]
    197a:	4b0c      	ldr	r3, [pc, #48]	; (19ac <system_clock_init+0x90>)
    197c:	606e      	str	r6, [r5, #4]
    197e:	706c      	strb	r4, [r5, #1]
    1980:	722c      	strb	r4, [r5, #8]
    1982:	726c      	strb	r4, [r5, #9]
    1984:	4798      	blx	r3
    1986:	0020      	movs	r0, r4
    1988:	4b09      	ldr	r3, [pc, #36]	; (19b0 <system_clock_init+0x94>)
    198a:	4798      	blx	r3
    198c:	bd7f      	pop	{r0, r1, r2, r3, r4, r5, r6, pc}
    198e:	46c0      	nop			; (mov r8, r8)
    1990:	40000800 	.word	0x40000800
    1994:	41004000 	.word	0x41004000
    1998:	00001bd5 	.word	0x00001bd5
    199c:	00001851 	.word	0x00001851
    19a0:	0000188d 	.word	0x0000188d
    19a4:	000019c1 	.word	0x000019c1
    19a8:	40000400 	.word	0x40000400
    19ac:	000019e1 	.word	0x000019e1
    19b0:	00001a85 	.word	0x00001a85

000019b4 <system_gclk_is_syncing>:
    19b4:	4b01      	ldr	r3, [pc, #4]	; (19bc <system_gclk_is_syncing+0x8>)
    19b6:	7858      	ldrb	r0, [r3, #1]
    19b8:	09c0      	lsrs	r0, r0, #7
    19ba:	4770      	bx	lr
    19bc:	40000c00 	.word	0x40000c00

000019c0 <system_gclk_init>:
    19c0:	2308      	movs	r3, #8
    19c2:	4a05      	ldr	r2, [pc, #20]	; (19d8 <system_gclk_init+0x18>)
    19c4:	6991      	ldr	r1, [r2, #24]
    19c6:	430b      	orrs	r3, r1
    19c8:	6193      	str	r3, [r2, #24]
    19ca:	2301      	movs	r3, #1
    19cc:	4a03      	ldr	r2, [pc, #12]	; (19dc <system_gclk_init+0x1c>)
    19ce:	7013      	strb	r3, [r2, #0]
    19d0:	7811      	ldrb	r1, [r2, #0]
    19d2:	4219      	tst	r1, r3
    19d4:	d1fc      	bne.n	19d0 <system_gclk_init+0x10>
    19d6:	4770      	bx	lr
    19d8:	40000400 	.word	0x40000400
    19dc:	40000c00 	.word	0x40000c00

000019e0 <system_gclk_gen_set_config>:
    19e0:	b5f8      	push	{r3, r4, r5, r6, r7, lr}
    19e2:	780c      	ldrb	r4, [r1, #0]
    19e4:	784b      	ldrb	r3, [r1, #1]
    19e6:	0224      	lsls	r4, r4, #8
    19e8:	0006      	movs	r6, r0
    19ea:	0005      	movs	r5, r0
    19ec:	4304      	orrs	r4, r0
    19ee:	2b00      	cmp	r3, #0
    19f0:	d002      	beq.n	19f8 <system_gclk_gen_set_config+0x18>
    19f2:	2380      	movs	r3, #128	; 0x80
    19f4:	02db      	lsls	r3, r3, #11
    19f6:	431c      	orrs	r4, r3
    19f8:	7a4b      	ldrb	r3, [r1, #9]
    19fa:	2b00      	cmp	r3, #0
    19fc:	d002      	beq.n	1a04 <system_gclk_gen_set_config+0x24>
    19fe:	2380      	movs	r3, #128	; 0x80
    1a00:	031b      	lsls	r3, r3, #12
    1a02:	431c      	orrs	r4, r3
    1a04:	684b      	ldr	r3, [r1, #4]
    1a06:	2b01      	cmp	r3, #1
    1a08:	d912      	bls.n	1a30 <system_gclk_gen_set_config+0x50>
    1a0a:	1e5d      	subs	r5, r3, #1
    1a0c:	401d      	ands	r5, r3
    1a0e:	2202      	movs	r2, #2
    1a10:	2d00      	cmp	r5, #0
    1a12:	d006      	beq.n	1a22 <system_gclk_gen_set_config+0x42>
    1a14:	021d      	lsls	r5, r3, #8
    1a16:	2380      	movs	r3, #128	; 0x80
    1a18:	4335      	orrs	r5, r6
    1a1a:	029b      	lsls	r3, r3, #10
    1a1c:	e007      	b.n	1a2e <system_gclk_gen_set_config+0x4e>
    1a1e:	3501      	adds	r5, #1
    1a20:	0052      	lsls	r2, r2, #1
    1a22:	429a      	cmp	r2, r3
    1a24:	d3fb      	bcc.n	1a1e <system_gclk_gen_set_config+0x3e>
    1a26:	2380      	movs	r3, #128	; 0x80
    1a28:	022d      	lsls	r5, r5, #8
    1a2a:	4335      	orrs	r5, r6
    1a2c:	035b      	lsls	r3, r3, #13
    1a2e:	431c      	orrs	r4, r3
    1a30:	7a0b      	ldrb	r3, [r1, #8]
    1a32:	2b00      	cmp	r3, #0
    1a34:	d002      	beq.n	1a3c <system_gclk_gen_set_config+0x5c>
    1a36:	2380      	movs	r3, #128	; 0x80
    1a38:	039b      	lsls	r3, r3, #14
    1a3a:	431c      	orrs	r4, r3
    1a3c:	4f0c      	ldr	r7, [pc, #48]	; (1a70 <system_gclk_gen_set_config+0x90>)
    1a3e:	47b8      	blx	r7
    1a40:	2800      	cmp	r0, #0
    1a42:	d1fb      	bne.n	1a3c <system_gclk_gen_set_config+0x5c>
    1a44:	4b0b      	ldr	r3, [pc, #44]	; (1a74 <system_gclk_gen_set_config+0x94>)
    1a46:	4798      	blx	r3
    1a48:	4b0b      	ldr	r3, [pc, #44]	; (1a78 <system_gclk_gen_set_config+0x98>)
    1a4a:	701e      	strb	r6, [r3, #0]
    1a4c:	47b8      	blx	r7
    1a4e:	2800      	cmp	r0, #0
    1a50:	d1fc      	bne.n	1a4c <system_gclk_gen_set_config+0x6c>
    1a52:	4b0a      	ldr	r3, [pc, #40]	; (1a7c <system_gclk_gen_set_config+0x9c>)
    1a54:	609d      	str	r5, [r3, #8]
    1a56:	001d      	movs	r5, r3
    1a58:	47b8      	blx	r7
    1a5a:	2800      	cmp	r0, #0
    1a5c:	d1fc      	bne.n	1a58 <system_gclk_gen_set_config+0x78>
    1a5e:	2280      	movs	r2, #128	; 0x80
    1a60:	686b      	ldr	r3, [r5, #4]
    1a62:	0252      	lsls	r2, r2, #9
    1a64:	4013      	ands	r3, r2
    1a66:	431c      	orrs	r4, r3
    1a68:	606c      	str	r4, [r5, #4]
    1a6a:	4b05      	ldr	r3, [pc, #20]	; (1a80 <system_gclk_gen_set_config+0xa0>)
    1a6c:	4798      	blx	r3
    1a6e:	bdf8      	pop	{r3, r4, r5, r6, r7, pc}
    1a70:	000019b5 	.word	0x000019b5
    1a74:	000011fd 	.word	0x000011fd
    1a78:	40000c08 	.word	0x40000c08
    1a7c:	40000c00 	.word	0x40000c00
    1a80:	00001231 	.word	0x00001231

00001a84 <system_gclk_gen_enable>:
    1a84:	b570      	push	{r4, r5, r6, lr}
    1a86:	0005      	movs	r5, r0
    1a88:	4c09      	ldr	r4, [pc, #36]	; (1ab0 <system_gclk_gen_enable+0x2c>)
    1a8a:	47a0      	blx	r4
    1a8c:	2800      	cmp	r0, #0
    1a8e:	d1fb      	bne.n	1a88 <system_gclk_gen_enable+0x4>
    1a90:	4b08      	ldr	r3, [pc, #32]	; (1ab4 <system_gclk_gen_enable+0x30>)
    1a92:	4798      	blx	r3
    1a94:	4b08      	ldr	r3, [pc, #32]	; (1ab8 <system_gclk_gen_enable+0x34>)
    1a96:	701d      	strb	r5, [r3, #0]
    1a98:	47a0      	blx	r4
    1a9a:	2800      	cmp	r0, #0
    1a9c:	d1fc      	bne.n	1a98 <system_gclk_gen_enable+0x14>
    1a9e:	2380      	movs	r3, #128	; 0x80
    1aa0:	4a06      	ldr	r2, [pc, #24]	; (1abc <system_gclk_gen_enable+0x38>)
    1aa2:	025b      	lsls	r3, r3, #9
    1aa4:	6851      	ldr	r1, [r2, #4]
    1aa6:	430b      	orrs	r3, r1
    1aa8:	6053      	str	r3, [r2, #4]
    1aaa:	4b05      	ldr	r3, [pc, #20]	; (1ac0 <system_gclk_gen_enable+0x3c>)
    1aac:	4798      	blx	r3
    1aae:	bd70      	pop	{r4, r5, r6, pc}
    1ab0:	000019b5 	.word	0x000019b5
    1ab4:	000011fd 	.word	0x000011fd
    1ab8:	40000c04 	.word	0x40000c04
    1abc:	40000c00 	.word	0x40000c00
    1ac0:	00001231 	.word	0x00001231

00001ac4 <system_gclk_gen_get_hz>:
    1ac4:	b5f7      	push	{r0, r1, r2, r4, r5, r6, r7, lr}
    1ac6:	0007      	movs	r7, r0
    1ac8:	4e18      	ldr	r6, [pc, #96]	; (1b2c <system_gclk_gen_get_hz+0x68>)
    1aca:	47b0      	blx	r6
    1acc:	2800      	cmp	r0, #0
    1ace:	d1fb      	bne.n	1ac8 <system_gclk_gen_get_hz+0x4>
    1ad0:	4b17      	ldr	r3, [pc, #92]	; (1b30 <system_gclk_gen_get_hz+0x6c>)
    1ad2:	4798      	blx	r3
    1ad4:	4b17      	ldr	r3, [pc, #92]	; (1b34 <system_gclk_gen_get_hz+0x70>)
    1ad6:	701f      	strb	r7, [r3, #0]
    1ad8:	9301      	str	r3, [sp, #4]
    1ada:	47b0      	blx	r6
    1adc:	2800      	cmp	r0, #0
    1ade:	d1fc      	bne.n	1ada <system_gclk_gen_get_hz+0x16>
    1ae0:	4d15      	ldr	r5, [pc, #84]	; (1b38 <system_gclk_gen_get_hz+0x74>)
    1ae2:	4b16      	ldr	r3, [pc, #88]	; (1b3c <system_gclk_gen_get_hz+0x78>)
    1ae4:	6868      	ldr	r0, [r5, #4]
    1ae6:	04c0      	lsls	r0, r0, #19
    1ae8:	0ec0      	lsrs	r0, r0, #27
    1aea:	4798      	blx	r3
    1aec:	0004      	movs	r4, r0
    1aee:	9b01      	ldr	r3, [sp, #4]
    1af0:	701f      	strb	r7, [r3, #0]
    1af2:	686b      	ldr	r3, [r5, #4]
    1af4:	02db      	lsls	r3, r3, #11
    1af6:	0fdb      	lsrs	r3, r3, #31
    1af8:	9301      	str	r3, [sp, #4]
    1afa:	4b11      	ldr	r3, [pc, #68]	; (1b40 <system_gclk_gen_get_hz+0x7c>)
    1afc:	701f      	strb	r7, [r3, #0]
    1afe:	47b0      	blx	r6
    1b00:	2800      	cmp	r0, #0
    1b02:	d1fc      	bne.n	1afe <system_gclk_gen_get_hz+0x3a>
    1b04:	68ad      	ldr	r5, [r5, #8]
    1b06:	4b0f      	ldr	r3, [pc, #60]	; (1b44 <system_gclk_gen_get_hz+0x80>)
    1b08:	4798      	blx	r3
    1b0a:	9b01      	ldr	r3, [sp, #4]
    1b0c:	022d      	lsls	r5, r5, #8
    1b0e:	0c2d      	lsrs	r5, r5, #16
    1b10:	2b00      	cmp	r3, #0
    1b12:	d108      	bne.n	1b26 <system_gclk_gen_get_hz+0x62>
    1b14:	2d01      	cmp	r5, #1
    1b16:	d904      	bls.n	1b22 <system_gclk_gen_get_hz+0x5e>
    1b18:	0020      	movs	r0, r4
    1b1a:	0029      	movs	r1, r5
    1b1c:	4b0a      	ldr	r3, [pc, #40]	; (1b48 <system_gclk_gen_get_hz+0x84>)
    1b1e:	4798      	blx	r3
    1b20:	0004      	movs	r4, r0
    1b22:	0020      	movs	r0, r4
    1b24:	bdfe      	pop	{r1, r2, r3, r4, r5, r6, r7, pc}
    1b26:	3501      	adds	r5, #1
    1b28:	40ec      	lsrs	r4, r5
    1b2a:	e7fa      	b.n	1b22 <system_gclk_gen_get_hz+0x5e>
    1b2c:	000019b5 	.word	0x000019b5
    1b30:	000011fd 	.word	0x000011fd
    1b34:	40000c04 	.word	0x40000c04
    1b38:	40000c00 	.word	0x40000c00
    1b3c:	000017c5 	.word	0x000017c5
    1b40:	40000c08 	.word	0x40000c08
    1b44:	00001231 	.word	0x00001231
    1b48:	00002409 	.word	0x00002409

00001b4c <system_gclk_chan_enable>:
    1b4c:	b510      	push	{r4, lr}
    1b4e:	0004      	movs	r4, r0
    1b50:	4b06      	ldr	r3, [pc, #24]	; (1b6c <system_gclk_chan_enable+0x20>)
    1b52:	4798      	blx	r3
    1b54:	4b06      	ldr	r3, [pc, #24]	; (1b70 <system_gclk_chan_enable+0x24>)
    1b56:	4a07      	ldr	r2, [pc, #28]	; (1b74 <system_gclk_chan_enable+0x28>)
    1b58:	701c      	strb	r4, [r3, #0]
    1b5a:	2380      	movs	r3, #128	; 0x80
    1b5c:	8851      	ldrh	r1, [r2, #2]
    1b5e:	01db      	lsls	r3, r3, #7
    1b60:	430b      	orrs	r3, r1
    1b62:	8053      	strh	r3, [r2, #2]
    1b64:	4b04      	ldr	r3, [pc, #16]	; (1b78 <system_gclk_chan_enable+0x2c>)
    1b66:	4798      	blx	r3
    1b68:	bd10      	pop	{r4, pc}
    1b6a:	46c0      	nop			; (mov r8, r8)
    1b6c:	000011fd 	.word	0x000011fd
    1b70:	40000c02 	.word	0x40000c02
    1b74:	40000c00 	.word	0x40000c00
    1b78:	00001231 	.word	0x00001231

00001b7c <system_gclk_chan_disable>:
    1b7c:	b510      	push	{r4, lr}
    1b7e:	0004      	movs	r4, r0
    1b80:	4b0e      	ldr	r3, [pc, #56]	; (1bbc <system_gclk_chan_disable+0x40>)
    1b82:	4798      	blx	r3
    1b84:	4b0e      	ldr	r3, [pc, #56]	; (1bc0 <system_gclk_chan_disable+0x44>)
    1b86:	4a0f      	ldr	r2, [pc, #60]	; (1bc4 <system_gclk_chan_disable+0x48>)
    1b88:	701c      	strb	r4, [r3, #0]
    1b8a:	4b0f      	ldr	r3, [pc, #60]	; (1bc8 <system_gclk_chan_disable+0x4c>)
    1b8c:	4c0f      	ldr	r4, [pc, #60]	; (1bcc <system_gclk_chan_disable+0x50>)
    1b8e:	8858      	ldrh	r0, [r3, #2]
    1b90:	8859      	ldrh	r1, [r3, #2]
    1b92:	0500      	lsls	r0, r0, #20
    1b94:	4011      	ands	r1, r2
    1b96:	8059      	strh	r1, [r3, #2]
    1b98:	8859      	ldrh	r1, [r3, #2]
    1b9a:	0f00      	lsrs	r0, r0, #28
    1b9c:	4021      	ands	r1, r4
    1b9e:	8059      	strh	r1, [r3, #2]
    1ba0:	0011      	movs	r1, r2
    1ba2:	2280      	movs	r2, #128	; 0x80
    1ba4:	01d2      	lsls	r2, r2, #7
    1ba6:	885c      	ldrh	r4, [r3, #2]
    1ba8:	4214      	tst	r4, r2
    1baa:	d1fc      	bne.n	1ba6 <system_gclk_chan_disable+0x2a>
    1bac:	885a      	ldrh	r2, [r3, #2]
    1bae:	0200      	lsls	r0, r0, #8
    1bb0:	400a      	ands	r2, r1
    1bb2:	4302      	orrs	r2, r0
    1bb4:	805a      	strh	r2, [r3, #2]
    1bb6:	4b06      	ldr	r3, [pc, #24]	; (1bd0 <system_gclk_chan_disable+0x54>)
    1bb8:	4798      	blx	r3
    1bba:	bd10      	pop	{r4, pc}
    1bbc:	000011fd 	.word	0x000011fd
    1bc0:	40000c02 	.word	0x40000c02
    1bc4:	fffff0ff 	.word	0xfffff0ff
    1bc8:	40000c00 	.word	0x40000c00
    1bcc:	ffffbfff 	.word	0xffffbfff
    1bd0:	00001231 	.word	0x00001231

00001bd4 <system_gclk_chan_set_config>:
    1bd4:	b510      	push	{r4, lr}
    1bd6:	780c      	ldrb	r4, [r1, #0]
    1bd8:	4b03      	ldr	r3, [pc, #12]	; (1be8 <system_gclk_chan_set_config+0x14>)
    1bda:	0224      	lsls	r4, r4, #8
    1bdc:	4304      	orrs	r4, r0
    1bde:	4798      	blx	r3
    1be0:	4b02      	ldr	r3, [pc, #8]	; (1bec <system_gclk_chan_set_config+0x18>)
    1be2:	b2a4      	uxth	r4, r4
    1be4:	805c      	strh	r4, [r3, #2]
    1be6:	bd10      	pop	{r4, pc}
    1be8:	00001b7d 	.word	0x00001b7d
    1bec:	40000c00 	.word	0x40000c00

00001bf0 <system_gclk_chan_get_hz>:
    1bf0:	b510      	push	{r4, lr}
    1bf2:	0004      	movs	r4, r0
    1bf4:	4b06      	ldr	r3, [pc, #24]	; (1c10 <system_gclk_chan_get_hz+0x20>)
    1bf6:	4798      	blx	r3
    1bf8:	4b06      	ldr	r3, [pc, #24]	; (1c14 <system_gclk_chan_get_hz+0x24>)
    1bfa:	701c      	strb	r4, [r3, #0]
    1bfc:	4b06      	ldr	r3, [pc, #24]	; (1c18 <system_gclk_chan_get_hz+0x28>)
    1bfe:	885c      	ldrh	r4, [r3, #2]
    1c00:	4b06      	ldr	r3, [pc, #24]	; (1c1c <system_gclk_chan_get_hz+0x2c>)
    1c02:	0524      	lsls	r4, r4, #20
    1c04:	0f24      	lsrs	r4, r4, #28
    1c06:	4798      	blx	r3
    1c08:	0020      	movs	r0, r4
    1c0a:	4b05      	ldr	r3, [pc, #20]	; (1c20 <system_gclk_chan_get_hz+0x30>)
    1c0c:	4798      	blx	r3
    1c0e:	bd10      	pop	{r4, pc}
    1c10:	000011fd 	.word	0x000011fd
    1c14:	40000c02 	.word	0x40000c02
    1c18:	40000c00 	.word	0x40000c00
    1c1c:	00001231 	.word	0x00001231
    1c20:	00001ac5 	.word	0x00001ac5

00001c24 <_system_pinmux_config>:
    1c24:	78d3      	ldrb	r3, [r2, #3]
    1c26:	b530      	push	{r4, r5, lr}
    1c28:	2b00      	cmp	r3, #0
    1c2a:	d135      	bne.n	1c98 <_system_pinmux_config+0x74>
    1c2c:	7814      	ldrb	r4, [r2, #0]
    1c2e:	2c80      	cmp	r4, #128	; 0x80
    1c30:	d003      	beq.n	1c3a <_system_pinmux_config+0x16>
    1c32:	2380      	movs	r3, #128	; 0x80
    1c34:	0624      	lsls	r4, r4, #24
    1c36:	025b      	lsls	r3, r3, #9
    1c38:	4323      	orrs	r3, r4
    1c3a:	2502      	movs	r5, #2
    1c3c:	7854      	ldrb	r4, [r2, #1]
    1c3e:	43ac      	bics	r4, r5
    1c40:	d106      	bne.n	1c50 <_system_pinmux_config+0x2c>
    1c42:	7894      	ldrb	r4, [r2, #2]
    1c44:	2c00      	cmp	r4, #0
    1c46:	d124      	bne.n	1c92 <_system_pinmux_config+0x6e>
    1c48:	2480      	movs	r4, #128	; 0x80
    1c4a:	02a4      	lsls	r4, r4, #10
    1c4c:	4323      	orrs	r3, r4
    1c4e:	6041      	str	r1, [r0, #4]
    1c50:	7854      	ldrb	r4, [r2, #1]
    1c52:	3c01      	subs	r4, #1
    1c54:	2c01      	cmp	r4, #1
    1c56:	d801      	bhi.n	1c5c <_system_pinmux_config+0x38>
    1c58:	4c12      	ldr	r4, [pc, #72]	; (1ca4 <_system_pinmux_config+0x80>)
    1c5a:	4023      	ands	r3, r4
    1c5c:	24a0      	movs	r4, #160	; 0xa0
    1c5e:	b28d      	uxth	r5, r1
    1c60:	05e4      	lsls	r4, r4, #23
    1c62:	432c      	orrs	r4, r5
    1c64:	431c      	orrs	r4, r3
    1c66:	6284      	str	r4, [r0, #40]	; 0x28
    1c68:	24d0      	movs	r4, #208	; 0xd0
    1c6a:	0c0d      	lsrs	r5, r1, #16
    1c6c:	0624      	lsls	r4, r4, #24
    1c6e:	432c      	orrs	r4, r5
    1c70:	431c      	orrs	r4, r3
    1c72:	6284      	str	r4, [r0, #40]	; 0x28
    1c74:	78d4      	ldrb	r4, [r2, #3]
    1c76:	2c00      	cmp	r4, #0
    1c78:	d10a      	bne.n	1c90 <_system_pinmux_config+0x6c>
    1c7a:	035b      	lsls	r3, r3, #13
    1c7c:	d503      	bpl.n	1c86 <_system_pinmux_config+0x62>
    1c7e:	7893      	ldrb	r3, [r2, #2]
    1c80:	2b01      	cmp	r3, #1
    1c82:	d10c      	bne.n	1c9e <_system_pinmux_config+0x7a>
    1c84:	6181      	str	r1, [r0, #24]
    1c86:	7853      	ldrb	r3, [r2, #1]
    1c88:	3b01      	subs	r3, #1
    1c8a:	2b01      	cmp	r3, #1
    1c8c:	d800      	bhi.n	1c90 <_system_pinmux_config+0x6c>
    1c8e:	6081      	str	r1, [r0, #8]
    1c90:	bd30      	pop	{r4, r5, pc}
    1c92:	24c0      	movs	r4, #192	; 0xc0
    1c94:	02e4      	lsls	r4, r4, #11
    1c96:	e7d9      	b.n	1c4c <_system_pinmux_config+0x28>
    1c98:	6041      	str	r1, [r0, #4]
    1c9a:	2300      	movs	r3, #0
    1c9c:	e7de      	b.n	1c5c <_system_pinmux_config+0x38>
    1c9e:	6141      	str	r1, [r0, #20]
    1ca0:	e7f1      	b.n	1c86 <_system_pinmux_config+0x62>
    1ca2:	46c0      	nop			; (mov r8, r8)
    1ca4:	fffbffff 	.word	0xfffbffff

00001ca8 <system_pinmux_pin_set_config>:
    1ca8:	b510      	push	{r4, lr}
    1caa:	0003      	movs	r3, r0
    1cac:	000a      	movs	r2, r1
    1cae:	0944      	lsrs	r4, r0, #5
    1cb0:	09c1      	lsrs	r1, r0, #7
    1cb2:	2000      	movs	r0, #0
    1cb4:	4281      	cmp	r1, r0
    1cb6:	d102      	bne.n	1cbe <system_pinmux_pin_set_config+0x16>
    1cb8:	4904      	ldr	r1, [pc, #16]	; (1ccc <system_pinmux_pin_set_config+0x24>)
    1cba:	01e0      	lsls	r0, r4, #7
    1cbc:	1840      	adds	r0, r0, r1
    1cbe:	211f      	movs	r1, #31
    1cc0:	400b      	ands	r3, r1
    1cc2:	391e      	subs	r1, #30
    1cc4:	4099      	lsls	r1, r3
    1cc6:	4b02      	ldr	r3, [pc, #8]	; (1cd0 <system_pinmux_pin_set_config+0x28>)
    1cc8:	4798      	blx	r3
    1cca:	bd10      	pop	{r4, pc}
    1ccc:	41004400 	.word	0x41004400
    1cd0:	00001c25 	.word	0x00001c25

00001cd4 <_system_dummy_init>:
    1cd4:	4770      	bx	lr
	...

00001cd8 <system_init>:
    1cd8:	b510      	push	{r4, lr}
    1cda:	4b05      	ldr	r3, [pc, #20]	; (1cf0 <system_init+0x18>)
    1cdc:	4798      	blx	r3
    1cde:	4b05      	ldr	r3, [pc, #20]	; (1cf4 <system_init+0x1c>)
    1ce0:	4798      	blx	r3
    1ce2:	4b05      	ldr	r3, [pc, #20]	; (1cf8 <system_init+0x20>)
    1ce4:	4798      	blx	r3
    1ce6:	4b05      	ldr	r3, [pc, #20]	; (1cfc <system_init+0x24>)
    1ce8:	4798      	blx	r3
    1cea:	4b05      	ldr	r3, [pc, #20]	; (1d00 <system_init+0x28>)
    1cec:	4798      	blx	r3
    1cee:	bd10      	pop	{r4, pc}
    1cf0:	0000191d 	.word	0x0000191d
    1cf4:	000011f9 	.word	0x000011f9
    1cf8:	00001cd5 	.word	0x00001cd5
    1cfc:	00001cd5 	.word	0x00001cd5
    1d00:	00001cd5 	.word	0x00001cd5

00001d04 <Dummy_Handler>:
    1d04:	e7fe      	b.n	1d04 <Dummy_Handler>
	...

00001d08 <Reset_Handler>:
    1d08:	4821      	ldr	r0, [pc, #132]	; (1d90 <Reset_Handler+0x88>)
    1d0a:	4922      	ldr	r1, [pc, #136]	; (1d94 <Reset_Handler+0x8c>)
    1d0c:	b570      	push	{r4, r5, r6, lr}
    1d0e:	4288      	cmp	r0, r1
    1d10:	d004      	beq.n	1d1c <Reset_Handler+0x14>
    1d12:	2300      	movs	r3, #0
    1d14:	4c20      	ldr	r4, [pc, #128]	; (1d98 <Reset_Handler+0x90>)
    1d16:	18ca      	adds	r2, r1, r3
    1d18:	42a2      	cmp	r2, r4
    1d1a:	d332      	bcc.n	1d82 <Reset_Handler+0x7a>
    1d1c:	2100      	movs	r1, #0
    1d1e:	4b1f      	ldr	r3, [pc, #124]	; (1d9c <Reset_Handler+0x94>)
    1d20:	4a1f      	ldr	r2, [pc, #124]	; (1da0 <Reset_Handler+0x98>)
    1d22:	4293      	cmp	r3, r2
    1d24:	d331      	bcc.n	1d8a <Reset_Handler+0x82>
    1d26:	21ff      	movs	r1, #255	; 0xff
    1d28:	4b1e      	ldr	r3, [pc, #120]	; (1da4 <Reset_Handler+0x9c>)
    1d2a:	4a1f      	ldr	r2, [pc, #124]	; (1da8 <Reset_Handler+0xa0>)
    1d2c:	438b      	bics	r3, r1
    1d2e:	6093      	str	r3, [r2, #8]
    1d30:	2202      	movs	r2, #2
    1d32:	250c      	movs	r5, #12
    1d34:	2408      	movs	r4, #8
    1d36:	2630      	movs	r6, #48	; 0x30
    1d38:	4b1c      	ldr	r3, [pc, #112]	; (1dac <Reset_Handler+0xa4>)
    1d3a:	481d      	ldr	r0, [pc, #116]	; (1db0 <Reset_Handler+0xa8>)
    1d3c:	625a      	str	r2, [r3, #36]	; 0x24
    1d3e:	78c3      	ldrb	r3, [r0, #3]
    1d40:	39fc      	subs	r1, #252	; 0xfc
    1d42:	438b      	bics	r3, r1
    1d44:	4313      	orrs	r3, r2
    1d46:	70c3      	strb	r3, [r0, #3]
    1d48:	78c3      	ldrb	r3, [r0, #3]
    1d4a:	43ab      	bics	r3, r5
    1d4c:	4323      	orrs	r3, r4
    1d4e:	70c3      	strb	r3, [r0, #3]
    1d50:	4b18      	ldr	r3, [pc, #96]	; (1db4 <Reset_Handler+0xac>)
    1d52:	7b98      	ldrb	r0, [r3, #14]
    1d54:	43b0      	bics	r0, r6
    1d56:	0006      	movs	r6, r0
    1d58:	2020      	movs	r0, #32
    1d5a:	4330      	orrs	r0, r6
    1d5c:	7398      	strb	r0, [r3, #14]
    1d5e:	7b98      	ldrb	r0, [r3, #14]
    1d60:	43a8      	bics	r0, r5
    1d62:	4304      	orrs	r4, r0
    1d64:	739c      	strb	r4, [r3, #14]
    1d66:	7b98      	ldrb	r0, [r3, #14]
    1d68:	4388      	bics	r0, r1
    1d6a:	4302      	orrs	r2, r0
    1d6c:	739a      	strb	r2, [r3, #14]
    1d6e:	2380      	movs	r3, #128	; 0x80
    1d70:	4a11      	ldr	r2, [pc, #68]	; (1db8 <Reset_Handler+0xb0>)
    1d72:	6851      	ldr	r1, [r2, #4]
    1d74:	430b      	orrs	r3, r1
    1d76:	6053      	str	r3, [r2, #4]
    1d78:	4b10      	ldr	r3, [pc, #64]	; (1dbc <Reset_Handler+0xb4>)
    1d7a:	4798      	blx	r3
    1d7c:	4b10      	ldr	r3, [pc, #64]	; (1dc0 <Reset_Handler+0xb8>)
    1d7e:	4798      	blx	r3
    1d80:	e7fe      	b.n	1d80 <Reset_Handler+0x78>
    1d82:	58c5      	ldr	r5, [r0, r3]
    1d84:	3304      	adds	r3, #4
    1d86:	6015      	str	r5, [r2, #0]
    1d88:	e7c5      	b.n	1d16 <Reset_Handler+0xe>
    1d8a:	c302      	stmia	r3!, {r1}
    1d8c:	e7c9      	b.n	1d22 <Reset_Handler+0x1a>
    1d8e:	46c0      	nop			; (mov r8, r8)
    1d90:	00003a74 	.word	0x00003a74
    1d94:	20000000 	.word	0x20000000
    1d98:	20000070 	.word	0x20000070
    1d9c:	20000070 	.word	0x20000070
    1da0:	2000018c 	.word	0x2000018c
    1da4:	00000000 	.word	0x00000000
    1da8:	e000ed00 	.word	0xe000ed00
    1dac:	410070fc 	.word	0x410070fc
    1db0:	41005000 	.word	0x41005000
    1db4:	41004800 	.word	0x41004800
    1db8:	41004000 	.word	0x41004000
    1dbc:	0000258d 	.word	0x0000258d
    1dc0:	00002345 	.word	0x00002345

00001dc4 <_read>:
    1dc4:	b570      	push	{r4, r5, r6, lr}
    1dc6:	000e      	movs	r6, r1
    1dc8:	0014      	movs	r4, r2
    1dca:	0015      	movs	r5, r2
    1dcc:	2800      	cmp	r0, #0
    1dce:	d008      	beq.n	1de2 <_read+0x1e>
    1dd0:	2001      	movs	r0, #1
    1dd2:	4240      	negs	r0, r0
    1dd4:	e00c      	b.n	1df0 <_read+0x2c>
    1dd6:	4b07      	ldr	r3, [pc, #28]	; (1df4 <_read+0x30>)
    1dd8:	3d01      	subs	r5, #1
    1dda:	6818      	ldr	r0, [r3, #0]
    1ddc:	4b06      	ldr	r3, [pc, #24]	; (1df8 <_read+0x34>)
    1dde:	681b      	ldr	r3, [r3, #0]
    1de0:	4798      	blx	r3
    1de2:	1b61      	subs	r1, r4, r5
    1de4:	1871      	adds	r1, r6, r1
    1de6:	2d00      	cmp	r5, #0
    1de8:	dcf5      	bgt.n	1dd6 <_read+0x12>
    1dea:	43e0      	mvns	r0, r4
    1dec:	17c0      	asrs	r0, r0, #31
    1dee:	4020      	ands	r0, r4
    1df0:	bd70      	pop	{r4, r5, r6, pc}
    1df2:	46c0      	nop			; (mov r8, r8)
    1df4:	20000100 	.word	0x20000100
    1df8:	200000f8 	.word	0x200000f8

00001dfc <_write>:
    1dfc:	3801      	subs	r0, #1
    1dfe:	b570      	push	{r4, r5, r6, lr}
    1e00:	000e      	movs	r6, r1
    1e02:	2802      	cmp	r0, #2
    1e04:	d80d      	bhi.n	1e22 <_write+0x26>
    1e06:	000c      	movs	r4, r1
    1e08:	188d      	adds	r5, r1, r2
    1e0a:	1ba0      	subs	r0, r4, r6
    1e0c:	42ac      	cmp	r4, r5
    1e0e:	d00a      	beq.n	1e26 <_write+0x2a>
    1e10:	4b05      	ldr	r3, [pc, #20]	; (1e28 <_write+0x2c>)
    1e12:	7821      	ldrb	r1, [r4, #0]
    1e14:	6818      	ldr	r0, [r3, #0]
    1e16:	4b05      	ldr	r3, [pc, #20]	; (1e2c <_write+0x30>)
    1e18:	3401      	adds	r4, #1
    1e1a:	681b      	ldr	r3, [r3, #0]
    1e1c:	4798      	blx	r3
    1e1e:	2800      	cmp	r0, #0
    1e20:	daf3      	bge.n	1e0a <_write+0xe>
    1e22:	2001      	movs	r0, #1
    1e24:	4240      	negs	r0, r0
    1e26:	bd70      	pop	{r4, r5, r6, pc}
    1e28:	20000100 	.word	0x20000100
    1e2c:	200000fc 	.word	0x200000fc

00001e30 <_sbrk>:
    1e30:	4b05      	ldr	r3, [pc, #20]	; (1e48 <_sbrk+0x18>)
    1e32:	0002      	movs	r2, r0
    1e34:	6819      	ldr	r1, [r3, #0]
    1e36:	2900      	cmp	r1, #0
    1e38:	d101      	bne.n	1e3e <_sbrk+0xe>
    1e3a:	4904      	ldr	r1, [pc, #16]	; (1e4c <_sbrk+0x1c>)
    1e3c:	6019      	str	r1, [r3, #0]
    1e3e:	6818      	ldr	r0, [r3, #0]
    1e40:	1882      	adds	r2, r0, r2
    1e42:	601a      	str	r2, [r3, #0]
    1e44:	4770      	bx	lr
    1e46:	46c0      	nop			; (mov r8, r8)
    1e48:	200000d0 	.word	0x200000d0
    1e4c:	20002190 	.word	0x20002190

00001e50 <_close>:
    1e50:	2001      	movs	r0, #1
    1e52:	4240      	negs	r0, r0
    1e54:	4770      	bx	lr

00001e56 <_fstat>:
    1e56:	2380      	movs	r3, #128	; 0x80
    1e58:	019b      	lsls	r3, r3, #6
    1e5a:	2000      	movs	r0, #0
    1e5c:	604b      	str	r3, [r1, #4]
    1e5e:	4770      	bx	lr

00001e60 <_isatty>:
    1e60:	2001      	movs	r0, #1
    1e62:	4770      	bx	lr

00001e64 <_lseek>:
    1e64:	2000      	movs	r0, #0
    1e66:	4770      	bx	lr

00001e68 <update_boot_status>:

fw_status_t *boot_status; /// global boot_status


static void update_boot_status(uint16_t fw_version)
{
    1e68:	b5f0      	push	{r4, r5, r6, r7, lr}
    1e6a:	b0c5      	sub	sp, #276	; 0x114
    1e6c:	0006      	movs	r6, r0
	enum status_code read_nvm_code;
	fw_status_t new_boot_status = { .signature = { 0xAB, 0xAC, 0xAB }, .new_image_ready = 0, .bl_version = VERSION, .fw_version = fw_version};
	
	struct nvm_parameters nvm_information;
	nvm_get_parameters(&nvm_information);
    1e6e:	4b21      	ldr	r3, [pc, #132]	; (1ef4 <update_boot_status+0x8c>)
    1e70:	a801      	add	r0, sp, #4
    1e72:	24fc      	movs	r4, #252	; 0xfc
	int row_to_erase = page_to_write / NVMCTRL_ROW_PAGES;
	uint8_t page_offset = page_to_write - (row_to_erase * NVMCTRL_ROW_PAGES);
	int row_address = row_to_erase * NVMCTRL_ROW_SIZE;
	uint8_t row_buffer[NVMCTRL_ROW_SIZE];

	for (int i = 0; i < NVMCTRL_ROW_PAGES; i++) {
    1e74:	2780      	movs	r7, #128	; 0x80
	nvm_get_parameters(&nvm_information);
    1e76:	4798      	blx	r3
    1e78:	01a4      	lsls	r4, r4, #6
	for (int i = 0; i < NVMCTRL_ROW_PAGES; i++) {
    1e7a:	01ff      	lsls	r7, r7, #7
		int offset = i * NVMCTRL_PAGE_SIZE;
		do
		read_nvm_code = nvm_read_buffer(row_address + offset, row_buffer + offset, NVMCTRL_PAGE_SIZE);
    1e7c:	4b1e      	ldr	r3, [pc, #120]	; (1ef8 <update_boot_status+0x90>)
    1e7e:	18e5      	adds	r5, r4, r3
    1e80:	ab04      	add	r3, sp, #16
    1e82:	195d      	adds	r5, r3, r5
    1e84:	2240      	movs	r2, #64	; 0x40
    1e86:	0029      	movs	r1, r5
    1e88:	0020      	movs	r0, r4
    1e8a:	4b1c      	ldr	r3, [pc, #112]	; (1efc <update_boot_status+0x94>)
    1e8c:	4798      	blx	r3
		while (STATUS_OK != read_nvm_code);
    1e8e:	2800      	cmp	r0, #0
    1e90:	d1f8      	bne.n	1e84 <update_boot_status+0x1c>
    1e92:	3440      	adds	r4, #64	; 0x40
	for (int i = 0; i < NVMCTRL_ROW_PAGES; i++) {
    1e94:	42bc      	cmp	r4, r7
    1e96:	d1f1      	bne.n	1e7c <update_boot_status+0x14>
	}

	do
	read_nvm_code = nvm_erase_row(row_address);
    1e98:	24fc      	movs	r4, #252	; 0xfc
    1e9a:	01a4      	lsls	r4, r4, #6
    1e9c:	0020      	movs	r0, r4
    1e9e:	4b18      	ldr	r3, [pc, #96]	; (1f00 <update_boot_status+0x98>)
    1ea0:	4798      	blx	r3
	while (STATUS_OK != read_nvm_code);
    1ea2:	2800      	cmp	r0, #0
    1ea4:	d1fa      	bne.n	1e9c <update_boot_status+0x34>

	memcpy(row_buffer + (page_offset * NVMCTRL_PAGE_SIZE), &new_boot_status, sizeof(fw_status_t));
    1ea6:	23ab      	movs	r3, #171	; 0xab
    1ea8:	aa34      	add	r2, sp, #208	; 0xd0
    1eaa:	7013      	strb	r3, [r2, #0]
    1eac:	22d1      	movs	r2, #209	; 0xd1
    1eae:	21ac      	movs	r1, #172	; 0xac
    1eb0:	446a      	add	r2, sp
    1eb2:	7011      	strb	r1, [r2, #0]
    1eb4:	22d2      	movs	r2, #210	; 0xd2
    1eb6:	446a      	add	r2, sp
    1eb8:	7013      	strb	r3, [r2, #0]
    1eba:	3328      	adds	r3, #40	; 0x28
    1ebc:	446b      	add	r3, sp
    1ebe:	7018      	strb	r0, [r3, #0]
    1ec0:	ab35      	add	r3, sp, #212	; 0xd4
    1ec2:	8018      	strh	r0, [r3, #0]
    1ec4:	23d6      	movs	r3, #214	; 0xd6
    1ec6:	446b      	add	r3, sp
    1ec8:	801e      	strh	r6, [r3, #0]
    1eca:	24fc      	movs	r4, #252	; 0xfc

	for (int i = 0; i < NVMCTRL_ROW_PAGES; i++) {
    1ecc:	2680      	movs	r6, #128	; 0x80
	memcpy(row_buffer + (page_offset * NVMCTRL_PAGE_SIZE), &new_boot_status, sizeof(fw_status_t));
    1ece:	01a4      	lsls	r4, r4, #6
	for (int i = 0; i < NVMCTRL_ROW_PAGES; i++) {
    1ed0:	01f6      	lsls	r6, r6, #7
		int offset = i * NVMCTRL_PAGE_SIZE;
		do
		read_nvm_code = nvm_write_buffer(row_address + offset, row_buffer + offset, NVMCTRL_PAGE_SIZE);
    1ed2:	4b09      	ldr	r3, [pc, #36]	; (1ef8 <update_boot_status+0x90>)
    1ed4:	18e5      	adds	r5, r4, r3
    1ed6:	ab04      	add	r3, sp, #16
    1ed8:	195d      	adds	r5, r3, r5
    1eda:	2240      	movs	r2, #64	; 0x40
    1edc:	0029      	movs	r1, r5
    1ede:	0020      	movs	r0, r4
    1ee0:	4b08      	ldr	r3, [pc, #32]	; (1f04 <update_boot_status+0x9c>)
    1ee2:	4798      	blx	r3
		while (STATUS_OK != read_nvm_code);
    1ee4:	2800      	cmp	r0, #0
    1ee6:	d1f8      	bne.n	1eda <update_boot_status+0x72>
    1ee8:	3440      	adds	r4, #64	; 0x40
	for (int i = 0; i < NVMCTRL_ROW_PAGES; i++) {
    1eea:	42b4      	cmp	r4, r6
    1eec:	d1f1      	bne.n	1ed2 <update_boot_status+0x6a>
	}
	
}
    1eee:	b045      	add	sp, #276	; 0x114
    1ef0:	bdf0      	pop	{r4, r5, r6, r7, pc}
    1ef2:	46c0      	nop			; (mov r8, r8)
    1ef4:	000008e9 	.word	0x000008e9
    1ef8:	ffffc100 	.word	0xffffc100
    1efc:	00000821 	.word	0x00000821
    1f00:	00000889 	.word	0x00000889
    1f04:	00000785 	.word	0x00000785

00001f08 <spi_disable.constprop.2>:
 *
 * This function will disable the SERCOM SPI module.
 *
 * \param[in,out] module  Pointer to the software instance struct
 */
static inline void spi_disable(
    1f08:	b570      	push	{r4, r5, r6, lr}
{
	/* Sanity check arguments */
	Assert(module);
	Assert(module->hw);

	SercomSpi *const spi_module = &(module->hw->SPI);
    1f0a:	4d0b      	ldr	r5, [pc, #44]	; (1f38 <spi_disable.constprop.2+0x30>)

#  if SPI_CALLBACK_MODE == true
	system_interrupt_disable(_sercom_get_interrupt_vector(module->hw));
    1f0c:	4b0b      	ldr	r3, [pc, #44]	; (1f3c <spi_disable.constprop.2+0x34>)
	SercomSpi *const spi_module = &(module->hw->SPI);
    1f0e:	682c      	ldr	r4, [r5, #0]
	system_interrupt_disable(_sercom_get_interrupt_vector(module->hw));
    1f10:	0020      	movs	r0, r4
    1f12:	4798      	blx	r3
 * \param[in] vector  Interrupt vector to disable
 */
static inline void system_interrupt_disable(
		const enum system_interrupt_vector vector)
{
	NVIC->ICER[0] = (uint32_t)(1 << ((uint32_t)vector & 0x0000001f));
    1f14:	231f      	movs	r3, #31
    1f16:	4018      	ands	r0, r3
    1f18:	3b1e      	subs	r3, #30
    1f1a:	4083      	lsls	r3, r0
    1f1c:	4a08      	ldr	r2, [pc, #32]	; (1f40 <spi_disable.constprop.2+0x38>)
    1f1e:	67d3      	str	r3, [r2, #124]	; 0x7c
	SercomSpi *const spi_module = &(module->hw->SPI);
    1f20:	682a      	ldr	r2, [r5, #0]
	return (spi_module->SYNCBUSY.reg);
    1f22:	69d3      	ldr	r3, [r2, #28]
#  endif

	while (spi_is_syncing(module)) {
    1f24:	2b00      	cmp	r3, #0
    1f26:	d1fc      	bne.n	1f22 <spi_disable.constprop.2+0x1a>
	spi_module->INTENCLR.reg = SERCOM_SPI_INTENCLR_MASK;
	/* Clear interrupt flag */
	spi_module->INTFLAG.reg = SERCOM_SPI_INTFLAG_MASK;

	/* Disable SPI */
	spi_module->CTRLA.reg &= ~SERCOM_SPI_CTRLA_ENABLE;
    1f28:	2202      	movs	r2, #2
	spi_module->INTENCLR.reg = SERCOM_SPI_INTENCLR_MASK;
    1f2a:	338f      	adds	r3, #143	; 0x8f
    1f2c:	7523      	strb	r3, [r4, #20]
	spi_module->INTFLAG.reg = SERCOM_SPI_INTFLAG_MASK;
    1f2e:	7623      	strb	r3, [r4, #24]
	spi_module->CTRLA.reg &= ~SERCOM_SPI_CTRLA_ENABLE;
    1f30:	6823      	ldr	r3, [r4, #0]
    1f32:	4393      	bics	r3, r2
    1f34:	6023      	str	r3, [r4, #0]
}
    1f36:	bd70      	pop	{r4, r5, r6, pc}
    1f38:	2000014c 	.word	0x2000014c
    1f3c:	0000114d 	.word	0x0000114d
    1f40:	e000e104 	.word	0xe000e104

00001f44 <create_version_string>:
 * helper function to create version info string for print
 * @param buffer  char array to write to
 * @param version version bytestream
 */
static void create_version_string(char *buffer, uint16_t version)
{
    1f44:	b510      	push	{r4, lr}
	uint8_t major_version = MAJOR_VERSION(version);
    1f46:	240f      	movs	r4, #15
    1f48:	120a      	asrs	r2, r1, #8
	uint8_t minor_version = MINOR_VERSION(version);
    1f4a:	110b      	asrs	r3, r1, #4
	uint8_t major_version = MAJOR_VERSION(version);
    1f4c:	4022      	ands	r2, r4
	uint8_t minor_version = MINOR_VERSION(version);
    1f4e:	4023      	ands	r3, r4
	uint8_t revision_version = REVISION_VERSION(version);
    1f50:	4021      	ands	r1, r4
	if (value < 10) {
    1f52:	2a09      	cmp	r2, #9
    1f54:	d816      	bhi.n	1f84 <create_version_string+0x40>
		buffer[1] = (char)(value + 48);
    1f56:	3230      	adds	r2, #48	; 0x30
    1f58:	7042      	strb	r2, [r0, #1]
		buffer[0] = '0';
    1f5a:	2230      	movs	r2, #48	; 0x30
		buffer[0] = '1';
    1f5c:	7002      	strb	r2, [r0, #0]

	get_version_digits(buffer, major_version);
	buffer[2] = '.';
    1f5e:	222e      	movs	r2, #46	; 0x2e
    1f60:	7082      	strb	r2, [r0, #2]
	if (value < 10) {
    1f62:	2b09      	cmp	r3, #9
    1f64:	d812      	bhi.n	1f8c <create_version_string+0x48>
		buffer[1] = (char)(value + 48);
    1f66:	3330      	adds	r3, #48	; 0x30
    1f68:	7103      	strb	r3, [r0, #4]
		buffer[0] = '0';
    1f6a:	2330      	movs	r3, #48	; 0x30
		buffer[0] = '1';
    1f6c:	70c3      	strb	r3, [r0, #3]
	get_version_digits(&buffer[3], minor_version);
	buffer[5] = '.';
    1f6e:	232e      	movs	r3, #46	; 0x2e
    1f70:	7143      	strb	r3, [r0, #5]
	if (value < 10) {
    1f72:	2909      	cmp	r1, #9
    1f74:	d80e      	bhi.n	1f94 <create_version_string+0x50>
		buffer[1] = (char)(value + 48);
    1f76:	3130      	adds	r1, #48	; 0x30
    1f78:	71c1      	strb	r1, [r0, #7]
		buffer[0] = '0';
    1f7a:	3302      	adds	r3, #2
		buffer[0] = '1';
    1f7c:	7183      	strb	r3, [r0, #6]
	get_version_digits(&buffer[6], revision_version);
	buffer[8] = '\0';
    1f7e:	2300      	movs	r3, #0
    1f80:	7203      	strb	r3, [r0, #8]
}
    1f82:	bd10      	pop	{r4, pc}
		buffer[1] = (char)(value - 10 + 48);
    1f84:	3226      	adds	r2, #38	; 0x26
    1f86:	7042      	strb	r2, [r0, #1]
		buffer[0] = '1';
    1f88:	2231      	movs	r2, #49	; 0x31
    1f8a:	e7e7      	b.n	1f5c <create_version_string+0x18>
		buffer[1] = (char)(value - 10 + 48);
    1f8c:	3326      	adds	r3, #38	; 0x26
    1f8e:	7103      	strb	r3, [r0, #4]
		buffer[0] = '1';
    1f90:	2331      	movs	r3, #49	; 0x31
    1f92:	e7eb      	b.n	1f6c <create_version_string+0x28>
		buffer[1] = (char)(value - 10 + 48);
    1f94:	3126      	adds	r1, #38	; 0x26
    1f96:	71c1      	strb	r1, [r0, #7]
		buffer[0] = '1';
    1f98:	2331      	movs	r3, #49	; 0x31
    1f9a:	e7ef      	b.n	1f7c <create_version_string+0x38>

00001f9c <configure_port_pins>:
	config->direction  = PORT_PIN_DIR_INPUT;
    1f9c:	2300      	movs	r3, #0
{
    1f9e:	b507      	push	{r0, r1, r2, lr}
	config->input_pull = PORT_PIN_PULL_UP;
    1fa0:	2201      	movs	r2, #1
	config->direction  = PORT_PIN_DIR_INPUT;
    1fa2:	a901      	add	r1, sp, #4
    1fa4:	700b      	strb	r3, [r1, #0]
	config->powersave  = false;
    1fa6:	708b      	strb	r3, [r1, #2]
	port_pin_set_config(PIN_PB23, &config_port_pin);
    1fa8:	2037      	movs	r0, #55	; 0x37
    1faa:	4b02      	ldr	r3, [pc, #8]	; (1fb4 <configure_port_pins+0x18>)
	config->input_pull = PORT_PIN_PULL_UP;
    1fac:	704a      	strb	r2, [r1, #1]
    1fae:	4798      	blx	r3
}
    1fb0:	bd07      	pop	{r0, r1, r2, pc}
    1fb2:	46c0      	nop			; (mov r8, r8)
    1fb4:	000011d9 	.word	0x000011d9

00001fb8 <verify_flash>:
{
    1fb8:	b5f0      	push	{r4, r5, r6, r7, lr}
	crc32_t flash_checksum = 0;
    1fba:	2400      	movs	r4, #0
	uint remaining_bytes = fw_size % NVMCTRL_PAGE_SIZE;
    1fbc:	253f      	movs	r5, #63	; 0x3f
{
    1fbe:	0007      	movs	r7, r0
    1fc0:	b095      	sub	sp, #84	; 0x54
	uint num_pages = fw_size / NVMCTRL_PAGE_SIZE;
    1fc2:	098b      	lsrs	r3, r1, #6
	crc32_t flash_checksum = 0;
    1fc4:	9403      	str	r4, [sp, #12]
	uint remaining_bytes = fw_size % NVMCTRL_PAGE_SIZE;
    1fc6:	400d      	ands	r5, r1
	uint num_pages = fw_size / NVMCTRL_PAGE_SIZE;
    1fc8:	9301      	str	r3, [sp, #4]
	for (int i = 0; i < num_pages; i++) {
    1fca:	9b01      	ldr	r3, [sp, #4]
    1fcc:	429c      	cmp	r4, r3
    1fce:	d120      	bne.n	2012 <STACK_SIZE+0x12>
		nvm_read_code = nvm_read_buffer(APP_START_ADDRESS + (num_pages * NVMCTRL_PAGE_SIZE), nvm_page_buffer, remaining_bytes);
    1fd0:	2380      	movs	r3, #128	; 0x80
    1fd2:	01a4      	lsls	r4, r4, #6
    1fd4:	01db      	lsls	r3, r3, #7
    1fd6:	18e6      	adds	r6, r4, r3
    1fd8:	b2aa      	uxth	r2, r5
    1fda:	a904      	add	r1, sp, #16
    1fdc:	0030      	movs	r0, r6
    1fde:	4b15      	ldr	r3, [pc, #84]	; (2034 <STACK_SIZE+0x34>)
    1fe0:	4798      	blx	r3
	while (STATUS_OK != nvm_read_code);
    1fe2:	2800      	cmp	r0, #0
    1fe4:	d1f8      	bne.n	1fd8 <verify_flash+0x20>
	crc32_recalculate(nvm_page_buffer, remaining_bytes, &flash_checksum);
    1fe6:	aa03      	add	r2, sp, #12
    1fe8:	4b13      	ldr	r3, [pc, #76]	; (2038 <STACK_SIZE+0x38>)
    1fea:	0029      	movs	r1, r5
    1fec:	a804      	add	r0, sp, #16
    1fee:	4798      	blx	r3
	num_bytes_used_for_crc += remaining_bytes;
    1ff0:	1929      	adds	r1, r5, r4
	printf("verify_flash: num bytes cycled: %d\r\n", num_bytes_used_for_crc);
    1ff2:	4812      	ldr	r0, [pc, #72]	; (203c <STACK_SIZE+0x3c>)
    1ff4:	4c12      	ldr	r4, [pc, #72]	; (2040 <STACK_SIZE+0x40>)
    1ff6:	47a0      	blx	r4
	printf("verify_flash: calculated crc val: %04x\r\n", flash_checksum);
    1ff8:	9903      	ldr	r1, [sp, #12]
    1ffa:	4812      	ldr	r0, [pc, #72]	; (2044 <STACK_SIZE+0x44>)
    1ffc:	47a0      	blx	r4
	printf("verify_flash: known checksum: %04x\r\n", known_checksum);
    1ffe:	0039      	movs	r1, r7
    2000:	4811      	ldr	r0, [pc, #68]	; (2048 <STACK_SIZE+0x48>)
    2002:	47a0      	blx	r4
	return flash_checksum == known_checksum;
    2004:	9b03      	ldr	r3, [sp, #12]
    2006:	1bdf      	subs	r7, r3, r7
    2008:	4278      	negs	r0, r7
    200a:	4178      	adcs	r0, r7
    200c:	b2c0      	uxtb	r0, r0
}
    200e:	b015      	add	sp, #84	; 0x54
    2010:	bdf0      	pop	{r4, r5, r6, r7, pc}
    2012:	1c66      	adds	r6, r4, #1
    2014:	36ff      	adds	r6, #255	; 0xff
    2016:	01b6      	lsls	r6, r6, #6
			nvm_read_code = nvm_read_buffer(APP_START_ADDRESS + offset, nvm_page_buffer, NVMCTRL_PAGE_SIZE);
    2018:	2240      	movs	r2, #64	; 0x40
    201a:	a904      	add	r1, sp, #16
    201c:	0030      	movs	r0, r6
    201e:	4b05      	ldr	r3, [pc, #20]	; (2034 <STACK_SIZE+0x34>)
    2020:	4798      	blx	r3
		while (STATUS_OK != nvm_read_code);
    2022:	2800      	cmp	r0, #0
    2024:	d1f8      	bne.n	2018 <STACK_SIZE+0x18>
		crc32_recalculate(nvm_page_buffer, NVMCTRL_PAGE_SIZE, &flash_checksum);
    2026:	aa03      	add	r2, sp, #12
    2028:	2140      	movs	r1, #64	; 0x40
    202a:	a804      	add	r0, sp, #16
    202c:	4b02      	ldr	r3, [pc, #8]	; (2038 <STACK_SIZE+0x38>)
    202e:	4798      	blx	r3
	for (int i = 0; i < num_pages; i++) {
    2030:	3401      	adds	r4, #1
    2032:	e7ca      	b.n	1fca <verify_flash+0x12>
    2034:	00000821 	.word	0x00000821
    2038:	000005c1 	.word	0x000005c1
    203c:	00003949 	.word	0x00003949
    2040:	000025e5 	.word	0x000025e5
    2044:	0000396e 	.word	0x0000396e
    2048:	00003997 	.word	0x00003997

0000204c <flash_image>:

bool flash_image(uint32_t firmware_address, fw_header_t new_firmware_header)
{
    204c:	b5f0      	push	{r4, r5, r6, r7, lr}
    204e:	b095      	sub	sp, #84	; 0x54
    2050:	9202      	str	r2, [sp, #8]
    2052:	001c      	movs	r4, r3
#endif
	enum status_code flash_chip_status;
	uint32_t new_fw_size = new_firmware_header.size;

	//Erase NVM in preparation for flashing
	uint num_rows_to_erase = (new_fw_size % NVMCTRL_ROW_SIZE == 0) ? (new_fw_size / NVMCTRL_ROW_SIZE) : ((new_fw_size / NVMCTRL_ROW_SIZE) + 1);
    2054:	b2da      	uxtb	r2, r3
    2056:	0a1b      	lsrs	r3, r3, #8
{
    2058:	0006      	movs	r6, r0
	uint num_rows_to_erase = (new_fw_size % NVMCTRL_ROW_SIZE == 0) ? (new_fw_size / NVMCTRL_ROW_SIZE) : ((new_fw_size / NVMCTRL_ROW_SIZE) + 1);
    205a:	1c5f      	adds	r7, r3, #1
    205c:	2a00      	cmp	r2, #0
    205e:	d100      	bne.n	2062 <flash_image+0x16>
    2060:	001f      	movs	r7, r3
	for (int i = 0; i < num_rows_to_erase; i++) {
    2062:	2500      	movs	r5, #0
    2064:	42bd      	cmp	r5, r7
    2066:	d12a      	bne.n	20be <flash_image+0x72>
	uint32_t num_bytes_written = 0;
    2068:	2500      	movs	r5, #0
		while (STATUS_OK != flash_chip_status);
	}

	uint8_t page_write_buffer[NVMCTRL_PAGE_SIZE];
	uint remaining_bytes = new_fw_size % NVMCTRL_PAGE_SIZE;
	uint num_pages_to_write = new_fw_size / NVMCTRL_PAGE_SIZE;
    206a:	09a3      	lsrs	r3, r4, #6
    206c:	019b      	lsls	r3, r3, #6
    206e:	9300      	str	r3, [sp, #0]
	for (int i = 0; i < num_pages_to_write; i++) {
    2070:	9b00      	ldr	r3, [sp, #0]
    2072:	429d      	cmp	r5, r3
    2074:	d12e      	bne.n	20d4 <flash_image+0x88>
	uint remaining_bytes = new_fw_size % NVMCTRL_PAGE_SIZE;
    2076:	233f      	movs	r3, #63	; 0x3f
    2078:	0022      	movs	r2, r4
    207a:	401a      	ands	r2, r3
    207c:	9200      	str	r2, [sp, #0]
#if DEBUG_LEVEL >= 1
		num_bytes_written += NVMCTRL_PAGE_SIZE;
#endif
	}
	//NOW do remaining bytes
	flash_chip_status = at25dfx_chip_read_buffer(&at25dfx_chip, firmware_address + (num_pages_to_write * NVMCTRL_PAGE_SIZE), page_write_buffer, remaining_bytes);
    207e:	466a      	mov	r2, sp
    2080:	0021      	movs	r1, r4
    2082:	8817      	ldrh	r7, [r2, #0]
    2084:	4399      	bics	r1, r3
    2086:	1989      	adds	r1, r1, r6
    2088:	003b      	movs	r3, r7
    208a:	aa04      	add	r2, sp, #16
    208c:	481d      	ldr	r0, [pc, #116]	; (2104 <flash_image+0xb8>)
    208e:	4e1e      	ldr	r6, [pc, #120]	; (2108 <flash_image+0xbc>)
    2090:	47b0      	blx	r6
	if (STATUS_OK != flash_chip_status) {
    2092:	2800      	cmp	r0, #0
    2094:	d126      	bne.n	20e4 <flash_image+0x98>
		printf("error fetching data from external flash!\r\n");
		return;
	}
	do
		flash_chip_status = nvm_write_buffer(APP_START_ADDRESS + (NVMCTRL_PAGE_SIZE * num_pages_to_write), page_write_buffer, remaining_bytes);
    2096:	2380      	movs	r3, #128	; 0x80
    2098:	01db      	lsls	r3, r3, #7
    209a:	18ee      	adds	r6, r5, r3
    209c:	003a      	movs	r2, r7
    209e:	a904      	add	r1, sp, #16
    20a0:	0030      	movs	r0, r6
    20a2:	4b1a      	ldr	r3, [pc, #104]	; (210c <flash_image+0xc0>)
    20a4:	4798      	blx	r3
	while (STATUS_OK != flash_chip_status);
    20a6:	2800      	cmp	r0, #0
    20a8:	d1f8      	bne.n	209c <flash_image+0x50>

#if DEBUG_LEVEL >= 1
	num_bytes_written += remaining_bytes;
    20aa:	9b00      	ldr	r3, [sp, #0]
	printf("flash_image: number of bytes flashed: %d\r\n", num_bytes_written);
    20ac:	4818      	ldr	r0, [pc, #96]	; (2110 <flash_image+0xc4>)
	num_bytes_written += remaining_bytes;
    20ae:	18e9      	adds	r1, r5, r3
	printf("flash_image: number of bytes flashed: %d\r\n", num_bytes_written);
    20b0:	4b18      	ldr	r3, [pc, #96]	; (2114 <flash_image+0xc8>)
    20b2:	4798      	blx	r3
#endif


	return verify_flash(new_firmware_header.checksum, new_firmware_header.size);
    20b4:	0021      	movs	r1, r4
    20b6:	9802      	ldr	r0, [sp, #8]
    20b8:	4b17      	ldr	r3, [pc, #92]	; (2118 <flash_image+0xcc>)
    20ba:	4798      	blx	r3
    20bc:	e015      	b.n	20ea <flash_image+0x9e>
    20be:	002b      	movs	r3, r5
    20c0:	3340      	adds	r3, #64	; 0x40
    20c2:	021b      	lsls	r3, r3, #8
    20c4:	9300      	str	r3, [sp, #0]
			flash_chip_status = nvm_erase_row(APP_START_ADDRESS + offset);
    20c6:	9800      	ldr	r0, [sp, #0]
    20c8:	4b14      	ldr	r3, [pc, #80]	; (211c <flash_image+0xd0>)
    20ca:	4798      	blx	r3
		while (STATUS_OK != flash_chip_status);
    20cc:	2800      	cmp	r0, #0
    20ce:	d1fa      	bne.n	20c6 <flash_image+0x7a>
	for (int i = 0; i < num_rows_to_erase; i++) {
    20d0:	3501      	adds	r5, #1
    20d2:	e7c7      	b.n	2064 <flash_image+0x18>
		flash_chip_status = at25dfx_chip_read_buffer(&at25dfx_chip, firmware_address + offset, page_write_buffer, NVMCTRL_PAGE_SIZE);
    20d4:	19a9      	adds	r1, r5, r6
    20d6:	2340      	movs	r3, #64	; 0x40
    20d8:	aa04      	add	r2, sp, #16
    20da:	480a      	ldr	r0, [pc, #40]	; (2104 <flash_image+0xb8>)
    20dc:	4f0a      	ldr	r7, [pc, #40]	; (2108 <flash_image+0xbc>)
    20de:	47b8      	blx	r7
		if (STATUS_OK != flash_chip_status) {
    20e0:	2800      	cmp	r0, #0
    20e2:	d004      	beq.n	20ee <flash_image+0xa2>
			printf("error fetching data from external flash!\r\n");
    20e4:	480e      	ldr	r0, [pc, #56]	; (2120 <flash_image+0xd4>)
    20e6:	4b0f      	ldr	r3, [pc, #60]	; (2124 <flash_image+0xd8>)
    20e8:	4798      	blx	r3
}
    20ea:	b015      	add	sp, #84	; 0x54
    20ec:	bdf0      	pop	{r4, r5, r6, r7, pc}
			flash_chip_status = nvm_write_buffer(APP_START_ADDRESS + offset, page_write_buffer, NVMCTRL_PAGE_SIZE);
    20ee:	2380      	movs	r3, #128	; 0x80
    20f0:	01db      	lsls	r3, r3, #7
    20f2:	18e8      	adds	r0, r5, r3
    20f4:	2240      	movs	r2, #64	; 0x40
    20f6:	a904      	add	r1, sp, #16
    20f8:	4b04      	ldr	r3, [pc, #16]	; (210c <flash_image+0xc0>)
    20fa:	4798      	blx	r3
		while (STATUS_OK != flash_chip_status);
    20fc:	2800      	cmp	r0, #0
    20fe:	d1f6      	bne.n	20ee <flash_image+0xa2>
		num_bytes_written += NVMCTRL_PAGE_SIZE;
    2100:	3540      	adds	r5, #64	; 0x40
    2102:	e7b5      	b.n	2070 <flash_image+0x24>
    2104:	20000140 	.word	0x20000140
    2108:	000004ad 	.word	0x000004ad
    210c:	00000785 	.word	0x00000785
    2110:	0000372e 	.word	0x0000372e
    2114:	000025e5 	.word	0x000025e5
    2118:	00001fb9 	.word	0x00001fb9
    211c:	00000889 	.word	0x00000889
    2120:	00003704 	.word	0x00003704
    2124:	000026d9 	.word	0x000026d9

00002128 <run_application>:

/**
 * function to jump to application code
 */
void run_application()
{
    2128:	b5b0      	push	{r4, r5, r7, lr}
	/* Sanity check arguments */
	Assert(module);
	Assert(module->hw);

	/* Get a pointer to the hardware module instance */
	SercomUsart *const usart_hw = &(module->hw->USART);
    212a:	4d10      	ldr	r5, [pc, #64]	; (216c <run_application+0x44>)

#if USART_CALLBACK_MODE == true
	/* Disable Global interrupt for module */
	system_interrupt_disable(_sercom_get_interrupt_vector(module->hw));
    212c:	4b10      	ldr	r3, [pc, #64]	; (2170 <run_application+0x48>)
	SercomUsart *const usart_hw = &(module->hw->USART);
    212e:	682c      	ldr	r4, [r5, #0]
    2130:	af00      	add	r7, sp, #0
	system_interrupt_disable(_sercom_get_interrupt_vector(module->hw));
    2132:	0020      	movs	r0, r4
    2134:	4798      	blx	r3
    2136:	231f      	movs	r3, #31
    2138:	4018      	ands	r0, r3
    213a:	3b1e      	subs	r3, #30
    213c:	4083      	lsls	r3, r0
    213e:	4a0d      	ldr	r2, [pc, #52]	; (2174 <run_application+0x4c>)
    2140:	67d3      	str	r3, [r2, #124]	; 0x7c
	SercomUsart *const usart_hw = &(module->hw->USART);
    2142:	682a      	ldr	r2, [r5, #0]
	return (usart_hw->SYNCBUSY.reg);
    2144:	69d3      	ldr	r3, [r2, #28]
	while (usart_is_syncing(module)) {
    2146:	2b00      	cmp	r3, #0
    2148:	d1fc      	bne.n	2144 <run_application+0x1c>

	/* Wait until synchronization is complete */
	_usart_wait_for_sync(module);

	/* Disable USART module */
	usart_hw->CTRLA.reg &= ~SERCOM_USART_CTRLA_ENABLE;
    214a:	2202      	movs	r2, #2
    214c:	6823      	ldr	r3, [r4, #0]
    214e:	4393      	bics	r3, r2
    2150:	6023      	str	r3, [r4, #0]
	usart_disable(&usart_instance);
	/* Pointer to the Application Section */
	void (*application_code_entry)(void);
	/* Rebase the Stack Pointer */
	__set_MSP(*(uint32_t *)APP_START_ADDRESS);
    2152:	2380      	movs	r3, #128	; 0x80
    2154:	01db      	lsls	r3, r3, #7

    \param [in]    topOfMainStack  Main Stack Pointer value to set
 */
__attribute__( ( always_inline ) ) __STATIC_INLINE void __set_MSP(uint32_t topOfMainStack)
{
  __ASM volatile ("MSR msp, %0\n" : : "r" (topOfMainStack) : "sp");
    2156:	681a      	ldr	r2, [r3, #0]
    2158:	f382 8808 	msr	MSP, r2
	/* Rebase the vector table base address TODO: use RAM */
	SCB->VTOR = ((uint32_t)APP_START_ADDRESS & SCB_VTOR_TBLOFF_Msk);
    215c:	4a06      	ldr	r2, [pc, #24]	; (2178 <run_application+0x50>)
    215e:	6093      	str	r3, [r2, #8]
	/* Load the Reset Handler address of the application */
	application_code_entry = (void (*)(void))(unsigned *)(*(unsigned *)(APP_START_ADDRESS + 4));
    2160:	4b06      	ldr	r3, [pc, #24]	; (217c <run_application+0x54>)
	/* Jump to user Reset Handler in the application */
	application_code_entry();
    2162:	681b      	ldr	r3, [r3, #0]
    2164:	4798      	blx	r3
}
    2166:	46bd      	mov	sp, r7
    2168:	bdb0      	pop	{r4, r5, r7, pc}
    216a:	46c0      	nop			; (mov r8, r8)
    216c:	20000104 	.word	0x20000104
    2170:	0000114d 	.word	0x0000114d
    2174:	e000e104 	.word	0xe000e104
    2178:	e000ed00 	.word	0xe000ed00
    217c:	00004004 	.word	0x00004004

00002180 <run_bootloader>:

/**
 * function that sets up uart and starts bootloader. Able to jump to CLI or new application code
 */
void run_bootloader()
{
    2180:	b5f0      	push	{r4, r5, r6, r7, lr}
	printf("[run_bootloader] started bootloader\r\n");
    2182:	4853      	ldr	r0, [pc, #332]	; (22d0 <run_bootloader+0x150>)
{
    2184:	b08b      	sub	sp, #44	; 0x2c
	printf("[run_bootloader] started bootloader\r\n");
    2186:	4c53      	ldr	r4, [pc, #332]	; (22d4 <run_bootloader+0x154>)
    2188:	47a0      	blx	r4

	if (reset_vector[1] != 0xFFFFFFFF) {
    218a:	4b53      	ldr	r3, [pc, #332]	; (22d8 <run_bootloader+0x158>)
    218c:	ad01      	add	r5, sp, #4
    218e:	685b      	ldr	r3, [r3, #4]
    2190:	3301      	adds	r3, #1
    2192:	d100      	bne.n	2196 <run_bootloader+0x16>
    2194:	e088      	b.n	22a8 <run_bootloader+0x128>
		fw_header_t fw_information;
		
		char fw_version[9];
		char bl_version[9];
		
		create_version_string(fw_version, boot_status->fw_version);
    2196:	4e51      	ldr	r6, [pc, #324]	; (22dc <run_bootloader+0x15c>)
    2198:	0028      	movs	r0, r5
    219a:	6833      	ldr	r3, [r6, #0]
    219c:	4f50      	ldr	r7, [pc, #320]	; (22e0 <run_bootloader+0x160>)
    219e:	88d9      	ldrh	r1, [r3, #6]
    21a0:	47b8      	blx	r7
		create_version_string(bl_version, boot_status->bl_version);
    21a2:	6833      	ldr	r3, [r6, #0]
    21a4:	a804      	add	r0, sp, #16
    21a6:	8899      	ldrh	r1, [r3, #4]
    21a8:	47b8      	blx	r7


		printf("Evergreen Bootloader\r\n"
    21aa:	4b4e      	ldr	r3, [pc, #312]	; (22e4 <run_bootloader+0x164>)
    21ac:	aa04      	add	r2, sp, #16
    21ae:	0029      	movs	r1, r5
    21b0:	484d      	ldr	r0, [pc, #308]	; (22e8 <run_bootloader+0x168>)
    21b2:	4798      	blx	r3
		       "Current fW version: %s\r\n"
		       "Current BL version: %s\r\n", fw_version, bl_version);

		if (boot_status->new_image_ready) {
    21b4:	6833      	ldr	r3, [r6, #0]
    21b6:	78de      	ldrb	r6, [r3, #3]
    21b8:	2e00      	cmp	r6, #0
    21ba:	d03a      	beq.n	2232 <run_bootloader+0xb2>
			//TODO: Confirm that new image is newer version than current version

			//ready to flash new image
			configure_flash();
    21bc:	4b4b      	ldr	r3, [pc, #300]	; (22ec <run_bootloader+0x16c>)
    21be:	4798      	blx	r3
			at25dfx_chip_wake(&at25dfx_chip);
    21c0:	4e4b      	ldr	r6, [pc, #300]	; (22f0 <run_bootloader+0x170>)
    21c2:	4b4c      	ldr	r3, [pc, #304]	; (22f4 <run_bootloader+0x174>)
    21c4:	0030      	movs	r0, r6
    21c6:	4798      	blx	r3
			if (at25dfx_chip_check_presence(&at25dfx_chip) != STATUS_OK)
    21c8:	0030      	movs	r0, r6
    21ca:	4b4b      	ldr	r3, [pc, #300]	; (22f8 <run_bootloader+0x178>)
    21cc:	4798      	blx	r3
    21ce:	2800      	cmp	r0, #0
    21d0:	d001      	beq.n	21d6 <run_bootloader+0x56>
				printf("Could not find flash chip.\r\n");
    21d2:	484a      	ldr	r0, [pc, #296]	; (22fc <run_bootloader+0x17c>)
    21d4:	47a0      	blx	r4
			enum status_code flash_chip_status;
			fw_header_t new_fw_header;
			do
				flash_chip_status = at25dfx_chip_read_buffer(&at25dfx_chip, FW1_HEADER_ADDR, &new_fw_header, sizeof(fw_header_t));
    21d6:	2180      	movs	r1, #128	; 0x80
    21d8:	ad07      	add	r5, sp, #28
    21da:	230c      	movs	r3, #12
    21dc:	002a      	movs	r2, r5
    21de:	0149      	lsls	r1, r1, #5
    21e0:	0030      	movs	r0, r6
    21e2:	4f47      	ldr	r7, [pc, #284]	; (2300 <run_bootloader+0x180>)
    21e4:	47b8      	blx	r7
			while (STATUS_OK != flash_chip_status);
    21e6:	2800      	cmp	r0, #0
    21e8:	d1f5      	bne.n	21d6 <run_bootloader+0x56>
#if DEBUG_LEVEL >= 1
			printf("flashing firmware header: \r\n");
    21ea:	4846      	ldr	r0, [pc, #280]	; (2304 <run_bootloader+0x184>)
    21ec:	47a0      	blx	r4
			printf("new_fw_header.fw_version: %d\r\n", new_fw_header.fw_version);
    21ee:	8829      	ldrh	r1, [r5, #0]
    21f0:	4b3c      	ldr	r3, [pc, #240]	; (22e4 <run_bootloader+0x164>)
    21f2:	4845      	ldr	r0, [pc, #276]	; (2308 <run_bootloader+0x188>)
    21f4:	4798      	blx	r3
			printf("new_fw_header.checksum: %04x\r\n", new_fw_header.checksum);
    21f6:	6869      	ldr	r1, [r5, #4]
    21f8:	4b3a      	ldr	r3, [pc, #232]	; (22e4 <run_bootloader+0x164>)
    21fa:	4844      	ldr	r0, [pc, #272]	; (230c <run_bootloader+0x18c>)
    21fc:	4798      	blx	r3
#endif

			if (flash_image(FW1_ADDR, new_fw_header)) {
    21fe:	2080      	movs	r0, #128	; 0x80
    2200:	6829      	ldr	r1, [r5, #0]
    2202:	686a      	ldr	r2, [r5, #4]
    2204:	68ab      	ldr	r3, [r5, #8]
    2206:	0180      	lsls	r0, r0, #6
    2208:	4f41      	ldr	r7, [pc, #260]	; (2310 <run_bootloader+0x190>)
    220a:	47b8      	blx	r7
    220c:	2800      	cmp	r0, #0
    220e:	d00b      	beq.n	2228 <run_bootloader+0xa8>
				//TODO: change new image flag back to 0
				update_boot_status(new_fw_header.fw_version);
    2210:	4b40      	ldr	r3, [pc, #256]	; (2314 <run_bootloader+0x194>)
    2212:	8828      	ldrh	r0, [r5, #0]
    2214:	4798      	blx	r3
				printf("successfully updated firmware!\r\n");
    2216:	4840      	ldr	r0, [pc, #256]	; (2318 <run_bootloader+0x198>)
    2218:	47a0      	blx	r4
				at25dfx_chip_sleep(&at25dfx_chip);
    221a:	4b40      	ldr	r3, [pc, #256]	; (231c <run_bootloader+0x19c>)
    221c:	0030      	movs	r0, r6
    221e:	4798      	blx	r3
				spi_disable(&at25dfx_spi);
    2220:	4b3f      	ldr	r3, [pc, #252]	; (2320 <run_bootloader+0x1a0>)
    2222:	4798      	blx	r3
			do
				uart_read_code = usart_read_buffer_wait(&usart_instance, &singleCharInput, 1);
			while (STATUS_OK != uart_read_code || (singleCharInput != 'y' && singleCharInput != 'n'));
			if ('y' == singleCharInput) {
				//TODO: flash cli
				run_application();
    2224:	4b3f      	ldr	r3, [pc, #252]	; (2324 <run_bootloader+0x1a4>)
    2226:	e03d      	b.n	22a4 <run_bootloader+0x124>
				printf("error trying to flash image: please power cycle and try again.");
    2228:	483f      	ldr	r0, [pc, #252]	; (2328 <run_bootloader+0x1a8>)
    222a:	4b2e      	ldr	r3, [pc, #184]	; (22e4 <run_bootloader+0x164>)
    222c:	4798      	blx	r3
			}
		} else {
			return;
		}
	}
}
    222e:	b00b      	add	sp, #44	; 0x2c
    2230:	bdf0      	pop	{r4, r5, r6, r7, pc}
			printf("no new image ready for install. \r\n"
    2232:	483e      	ldr	r0, [pc, #248]	; (232c <run_bootloader+0x1ac>)
    2234:	47a0      	blx	r4
			char singleCharInput = 0;
    2236:	466b      	mov	r3, sp
    2238:	1cdd      	adds	r5, r3, #3
    223a:	702e      	strb	r6, [r5, #0]
				uart_read_code = usart_read_buffer_wait(&usart_instance, &singleCharInput, 1);
    223c:	4b3c      	ldr	r3, [pc, #240]	; (2330 <run_bootloader+0x1b0>)
    223e:	2201      	movs	r2, #1
    2240:	0029      	movs	r1, r5
    2242:	483c      	ldr	r0, [pc, #240]	; (2334 <run_bootloader+0x1b4>)
    2244:	4798      	blx	r3
    2246:	466b      	mov	r3, sp
    2248:	7098      	strb	r0, [r3, #2]
    224a:	3302      	adds	r3, #2
			while (STATUS_OK != uart_read_code || (singleCharInput != 'y' && singleCharInput != 'n'));
    224c:	781b      	ldrb	r3, [r3, #0]
    224e:	2b00      	cmp	r3, #0
    2250:	d1f4      	bne.n	223c <run_bootloader+0xbc>
    2252:	782b      	ldrb	r3, [r5, #0]
    2254:	2b79      	cmp	r3, #121	; 0x79
    2256:	d0e5      	beq.n	2224 <run_bootloader+0xa4>
    2258:	2b6e      	cmp	r3, #110	; 0x6e
    225a:	d1ef      	bne.n	223c <run_bootloader+0xbc>
			configure_flash();
    225c:	4b23      	ldr	r3, [pc, #140]	; (22ec <run_bootloader+0x16c>)
    225e:	4798      	blx	r3
			at25dfx_chip_wake(&at25dfx_chip);
    2260:	4d23      	ldr	r5, [pc, #140]	; (22f0 <run_bootloader+0x170>)
    2262:	4b24      	ldr	r3, [pc, #144]	; (22f4 <run_bootloader+0x174>)
    2264:	0028      	movs	r0, r5
    2266:	4798      	blx	r3
			if (at25dfx_chip_check_presence(&at25dfx_chip) != STATUS_OK)
    2268:	0028      	movs	r0, r5
    226a:	4b23      	ldr	r3, [pc, #140]	; (22f8 <run_bootloader+0x178>)
    226c:	4798      	blx	r3
    226e:	2800      	cmp	r0, #0
    2270:	d001      	beq.n	2276 <run_bootloader+0xf6>
				printf("Could not find flash chip.\r\n");
    2272:	4822      	ldr	r0, [pc, #136]	; (22fc <run_bootloader+0x17c>)
    2274:	47a0      	blx	r4
			if(flash_image(FW2_ADDR, cli_addr)) {
    2276:	2601      	movs	r6, #1
    2278:	2082      	movs	r0, #130	; 0x82
			cli_addr.checksum = 553978910;
    227a:	4a2f      	ldr	r2, [pc, #188]	; (2338 <run_bootloader+0x1b8>)
			cli_addr.size = 76920;
    227c:	4b2f      	ldr	r3, [pc, #188]	; (233c <run_bootloader+0x1bc>)
			cli_addr.checksum = 553978910;
    227e:	a907      	add	r1, sp, #28
    2280:	9208      	str	r2, [sp, #32]
			cli_addr.size = 76920;
    2282:	9309      	str	r3, [sp, #36]	; 0x24
			if(flash_image(FW2_ADDR, cli_addr)) {
    2284:	800e      	strh	r6, [r1, #0]
    2286:	9907      	ldr	r1, [sp, #28]
    2288:	02c0      	lsls	r0, r0, #11
    228a:	4f21      	ldr	r7, [pc, #132]	; (2310 <run_bootloader+0x190>)
    228c:	47b8      	blx	r7
    228e:	2800      	cmp	r0, #0
    2290:	d0cd      	beq.n	222e <run_bootloader+0xae>
				update_boot_status(cli_addr.fw_version);
    2292:	4b20      	ldr	r3, [pc, #128]	; (2314 <run_bootloader+0x194>)
    2294:	0030      	movs	r0, r6
    2296:	4798      	blx	r3
				printf("successfully updated firmware!\r\n");
    2298:	481f      	ldr	r0, [pc, #124]	; (2318 <run_bootloader+0x198>)
    229a:	47a0      	blx	r4
				at25dfx_chip_sleep(&at25dfx_chip);
    229c:	4b1f      	ldr	r3, [pc, #124]	; (231c <run_bootloader+0x19c>)
    229e:	0028      	movs	r0, r5
    22a0:	4798      	blx	r3
				spi_disable(&at25dfx_spi);
    22a2:	4b1f      	ldr	r3, [pc, #124]	; (2320 <run_bootloader+0x1a0>)
				run_application();
    22a4:	4798      	blx	r3
    22a6:	e7c2      	b.n	222e <run_bootloader+0xae>
		printf("No application detected.\r\nWould you like to go to the CLI? (y/n)\r\n");
    22a8:	4825      	ldr	r0, [pc, #148]	; (2340 <run_bootloader+0x1c0>)
    22aa:	47a0      	blx	r4
		char singleCharInput = 0;
    22ac:	2300      	movs	r3, #0
    22ae:	ae04      	add	r6, sp, #16
    22b0:	7033      	strb	r3, [r6, #0]
		uart_read_code = usart_read_buffer_wait(&usart_instance, &singleCharInput, 1);
    22b2:	4b1f      	ldr	r3, [pc, #124]	; (2330 <run_bootloader+0x1b0>)
    22b4:	2201      	movs	r2, #1
    22b6:	0031      	movs	r1, r6
    22b8:	481e      	ldr	r0, [pc, #120]	; (2334 <run_bootloader+0x1b4>)
    22ba:	4798      	blx	r3
    22bc:	7028      	strb	r0, [r5, #0]
		while (STATUS_OK != uart_read_code || (singleCharInput != 'y' && singleCharInput != 'n'));
    22be:	782b      	ldrb	r3, [r5, #0]
    22c0:	2b00      	cmp	r3, #0
    22c2:	d1f6      	bne.n	22b2 <run_bootloader+0x132>
    22c4:	7833      	ldrb	r3, [r6, #0]
    22c6:	2b79      	cmp	r3, #121	; 0x79
    22c8:	d0c8      	beq.n	225c <run_bootloader+0xdc>
    22ca:	2b6e      	cmp	r3, #110	; 0x6e
    22cc:	d1f1      	bne.n	22b2 <run_bootloader+0x132>
    22ce:	e7ae      	b.n	222e <run_bootloader+0xae>
    22d0:	00003774 	.word	0x00003774
    22d4:	000026d9 	.word	0x000026d9
    22d8:	20000138 	.word	0x20000138
    22dc:	20000148 	.word	0x20000148
    22e0:	00001f45 	.word	0x00001f45
    22e4:	000025e5 	.word	0x000025e5
    22e8:	00003799 	.word	0x00003799
    22ec:	0000024d 	.word	0x0000024d
    22f0:	20000140 	.word	0x20000140
    22f4:	0000052d 	.word	0x0000052d
    22f8:	0000045d 	.word	0x0000045d
    22fc:	000037e0 	.word	0x000037e0
    2300:	000004ad 	.word	0x000004ad
    2304:	000037fc 	.word	0x000037fc
    2308:	00003818 	.word	0x00003818
    230c:	00003837 	.word	0x00003837
    2310:	0000204d 	.word	0x0000204d
    2314:	00001e69 	.word	0x00001e69
    2318:	00003856 	.word	0x00003856
    231c:	000004fd 	.word	0x000004fd
    2320:	00001f09 	.word	0x00001f09
    2324:	00002129 	.word	0x00002129
    2328:	00003876 	.word	0x00003876
    232c:	000038b5 	.word	0x000038b5
    2330:	000015d5 	.word	0x000015d5
    2334:	20000104 	.word	0x20000104
    2338:	21050c1e 	.word	0x21050c1e
    233c:	00012c78 	.word	0x00012c78
    2340:	00003907 	.word	0x00003907

00002344 <main>:

int main(void)
{
    2344:	b570      	push	{r4, r5, r6, lr}
	//init system, board, usart, nvm, delay, etc
	system_init();
    2346:	4b1c      	ldr	r3, [pc, #112]	; (23b8 <main+0x74>)
    2348:	4798      	blx	r3
	cpu_irq_enable();
    234a:	2201      	movs	r2, #1
    234c:	4b1b      	ldr	r3, [pc, #108]	; (23bc <main+0x78>)
    234e:	701a      	strb	r2, [r3, #0]
    This function ensures the apparent order of the explicit memory operations before
    and after the instruction, without ensuring their completion.
 */
__attribute__( ( always_inline ) ) __STATIC_INLINE void __DMB(void)
{
  __ASM volatile ("dmb");
    2350:	f3bf 8f5f 	dmb	sy
  __ASM volatile ("cpsie i" : : : "memory");
    2354:	b662      	cpsie	i
	system_interrupt_enable_global();
	delay_init();
    2356:	4b1a      	ldr	r3, [pc, #104]	; (23c0 <main+0x7c>)
    2358:	4798      	blx	r3
	configure_usart();
    235a:	4b1a      	ldr	r3, [pc, #104]	; (23c4 <main+0x80>)
    235c:	4798      	blx	r3
	configure_nvm();
    235e:	4b1a      	ldr	r3, [pc, #104]	; (23c8 <main+0x84>)
    2360:	4798      	blx	r3
	printf("[main] bootloader started\r\n");
    2362:	4b1a      	ldr	r3, [pc, #104]	; (23cc <main+0x88>)
    2364:	481a      	ldr	r0, [pc, #104]	; (23d0 <main+0x8c>)
    2366:	4798      	blx	r3
#ifdef BOOTLOADER_INSTALL
//Run only if bootloader has never been installed, sets up bl status header
	update_boot_status(0);
#endif
	
	boot_status = BOOT_STATUS_ADDR;
    2368:	23ff      	movs	r3, #255	; 0xff
	
	//Check if there's an application already in memory
	do
		read_nvm_code = nvm_read_buffer(APP_START_ADDRESS, reset_vector, sizeof(reset_vector));
    236a:	2680      	movs	r6, #128	; 0x80
	boot_status = BOOT_STATUS_ADDR;
    236c:	4c19      	ldr	r4, [pc, #100]	; (23d4 <main+0x90>)
    236e:	019b      	lsls	r3, r3, #6
    2370:	6023      	str	r3, [r4, #0]
		read_nvm_code = nvm_read_buffer(APP_START_ADDRESS, reset_vector, sizeof(reset_vector));
    2372:	01f6      	lsls	r6, r6, #7
    2374:	4d18      	ldr	r5, [pc, #96]	; (23d8 <main+0x94>)
    2376:	2208      	movs	r2, #8
    2378:	0029      	movs	r1, r5
    237a:	0030      	movs	r0, r6
    237c:	4b17      	ldr	r3, [pc, #92]	; (23dc <main+0x98>)
    237e:	4798      	blx	r3
	while (STATUS_OK != read_nvm_code);
    2380:	2800      	cmp	r0, #0
    2382:	d1f7      	bne.n	2374 <main+0x30>
	if (reset_vector[1] == 0xFFFFFFFF) {
    2384:	686b      	ldr	r3, [r5, #4]
    2386:	3301      	adds	r3, #1
    2388:	d103      	bne.n	2392 <main+0x4e>
		run_bootloader();
    238a:	4b15      	ldr	r3, [pc, #84]	; (23e0 <main+0x9c>)
	    || boot_status->signature[1] != 0xAC
	    || boot_status->signature[2] != 0xAB) {
		//flash error, enter bootloader, throw error
		//TODO: write this code
	} else {
		run_application();
    238c:	4798      	blx	r3
		return EXIT_SUCCESS;
	}
}
    238e:	2000      	movs	r0, #0
    2390:	bd70      	pop	{r4, r5, r6, pc}
	configure_port_pins();
    2392:	4b14      	ldr	r3, [pc, #80]	; (23e4 <main+0xa0>)
    2394:	4798      	blx	r3
	return (port_base->IN.reg & pin_mask);
    2396:	4b14      	ldr	r3, [pc, #80]	; (23e8 <main+0xa4>)
    2398:	681b      	ldr	r3, [r3, #0]
	if (!hw_reset) {
    239a:	021b      	lsls	r3, r3, #8
    239c:	d5f5      	bpl.n	238a <main+0x46>
	if (boot_status->new_image_ready) {
    239e:	6823      	ldr	r3, [r4, #0]
    23a0:	78da      	ldrb	r2, [r3, #3]
    23a2:	2a00      	cmp	r2, #0
    23a4:	d1f1      	bne.n	238a <main+0x46>
	if (boot_status->signature[0] != 0xAB
    23a6:	8819      	ldrh	r1, [r3, #0]
    23a8:	4a10      	ldr	r2, [pc, #64]	; (23ec <main+0xa8>)
    23aa:	4291      	cmp	r1, r2
    23ac:	d1ef      	bne.n	238e <main+0x4a>
	    || boot_status->signature[2] != 0xAB) {
    23ae:	789b      	ldrb	r3, [r3, #2]
    23b0:	2bab      	cmp	r3, #171	; 0xab
    23b2:	d1ec      	bne.n	238e <main+0x4a>
		run_application();
    23b4:	4b0e      	ldr	r3, [pc, #56]	; (23f0 <main+0xac>)
    23b6:	e7e9      	b.n	238c <main+0x48>
    23b8:	00001cd9 	.word	0x00001cd9
    23bc:	20000008 	.word	0x20000008
    23c0:	0000055d 	.word	0x0000055d
    23c4:	00000151 	.word	0x00000151
    23c8:	0000032d 	.word	0x0000032d
    23cc:	000026d9 	.word	0x000026d9
    23d0:	00003759 	.word	0x00003759
    23d4:	20000148 	.word	0x20000148
    23d8:	20000138 	.word	0x20000138
    23dc:	00000821 	.word	0x00000821
    23e0:	00002181 	.word	0x00002181
    23e4:	00001f9d 	.word	0x00001f9d
    23e8:	410044a0 	.word	0x410044a0
    23ec:	0000acab 	.word	0x0000acab
    23f0:	00002129 	.word	0x00002129

000023f4 <__gnu_thumb1_case_uqi>:
    23f4:	b402      	push	{r1}
    23f6:	4671      	mov	r1, lr
    23f8:	0849      	lsrs	r1, r1, #1
    23fa:	0049      	lsls	r1, r1, #1
    23fc:	5c09      	ldrb	r1, [r1, r0]
    23fe:	0049      	lsls	r1, r1, #1
    2400:	448e      	add	lr, r1
    2402:	bc02      	pop	{r1}
    2404:	4770      	bx	lr
    2406:	46c0      	nop			; (mov r8, r8)

00002408 <__udivsi3>:
    2408:	2200      	movs	r2, #0
    240a:	0843      	lsrs	r3, r0, #1
    240c:	428b      	cmp	r3, r1
    240e:	d374      	bcc.n	24fa <__udivsi3+0xf2>
    2410:	0903      	lsrs	r3, r0, #4
    2412:	428b      	cmp	r3, r1
    2414:	d35f      	bcc.n	24d6 <__udivsi3+0xce>
    2416:	0a03      	lsrs	r3, r0, #8
    2418:	428b      	cmp	r3, r1
    241a:	d344      	bcc.n	24a6 <__udivsi3+0x9e>
    241c:	0b03      	lsrs	r3, r0, #12
    241e:	428b      	cmp	r3, r1
    2420:	d328      	bcc.n	2474 <__udivsi3+0x6c>
    2422:	0c03      	lsrs	r3, r0, #16
    2424:	428b      	cmp	r3, r1
    2426:	d30d      	bcc.n	2444 <__udivsi3+0x3c>
    2428:	22ff      	movs	r2, #255	; 0xff
    242a:	0209      	lsls	r1, r1, #8
    242c:	ba12      	rev	r2, r2
    242e:	0c03      	lsrs	r3, r0, #16
    2430:	428b      	cmp	r3, r1
    2432:	d302      	bcc.n	243a <__udivsi3+0x32>
    2434:	1212      	asrs	r2, r2, #8
    2436:	0209      	lsls	r1, r1, #8
    2438:	d065      	beq.n	2506 <__udivsi3+0xfe>
    243a:	0b03      	lsrs	r3, r0, #12
    243c:	428b      	cmp	r3, r1
    243e:	d319      	bcc.n	2474 <__udivsi3+0x6c>
    2440:	e000      	b.n	2444 <__udivsi3+0x3c>
    2442:	0a09      	lsrs	r1, r1, #8
    2444:	0bc3      	lsrs	r3, r0, #15
    2446:	428b      	cmp	r3, r1
    2448:	d301      	bcc.n	244e <__udivsi3+0x46>
    244a:	03cb      	lsls	r3, r1, #15
    244c:	1ac0      	subs	r0, r0, r3
    244e:	4152      	adcs	r2, r2
    2450:	0b83      	lsrs	r3, r0, #14
    2452:	428b      	cmp	r3, r1
    2454:	d301      	bcc.n	245a <__udivsi3+0x52>
    2456:	038b      	lsls	r3, r1, #14
    2458:	1ac0      	subs	r0, r0, r3
    245a:	4152      	adcs	r2, r2
    245c:	0b43      	lsrs	r3, r0, #13
    245e:	428b      	cmp	r3, r1
    2460:	d301      	bcc.n	2466 <__udivsi3+0x5e>
    2462:	034b      	lsls	r3, r1, #13
    2464:	1ac0      	subs	r0, r0, r3
    2466:	4152      	adcs	r2, r2
    2468:	0b03      	lsrs	r3, r0, #12
    246a:	428b      	cmp	r3, r1
    246c:	d301      	bcc.n	2472 <__udivsi3+0x6a>
    246e:	030b      	lsls	r3, r1, #12
    2470:	1ac0      	subs	r0, r0, r3
    2472:	4152      	adcs	r2, r2
    2474:	0ac3      	lsrs	r3, r0, #11
    2476:	428b      	cmp	r3, r1
    2478:	d301      	bcc.n	247e <__udivsi3+0x76>
    247a:	02cb      	lsls	r3, r1, #11
    247c:	1ac0      	subs	r0, r0, r3
    247e:	4152      	adcs	r2, r2
    2480:	0a83      	lsrs	r3, r0, #10
    2482:	428b      	cmp	r3, r1
    2484:	d301      	bcc.n	248a <__udivsi3+0x82>
    2486:	028b      	lsls	r3, r1, #10
    2488:	1ac0      	subs	r0, r0, r3
    248a:	4152      	adcs	r2, r2
    248c:	0a43      	lsrs	r3, r0, #9
    248e:	428b      	cmp	r3, r1
    2490:	d301      	bcc.n	2496 <__udivsi3+0x8e>
    2492:	024b      	lsls	r3, r1, #9
    2494:	1ac0      	subs	r0, r0, r3
    2496:	4152      	adcs	r2, r2
    2498:	0a03      	lsrs	r3, r0, #8
    249a:	428b      	cmp	r3, r1
    249c:	d301      	bcc.n	24a2 <__udivsi3+0x9a>
    249e:	020b      	lsls	r3, r1, #8
    24a0:	1ac0      	subs	r0, r0, r3
    24a2:	4152      	adcs	r2, r2
    24a4:	d2cd      	bcs.n	2442 <__udivsi3+0x3a>
    24a6:	09c3      	lsrs	r3, r0, #7
    24a8:	428b      	cmp	r3, r1
    24aa:	d301      	bcc.n	24b0 <__udivsi3+0xa8>
    24ac:	01cb      	lsls	r3, r1, #7
    24ae:	1ac0      	subs	r0, r0, r3
    24b0:	4152      	adcs	r2, r2
    24b2:	0983      	lsrs	r3, r0, #6
    24b4:	428b      	cmp	r3, r1
    24b6:	d301      	bcc.n	24bc <__udivsi3+0xb4>
    24b8:	018b      	lsls	r3, r1, #6
    24ba:	1ac0      	subs	r0, r0, r3
    24bc:	4152      	adcs	r2, r2
    24be:	0943      	lsrs	r3, r0, #5
    24c0:	428b      	cmp	r3, r1
    24c2:	d301      	bcc.n	24c8 <__udivsi3+0xc0>
    24c4:	014b      	lsls	r3, r1, #5
    24c6:	1ac0      	subs	r0, r0, r3
    24c8:	4152      	adcs	r2, r2
    24ca:	0903      	lsrs	r3, r0, #4
    24cc:	428b      	cmp	r3, r1
    24ce:	d301      	bcc.n	24d4 <__udivsi3+0xcc>
    24d0:	010b      	lsls	r3, r1, #4
    24d2:	1ac0      	subs	r0, r0, r3
    24d4:	4152      	adcs	r2, r2
    24d6:	08c3      	lsrs	r3, r0, #3
    24d8:	428b      	cmp	r3, r1
    24da:	d301      	bcc.n	24e0 <__udivsi3+0xd8>
    24dc:	00cb      	lsls	r3, r1, #3
    24de:	1ac0      	subs	r0, r0, r3
    24e0:	4152      	adcs	r2, r2
    24e2:	0883      	lsrs	r3, r0, #2
    24e4:	428b      	cmp	r3, r1
    24e6:	d301      	bcc.n	24ec <__udivsi3+0xe4>
    24e8:	008b      	lsls	r3, r1, #2
    24ea:	1ac0      	subs	r0, r0, r3
    24ec:	4152      	adcs	r2, r2
    24ee:	0843      	lsrs	r3, r0, #1
    24f0:	428b      	cmp	r3, r1
    24f2:	d301      	bcc.n	24f8 <__udivsi3+0xf0>
    24f4:	004b      	lsls	r3, r1, #1
    24f6:	1ac0      	subs	r0, r0, r3
    24f8:	4152      	adcs	r2, r2
    24fa:	1a41      	subs	r1, r0, r1
    24fc:	d200      	bcs.n	2500 <__udivsi3+0xf8>
    24fe:	4601      	mov	r1, r0
    2500:	4152      	adcs	r2, r2
    2502:	4610      	mov	r0, r2
    2504:	4770      	bx	lr
    2506:	e7ff      	b.n	2508 <__udivsi3+0x100>
    2508:	b501      	push	{r0, lr}
    250a:	2000      	movs	r0, #0
    250c:	f000 f806 	bl	251c <__aeabi_idiv0>
    2510:	bd02      	pop	{r1, pc}
    2512:	46c0      	nop			; (mov r8, r8)

00002514 <__aeabi_uidivmod>:
    2514:	2900      	cmp	r1, #0
    2516:	d0f7      	beq.n	2508 <__udivsi3+0x100>
    2518:	e776      	b.n	2408 <__udivsi3>
    251a:	4770      	bx	lr

0000251c <__aeabi_idiv0>:
    251c:	4770      	bx	lr
    251e:	46c0      	nop			; (mov r8, r8)

00002520 <__aeabi_llsl>:
    2520:	4091      	lsls	r1, r2
    2522:	1c03      	adds	r3, r0, #0
    2524:	4090      	lsls	r0, r2
    2526:	469c      	mov	ip, r3
    2528:	3a20      	subs	r2, #32
    252a:	4093      	lsls	r3, r2
    252c:	4319      	orrs	r1, r3
    252e:	4252      	negs	r2, r2
    2530:	4663      	mov	r3, ip
    2532:	40d3      	lsrs	r3, r2
    2534:	4319      	orrs	r1, r3
    2536:	4770      	bx	lr

00002538 <__aeabi_lmul>:
    2538:	b5f0      	push	{r4, r5, r6, r7, lr}
    253a:	46ce      	mov	lr, r9
    253c:	4647      	mov	r7, r8
    253e:	0415      	lsls	r5, r2, #16
    2540:	0c2d      	lsrs	r5, r5, #16
    2542:	002e      	movs	r6, r5
    2544:	b580      	push	{r7, lr}
    2546:	0407      	lsls	r7, r0, #16
    2548:	0c14      	lsrs	r4, r2, #16
    254a:	0c3f      	lsrs	r7, r7, #16
    254c:	4699      	mov	r9, r3
    254e:	0c03      	lsrs	r3, r0, #16
    2550:	437e      	muls	r6, r7
    2552:	435d      	muls	r5, r3
    2554:	4367      	muls	r7, r4
    2556:	4363      	muls	r3, r4
    2558:	197f      	adds	r7, r7, r5
    255a:	0c34      	lsrs	r4, r6, #16
    255c:	19e4      	adds	r4, r4, r7
    255e:	469c      	mov	ip, r3
    2560:	42a5      	cmp	r5, r4
    2562:	d903      	bls.n	256c <__aeabi_lmul+0x34>
    2564:	2380      	movs	r3, #128	; 0x80
    2566:	025b      	lsls	r3, r3, #9
    2568:	4698      	mov	r8, r3
    256a:	44c4      	add	ip, r8
    256c:	464b      	mov	r3, r9
    256e:	4351      	muls	r1, r2
    2570:	4343      	muls	r3, r0
    2572:	0436      	lsls	r6, r6, #16
    2574:	0c36      	lsrs	r6, r6, #16
    2576:	0c25      	lsrs	r5, r4, #16
    2578:	0424      	lsls	r4, r4, #16
    257a:	4465      	add	r5, ip
    257c:	19a4      	adds	r4, r4, r6
    257e:	1859      	adds	r1, r3, r1
    2580:	1949      	adds	r1, r1, r5
    2582:	0020      	movs	r0, r4
    2584:	bc0c      	pop	{r2, r3}
    2586:	4690      	mov	r8, r2
    2588:	4699      	mov	r9, r3
    258a:	bdf0      	pop	{r4, r5, r6, r7, pc}

0000258c <__libc_init_array>:
    258c:	b570      	push	{r4, r5, r6, lr}
    258e:	2600      	movs	r6, #0
    2590:	4d0c      	ldr	r5, [pc, #48]	; (25c4 <__libc_init_array+0x38>)
    2592:	4c0d      	ldr	r4, [pc, #52]	; (25c8 <__libc_init_array+0x3c>)
    2594:	1b64      	subs	r4, r4, r5
    2596:	10a4      	asrs	r4, r4, #2
    2598:	42a6      	cmp	r6, r4
    259a:	d109      	bne.n	25b0 <__libc_init_array+0x24>
    259c:	2600      	movs	r6, #0
    259e:	f001 fa59 	bl	3a54 <_init>
    25a2:	4d0a      	ldr	r5, [pc, #40]	; (25cc <__libc_init_array+0x40>)
    25a4:	4c0a      	ldr	r4, [pc, #40]	; (25d0 <__libc_init_array+0x44>)
    25a6:	1b64      	subs	r4, r4, r5
    25a8:	10a4      	asrs	r4, r4, #2
    25aa:	42a6      	cmp	r6, r4
    25ac:	d105      	bne.n	25ba <__libc_init_array+0x2e>
    25ae:	bd70      	pop	{r4, r5, r6, pc}
    25b0:	00b3      	lsls	r3, r6, #2
    25b2:	58eb      	ldr	r3, [r5, r3]
    25b4:	4798      	blx	r3
    25b6:	3601      	adds	r6, #1
    25b8:	e7ee      	b.n	2598 <__libc_init_array+0xc>
    25ba:	00b3      	lsls	r3, r6, #2
    25bc:	58eb      	ldr	r3, [r5, r3]
    25be:	4798      	blx	r3
    25c0:	3601      	adds	r6, #1
    25c2:	e7f2      	b.n	25aa <__libc_init_array+0x1e>
    25c4:	00003a60 	.word	0x00003a60
    25c8:	00003a60 	.word	0x00003a60
    25cc:	00003a60 	.word	0x00003a60
    25d0:	00003a64 	.word	0x00003a64

000025d4 <memset>:
    25d4:	0003      	movs	r3, r0
    25d6:	1882      	adds	r2, r0, r2
    25d8:	4293      	cmp	r3, r2
    25da:	d100      	bne.n	25de <memset+0xa>
    25dc:	4770      	bx	lr
    25de:	7019      	strb	r1, [r3, #0]
    25e0:	3301      	adds	r3, #1
    25e2:	e7f9      	b.n	25d8 <memset+0x4>

000025e4 <iprintf>:
    25e4:	b40f      	push	{r0, r1, r2, r3}
    25e6:	4b0b      	ldr	r3, [pc, #44]	; (2614 <iprintf+0x30>)
    25e8:	b513      	push	{r0, r1, r4, lr}
    25ea:	681c      	ldr	r4, [r3, #0]
    25ec:	2c00      	cmp	r4, #0
    25ee:	d005      	beq.n	25fc <iprintf+0x18>
    25f0:	69a3      	ldr	r3, [r4, #24]
    25f2:	2b00      	cmp	r3, #0
    25f4:	d102      	bne.n	25fc <iprintf+0x18>
    25f6:	0020      	movs	r0, r4
    25f8:	f000 faf2 	bl	2be0 <__sinit>
    25fc:	ab05      	add	r3, sp, #20
    25fe:	9a04      	ldr	r2, [sp, #16]
    2600:	68a1      	ldr	r1, [r4, #8]
    2602:	0020      	movs	r0, r4
    2604:	9301      	str	r3, [sp, #4]
    2606:	f000 fcc7 	bl	2f98 <_vfiprintf_r>
    260a:	bc16      	pop	{r1, r2, r4}
    260c:	bc08      	pop	{r3}
    260e:	b004      	add	sp, #16
    2610:	4718      	bx	r3
    2612:	46c0      	nop			; (mov r8, r8)
    2614:	2000000c 	.word	0x2000000c

00002618 <_puts_r>:
    2618:	b570      	push	{r4, r5, r6, lr}
    261a:	0005      	movs	r5, r0
    261c:	000e      	movs	r6, r1
    261e:	2800      	cmp	r0, #0
    2620:	d004      	beq.n	262c <_puts_r+0x14>
    2622:	6983      	ldr	r3, [r0, #24]
    2624:	2b00      	cmp	r3, #0
    2626:	d101      	bne.n	262c <_puts_r+0x14>
    2628:	f000 fada 	bl	2be0 <__sinit>
    262c:	69ab      	ldr	r3, [r5, #24]
    262e:	68ac      	ldr	r4, [r5, #8]
    2630:	2b00      	cmp	r3, #0
    2632:	d102      	bne.n	263a <_puts_r+0x22>
    2634:	0028      	movs	r0, r5
    2636:	f000 fad3 	bl	2be0 <__sinit>
    263a:	4b24      	ldr	r3, [pc, #144]	; (26cc <_puts_r+0xb4>)
    263c:	429c      	cmp	r4, r3
    263e:	d10f      	bne.n	2660 <_puts_r+0x48>
    2640:	686c      	ldr	r4, [r5, #4]
    2642:	89a3      	ldrh	r3, [r4, #12]
    2644:	071b      	lsls	r3, r3, #28
    2646:	d502      	bpl.n	264e <_puts_r+0x36>
    2648:	6923      	ldr	r3, [r4, #16]
    264a:	2b00      	cmp	r3, #0
    264c:	d120      	bne.n	2690 <_puts_r+0x78>
    264e:	0021      	movs	r1, r4
    2650:	0028      	movs	r0, r5
    2652:	f000 f957 	bl	2904 <__swsetup_r>
    2656:	2800      	cmp	r0, #0
    2658:	d01a      	beq.n	2690 <_puts_r+0x78>
    265a:	2001      	movs	r0, #1
    265c:	4240      	negs	r0, r0
    265e:	bd70      	pop	{r4, r5, r6, pc}
    2660:	4b1b      	ldr	r3, [pc, #108]	; (26d0 <_puts_r+0xb8>)
    2662:	429c      	cmp	r4, r3
    2664:	d101      	bne.n	266a <_puts_r+0x52>
    2666:	68ac      	ldr	r4, [r5, #8]
    2668:	e7eb      	b.n	2642 <_puts_r+0x2a>
    266a:	4b1a      	ldr	r3, [pc, #104]	; (26d4 <_puts_r+0xbc>)
    266c:	429c      	cmp	r4, r3
    266e:	d1e8      	bne.n	2642 <_puts_r+0x2a>
    2670:	68ec      	ldr	r4, [r5, #12]
    2672:	e7e6      	b.n	2642 <_puts_r+0x2a>
    2674:	3b01      	subs	r3, #1
    2676:	3601      	adds	r6, #1
    2678:	60a3      	str	r3, [r4, #8]
    267a:	2b00      	cmp	r3, #0
    267c:	da04      	bge.n	2688 <_puts_r+0x70>
    267e:	69a2      	ldr	r2, [r4, #24]
    2680:	4293      	cmp	r3, r2
    2682:	db16      	blt.n	26b2 <_puts_r+0x9a>
    2684:	290a      	cmp	r1, #10
    2686:	d014      	beq.n	26b2 <_puts_r+0x9a>
    2688:	6823      	ldr	r3, [r4, #0]
    268a:	1c5a      	adds	r2, r3, #1
    268c:	6022      	str	r2, [r4, #0]
    268e:	7019      	strb	r1, [r3, #0]
    2690:	7831      	ldrb	r1, [r6, #0]
    2692:	68a3      	ldr	r3, [r4, #8]
    2694:	2900      	cmp	r1, #0
    2696:	d1ed      	bne.n	2674 <_puts_r+0x5c>
    2698:	3b01      	subs	r3, #1
    269a:	60a3      	str	r3, [r4, #8]
    269c:	2b00      	cmp	r3, #0
    269e:	da0f      	bge.n	26c0 <_puts_r+0xa8>
    26a0:	0022      	movs	r2, r4
    26a2:	310a      	adds	r1, #10
    26a4:	0028      	movs	r0, r5
    26a6:	f000 f8d7 	bl	2858 <__swbuf_r>
    26aa:	1c43      	adds	r3, r0, #1
    26ac:	d0d5      	beq.n	265a <_puts_r+0x42>
    26ae:	200a      	movs	r0, #10
    26b0:	e7d5      	b.n	265e <_puts_r+0x46>
    26b2:	0022      	movs	r2, r4
    26b4:	0028      	movs	r0, r5
    26b6:	f000 f8cf 	bl	2858 <__swbuf_r>
    26ba:	1c43      	adds	r3, r0, #1
    26bc:	d1e8      	bne.n	2690 <_puts_r+0x78>
    26be:	e7cc      	b.n	265a <_puts_r+0x42>
    26c0:	200a      	movs	r0, #10
    26c2:	6823      	ldr	r3, [r4, #0]
    26c4:	1c5a      	adds	r2, r3, #1
    26c6:	6022      	str	r2, [r4, #0]
    26c8:	7018      	strb	r0, [r3, #0]
    26ca:	e7c8      	b.n	265e <_puts_r+0x46>
    26cc:	000039e0 	.word	0x000039e0
    26d0:	00003a00 	.word	0x00003a00
    26d4:	000039c0 	.word	0x000039c0

000026d8 <puts>:
    26d8:	b510      	push	{r4, lr}
    26da:	4b03      	ldr	r3, [pc, #12]	; (26e8 <puts+0x10>)
    26dc:	0001      	movs	r1, r0
    26de:	6818      	ldr	r0, [r3, #0]
    26e0:	f7ff ff9a 	bl	2618 <_puts_r>
    26e4:	bd10      	pop	{r4, pc}
    26e6:	46c0      	nop			; (mov r8, r8)
    26e8:	2000000c 	.word	0x2000000c

000026ec <setbuf>:
    26ec:	424a      	negs	r2, r1
    26ee:	414a      	adcs	r2, r1
    26f0:	2380      	movs	r3, #128	; 0x80
    26f2:	b510      	push	{r4, lr}
    26f4:	0052      	lsls	r2, r2, #1
    26f6:	00db      	lsls	r3, r3, #3
    26f8:	f000 f802 	bl	2700 <setvbuf>
    26fc:	bd10      	pop	{r4, pc}
	...

00002700 <setvbuf>:
    2700:	b5f0      	push	{r4, r5, r6, r7, lr}
    2702:	001d      	movs	r5, r3
    2704:	4b4f      	ldr	r3, [pc, #316]	; (2844 <setvbuf+0x144>)
    2706:	b085      	sub	sp, #20
    2708:	681e      	ldr	r6, [r3, #0]
    270a:	0004      	movs	r4, r0
    270c:	000f      	movs	r7, r1
    270e:	9200      	str	r2, [sp, #0]
    2710:	2e00      	cmp	r6, #0
    2712:	d005      	beq.n	2720 <setvbuf+0x20>
    2714:	69b3      	ldr	r3, [r6, #24]
    2716:	2b00      	cmp	r3, #0
    2718:	d102      	bne.n	2720 <setvbuf+0x20>
    271a:	0030      	movs	r0, r6
    271c:	f000 fa60 	bl	2be0 <__sinit>
    2720:	4b49      	ldr	r3, [pc, #292]	; (2848 <setvbuf+0x148>)
    2722:	429c      	cmp	r4, r3
    2724:	d150      	bne.n	27c8 <setvbuf+0xc8>
    2726:	6874      	ldr	r4, [r6, #4]
    2728:	9b00      	ldr	r3, [sp, #0]
    272a:	2b02      	cmp	r3, #2
    272c:	d005      	beq.n	273a <setvbuf+0x3a>
    272e:	2b01      	cmp	r3, #1
    2730:	d900      	bls.n	2734 <setvbuf+0x34>
    2732:	e084      	b.n	283e <setvbuf+0x13e>
    2734:	2d00      	cmp	r5, #0
    2736:	da00      	bge.n	273a <setvbuf+0x3a>
    2738:	e081      	b.n	283e <setvbuf+0x13e>
    273a:	0021      	movs	r1, r4
    273c:	0030      	movs	r0, r6
    273e:	f000 f9e1 	bl	2b04 <_fflush_r>
    2742:	6b61      	ldr	r1, [r4, #52]	; 0x34
    2744:	2900      	cmp	r1, #0
    2746:	d008      	beq.n	275a <setvbuf+0x5a>
    2748:	0023      	movs	r3, r4
    274a:	3344      	adds	r3, #68	; 0x44
    274c:	4299      	cmp	r1, r3
    274e:	d002      	beq.n	2756 <setvbuf+0x56>
    2750:	0030      	movs	r0, r6
    2752:	f000 fb51 	bl	2df8 <_free_r>
    2756:	2300      	movs	r3, #0
    2758:	6363      	str	r3, [r4, #52]	; 0x34
    275a:	2300      	movs	r3, #0
    275c:	61a3      	str	r3, [r4, #24]
    275e:	6063      	str	r3, [r4, #4]
    2760:	89a3      	ldrh	r3, [r4, #12]
    2762:	061b      	lsls	r3, r3, #24
    2764:	d503      	bpl.n	276e <setvbuf+0x6e>
    2766:	6921      	ldr	r1, [r4, #16]
    2768:	0030      	movs	r0, r6
    276a:	f000 fb45 	bl	2df8 <_free_r>
    276e:	89a3      	ldrh	r3, [r4, #12]
    2770:	4a36      	ldr	r2, [pc, #216]	; (284c <setvbuf+0x14c>)
    2772:	4013      	ands	r3, r2
    2774:	81a3      	strh	r3, [r4, #12]
    2776:	9b00      	ldr	r3, [sp, #0]
    2778:	2b02      	cmp	r3, #2
    277a:	d05a      	beq.n	2832 <setvbuf+0x132>
    277c:	ab03      	add	r3, sp, #12
    277e:	aa02      	add	r2, sp, #8
    2780:	0021      	movs	r1, r4
    2782:	0030      	movs	r0, r6
    2784:	f000 fac2 	bl	2d0c <__swhatbuf_r>
    2788:	89a3      	ldrh	r3, [r4, #12]
    278a:	4318      	orrs	r0, r3
    278c:	81a0      	strh	r0, [r4, #12]
    278e:	2d00      	cmp	r5, #0
    2790:	d124      	bne.n	27dc <setvbuf+0xdc>
    2792:	9d02      	ldr	r5, [sp, #8]
    2794:	0028      	movs	r0, r5
    2796:	f000 fb25 	bl	2de4 <malloc>
    279a:	9501      	str	r5, [sp, #4]
    279c:	1e07      	subs	r7, r0, #0
    279e:	d142      	bne.n	2826 <setvbuf+0x126>
    27a0:	9b02      	ldr	r3, [sp, #8]
    27a2:	9301      	str	r3, [sp, #4]
    27a4:	42ab      	cmp	r3, r5
    27a6:	d139      	bne.n	281c <setvbuf+0x11c>
    27a8:	2001      	movs	r0, #1
    27aa:	4240      	negs	r0, r0
    27ac:	2302      	movs	r3, #2
    27ae:	89a2      	ldrh	r2, [r4, #12]
    27b0:	4313      	orrs	r3, r2
    27b2:	81a3      	strh	r3, [r4, #12]
    27b4:	2300      	movs	r3, #0
    27b6:	60a3      	str	r3, [r4, #8]
    27b8:	0023      	movs	r3, r4
    27ba:	3347      	adds	r3, #71	; 0x47
    27bc:	6023      	str	r3, [r4, #0]
    27be:	6123      	str	r3, [r4, #16]
    27c0:	2301      	movs	r3, #1
    27c2:	6163      	str	r3, [r4, #20]
    27c4:	b005      	add	sp, #20
    27c6:	bdf0      	pop	{r4, r5, r6, r7, pc}
    27c8:	4b21      	ldr	r3, [pc, #132]	; (2850 <setvbuf+0x150>)
    27ca:	429c      	cmp	r4, r3
    27cc:	d101      	bne.n	27d2 <setvbuf+0xd2>
    27ce:	68b4      	ldr	r4, [r6, #8]
    27d0:	e7aa      	b.n	2728 <setvbuf+0x28>
    27d2:	4b20      	ldr	r3, [pc, #128]	; (2854 <setvbuf+0x154>)
    27d4:	429c      	cmp	r4, r3
    27d6:	d1a7      	bne.n	2728 <setvbuf+0x28>
    27d8:	68f4      	ldr	r4, [r6, #12]
    27da:	e7a5      	b.n	2728 <setvbuf+0x28>
    27dc:	2f00      	cmp	r7, #0
    27de:	d0d9      	beq.n	2794 <setvbuf+0x94>
    27e0:	69b3      	ldr	r3, [r6, #24]
    27e2:	2b00      	cmp	r3, #0
    27e4:	d102      	bne.n	27ec <setvbuf+0xec>
    27e6:	0030      	movs	r0, r6
    27e8:	f000 f9fa 	bl	2be0 <__sinit>
    27ec:	9b00      	ldr	r3, [sp, #0]
    27ee:	2b01      	cmp	r3, #1
    27f0:	d103      	bne.n	27fa <setvbuf+0xfa>
    27f2:	89a3      	ldrh	r3, [r4, #12]
    27f4:	9a00      	ldr	r2, [sp, #0]
    27f6:	431a      	orrs	r2, r3
    27f8:	81a2      	strh	r2, [r4, #12]
    27fa:	2008      	movs	r0, #8
    27fc:	89a3      	ldrh	r3, [r4, #12]
    27fe:	6027      	str	r7, [r4, #0]
    2800:	6127      	str	r7, [r4, #16]
    2802:	6165      	str	r5, [r4, #20]
    2804:	4018      	ands	r0, r3
    2806:	d018      	beq.n	283a <setvbuf+0x13a>
    2808:	2001      	movs	r0, #1
    280a:	4018      	ands	r0, r3
    280c:	2300      	movs	r3, #0
    280e:	4298      	cmp	r0, r3
    2810:	d011      	beq.n	2836 <setvbuf+0x136>
    2812:	426d      	negs	r5, r5
    2814:	60a3      	str	r3, [r4, #8]
    2816:	61a5      	str	r5, [r4, #24]
    2818:	0018      	movs	r0, r3
    281a:	e7d3      	b.n	27c4 <setvbuf+0xc4>
    281c:	9801      	ldr	r0, [sp, #4]
    281e:	f000 fae1 	bl	2de4 <malloc>
    2822:	1e07      	subs	r7, r0, #0
    2824:	d0c0      	beq.n	27a8 <setvbuf+0xa8>
    2826:	2380      	movs	r3, #128	; 0x80
    2828:	89a2      	ldrh	r2, [r4, #12]
    282a:	9d01      	ldr	r5, [sp, #4]
    282c:	4313      	orrs	r3, r2
    282e:	81a3      	strh	r3, [r4, #12]
    2830:	e7d6      	b.n	27e0 <setvbuf+0xe0>
    2832:	2000      	movs	r0, #0
    2834:	e7ba      	b.n	27ac <setvbuf+0xac>
    2836:	60a5      	str	r5, [r4, #8]
    2838:	e7c4      	b.n	27c4 <setvbuf+0xc4>
    283a:	60a0      	str	r0, [r4, #8]
    283c:	e7c2      	b.n	27c4 <setvbuf+0xc4>
    283e:	2001      	movs	r0, #1
    2840:	4240      	negs	r0, r0
    2842:	e7bf      	b.n	27c4 <setvbuf+0xc4>
    2844:	2000000c 	.word	0x2000000c
    2848:	000039e0 	.word	0x000039e0
    284c:	fffff35c 	.word	0xfffff35c
    2850:	00003a00 	.word	0x00003a00
    2854:	000039c0 	.word	0x000039c0

00002858 <__swbuf_r>:
    2858:	b5f8      	push	{r3, r4, r5, r6, r7, lr}
    285a:	0005      	movs	r5, r0
    285c:	000e      	movs	r6, r1
    285e:	0014      	movs	r4, r2
    2860:	2800      	cmp	r0, #0
    2862:	d004      	beq.n	286e <__swbuf_r+0x16>
    2864:	6983      	ldr	r3, [r0, #24]
    2866:	2b00      	cmp	r3, #0
    2868:	d101      	bne.n	286e <__swbuf_r+0x16>
    286a:	f000 f9b9 	bl	2be0 <__sinit>
    286e:	4b22      	ldr	r3, [pc, #136]	; (28f8 <__swbuf_r+0xa0>)
    2870:	429c      	cmp	r4, r3
    2872:	d12d      	bne.n	28d0 <__swbuf_r+0x78>
    2874:	686c      	ldr	r4, [r5, #4]
    2876:	69a3      	ldr	r3, [r4, #24]
    2878:	60a3      	str	r3, [r4, #8]
    287a:	89a3      	ldrh	r3, [r4, #12]
    287c:	071b      	lsls	r3, r3, #28
    287e:	d531      	bpl.n	28e4 <__swbuf_r+0x8c>
    2880:	6923      	ldr	r3, [r4, #16]
    2882:	2b00      	cmp	r3, #0
    2884:	d02e      	beq.n	28e4 <__swbuf_r+0x8c>
    2886:	6823      	ldr	r3, [r4, #0]
    2888:	6922      	ldr	r2, [r4, #16]
    288a:	b2f7      	uxtb	r7, r6
    288c:	1a98      	subs	r0, r3, r2
    288e:	6963      	ldr	r3, [r4, #20]
    2890:	b2f6      	uxtb	r6, r6
    2892:	4298      	cmp	r0, r3
    2894:	db05      	blt.n	28a2 <__swbuf_r+0x4a>
    2896:	0021      	movs	r1, r4
    2898:	0028      	movs	r0, r5
    289a:	f000 f933 	bl	2b04 <_fflush_r>
    289e:	2800      	cmp	r0, #0
    28a0:	d126      	bne.n	28f0 <__swbuf_r+0x98>
    28a2:	68a3      	ldr	r3, [r4, #8]
    28a4:	3001      	adds	r0, #1
    28a6:	3b01      	subs	r3, #1
    28a8:	60a3      	str	r3, [r4, #8]
    28aa:	6823      	ldr	r3, [r4, #0]
    28ac:	1c5a      	adds	r2, r3, #1
    28ae:	6022      	str	r2, [r4, #0]
    28b0:	701f      	strb	r7, [r3, #0]
    28b2:	6963      	ldr	r3, [r4, #20]
    28b4:	4298      	cmp	r0, r3
    28b6:	d004      	beq.n	28c2 <__swbuf_r+0x6a>
    28b8:	89a3      	ldrh	r3, [r4, #12]
    28ba:	07db      	lsls	r3, r3, #31
    28bc:	d51a      	bpl.n	28f4 <__swbuf_r+0x9c>
    28be:	2e0a      	cmp	r6, #10
    28c0:	d118      	bne.n	28f4 <__swbuf_r+0x9c>
    28c2:	0021      	movs	r1, r4
    28c4:	0028      	movs	r0, r5
    28c6:	f000 f91d 	bl	2b04 <_fflush_r>
    28ca:	2800      	cmp	r0, #0
    28cc:	d012      	beq.n	28f4 <__swbuf_r+0x9c>
    28ce:	e00f      	b.n	28f0 <__swbuf_r+0x98>
    28d0:	4b0a      	ldr	r3, [pc, #40]	; (28fc <__swbuf_r+0xa4>)
    28d2:	429c      	cmp	r4, r3
    28d4:	d101      	bne.n	28da <__swbuf_r+0x82>
    28d6:	68ac      	ldr	r4, [r5, #8]
    28d8:	e7cd      	b.n	2876 <__swbuf_r+0x1e>
    28da:	4b09      	ldr	r3, [pc, #36]	; (2900 <__swbuf_r+0xa8>)
    28dc:	429c      	cmp	r4, r3
    28de:	d1ca      	bne.n	2876 <__swbuf_r+0x1e>
    28e0:	68ec      	ldr	r4, [r5, #12]
    28e2:	e7c8      	b.n	2876 <__swbuf_r+0x1e>
    28e4:	0021      	movs	r1, r4
    28e6:	0028      	movs	r0, r5
    28e8:	f000 f80c 	bl	2904 <__swsetup_r>
    28ec:	2800      	cmp	r0, #0
    28ee:	d0ca      	beq.n	2886 <__swbuf_r+0x2e>
    28f0:	2601      	movs	r6, #1
    28f2:	4276      	negs	r6, r6
    28f4:	0030      	movs	r0, r6
    28f6:	bdf8      	pop	{r3, r4, r5, r6, r7, pc}
    28f8:	000039e0 	.word	0x000039e0
    28fc:	00003a00 	.word	0x00003a00
    2900:	000039c0 	.word	0x000039c0

00002904 <__swsetup_r>:
    2904:	4b36      	ldr	r3, [pc, #216]	; (29e0 <__swsetup_r+0xdc>)
    2906:	b570      	push	{r4, r5, r6, lr}
    2908:	681d      	ldr	r5, [r3, #0]
    290a:	0006      	movs	r6, r0
    290c:	000c      	movs	r4, r1
    290e:	2d00      	cmp	r5, #0
    2910:	d005      	beq.n	291e <__swsetup_r+0x1a>
    2912:	69ab      	ldr	r3, [r5, #24]
    2914:	2b00      	cmp	r3, #0
    2916:	d102      	bne.n	291e <__swsetup_r+0x1a>
    2918:	0028      	movs	r0, r5
    291a:	f000 f961 	bl	2be0 <__sinit>
    291e:	4b31      	ldr	r3, [pc, #196]	; (29e4 <__swsetup_r+0xe0>)
    2920:	429c      	cmp	r4, r3
    2922:	d10f      	bne.n	2944 <__swsetup_r+0x40>
    2924:	686c      	ldr	r4, [r5, #4]
    2926:	230c      	movs	r3, #12
    2928:	5ee2      	ldrsh	r2, [r4, r3]
    292a:	b293      	uxth	r3, r2
    292c:	0719      	lsls	r1, r3, #28
    292e:	d42d      	bmi.n	298c <__swsetup_r+0x88>
    2930:	06d9      	lsls	r1, r3, #27
    2932:	d411      	bmi.n	2958 <__swsetup_r+0x54>
    2934:	2309      	movs	r3, #9
    2936:	2001      	movs	r0, #1
    2938:	6033      	str	r3, [r6, #0]
    293a:	3337      	adds	r3, #55	; 0x37
    293c:	4313      	orrs	r3, r2
    293e:	81a3      	strh	r3, [r4, #12]
    2940:	4240      	negs	r0, r0
    2942:	bd70      	pop	{r4, r5, r6, pc}
    2944:	4b28      	ldr	r3, [pc, #160]	; (29e8 <__swsetup_r+0xe4>)
    2946:	429c      	cmp	r4, r3
    2948:	d101      	bne.n	294e <__swsetup_r+0x4a>
    294a:	68ac      	ldr	r4, [r5, #8]
    294c:	e7eb      	b.n	2926 <__swsetup_r+0x22>
    294e:	4b27      	ldr	r3, [pc, #156]	; (29ec <__swsetup_r+0xe8>)
    2950:	429c      	cmp	r4, r3
    2952:	d1e8      	bne.n	2926 <__swsetup_r+0x22>
    2954:	68ec      	ldr	r4, [r5, #12]
    2956:	e7e6      	b.n	2926 <__swsetup_r+0x22>
    2958:	075b      	lsls	r3, r3, #29
    295a:	d513      	bpl.n	2984 <__swsetup_r+0x80>
    295c:	6b61      	ldr	r1, [r4, #52]	; 0x34
    295e:	2900      	cmp	r1, #0
    2960:	d008      	beq.n	2974 <__swsetup_r+0x70>
    2962:	0023      	movs	r3, r4
    2964:	3344      	adds	r3, #68	; 0x44
    2966:	4299      	cmp	r1, r3
    2968:	d002      	beq.n	2970 <__swsetup_r+0x6c>
    296a:	0030      	movs	r0, r6
    296c:	f000 fa44 	bl	2df8 <_free_r>
    2970:	2300      	movs	r3, #0
    2972:	6363      	str	r3, [r4, #52]	; 0x34
    2974:	2224      	movs	r2, #36	; 0x24
    2976:	89a3      	ldrh	r3, [r4, #12]
    2978:	4393      	bics	r3, r2
    297a:	81a3      	strh	r3, [r4, #12]
    297c:	2300      	movs	r3, #0
    297e:	6063      	str	r3, [r4, #4]
    2980:	6923      	ldr	r3, [r4, #16]
    2982:	6023      	str	r3, [r4, #0]
    2984:	2308      	movs	r3, #8
    2986:	89a2      	ldrh	r2, [r4, #12]
    2988:	4313      	orrs	r3, r2
    298a:	81a3      	strh	r3, [r4, #12]
    298c:	6923      	ldr	r3, [r4, #16]
    298e:	2b00      	cmp	r3, #0
    2990:	d10b      	bne.n	29aa <__swsetup_r+0xa6>
    2992:	21a0      	movs	r1, #160	; 0xa0
    2994:	2280      	movs	r2, #128	; 0x80
    2996:	89a3      	ldrh	r3, [r4, #12]
    2998:	0089      	lsls	r1, r1, #2
    299a:	0092      	lsls	r2, r2, #2
    299c:	400b      	ands	r3, r1
    299e:	4293      	cmp	r3, r2
    29a0:	d003      	beq.n	29aa <__swsetup_r+0xa6>
    29a2:	0021      	movs	r1, r4
    29a4:	0030      	movs	r0, r6
    29a6:	f000 f9d9 	bl	2d5c <__smakebuf_r>
    29aa:	2301      	movs	r3, #1
    29ac:	89a2      	ldrh	r2, [r4, #12]
    29ae:	4013      	ands	r3, r2
    29b0:	d011      	beq.n	29d6 <__swsetup_r+0xd2>
    29b2:	2300      	movs	r3, #0
    29b4:	60a3      	str	r3, [r4, #8]
    29b6:	6963      	ldr	r3, [r4, #20]
    29b8:	425b      	negs	r3, r3
    29ba:	61a3      	str	r3, [r4, #24]
    29bc:	2000      	movs	r0, #0
    29be:	6923      	ldr	r3, [r4, #16]
    29c0:	4283      	cmp	r3, r0
    29c2:	d1be      	bne.n	2942 <__swsetup_r+0x3e>
    29c4:	230c      	movs	r3, #12
    29c6:	5ee2      	ldrsh	r2, [r4, r3]
    29c8:	0613      	lsls	r3, r2, #24
    29ca:	d5ba      	bpl.n	2942 <__swsetup_r+0x3e>
    29cc:	2340      	movs	r3, #64	; 0x40
    29ce:	4313      	orrs	r3, r2
    29d0:	81a3      	strh	r3, [r4, #12]
    29d2:	3801      	subs	r0, #1
    29d4:	e7b5      	b.n	2942 <__swsetup_r+0x3e>
    29d6:	0792      	lsls	r2, r2, #30
    29d8:	d400      	bmi.n	29dc <__swsetup_r+0xd8>
    29da:	6963      	ldr	r3, [r4, #20]
    29dc:	60a3      	str	r3, [r4, #8]
    29de:	e7ed      	b.n	29bc <__swsetup_r+0xb8>
    29e0:	2000000c 	.word	0x2000000c
    29e4:	000039e0 	.word	0x000039e0
    29e8:	00003a00 	.word	0x00003a00
    29ec:	000039c0 	.word	0x000039c0

000029f0 <__sflush_r>:
    29f0:	b5f7      	push	{r0, r1, r2, r4, r5, r6, r7, lr}
    29f2:	898a      	ldrh	r2, [r1, #12]
    29f4:	0005      	movs	r5, r0
    29f6:	000c      	movs	r4, r1
    29f8:	0713      	lsls	r3, r2, #28
    29fa:	d460      	bmi.n	2abe <__sflush_r+0xce>
    29fc:	684b      	ldr	r3, [r1, #4]
    29fe:	2b00      	cmp	r3, #0
    2a00:	dc04      	bgt.n	2a0c <__sflush_r+0x1c>
    2a02:	6c0b      	ldr	r3, [r1, #64]	; 0x40
    2a04:	2b00      	cmp	r3, #0
    2a06:	dc01      	bgt.n	2a0c <__sflush_r+0x1c>
    2a08:	2000      	movs	r0, #0
    2a0a:	bdfe      	pop	{r1, r2, r3, r4, r5, r6, r7, pc}
    2a0c:	6ae7      	ldr	r7, [r4, #44]	; 0x2c
    2a0e:	2f00      	cmp	r7, #0
    2a10:	d0fa      	beq.n	2a08 <__sflush_r+0x18>
    2a12:	2300      	movs	r3, #0
    2a14:	682e      	ldr	r6, [r5, #0]
    2a16:	602b      	str	r3, [r5, #0]
    2a18:	2380      	movs	r3, #128	; 0x80
    2a1a:	015b      	lsls	r3, r3, #5
    2a1c:	401a      	ands	r2, r3
    2a1e:	d034      	beq.n	2a8a <__sflush_r+0x9a>
    2a20:	6d60      	ldr	r0, [r4, #84]	; 0x54
    2a22:	89a3      	ldrh	r3, [r4, #12]
    2a24:	075b      	lsls	r3, r3, #29
    2a26:	d506      	bpl.n	2a36 <__sflush_r+0x46>
    2a28:	6863      	ldr	r3, [r4, #4]
    2a2a:	1ac0      	subs	r0, r0, r3
    2a2c:	6b63      	ldr	r3, [r4, #52]	; 0x34
    2a2e:	2b00      	cmp	r3, #0
    2a30:	d001      	beq.n	2a36 <__sflush_r+0x46>
    2a32:	6c23      	ldr	r3, [r4, #64]	; 0x40
    2a34:	1ac0      	subs	r0, r0, r3
    2a36:	0002      	movs	r2, r0
    2a38:	6a21      	ldr	r1, [r4, #32]
    2a3a:	2300      	movs	r3, #0
    2a3c:	0028      	movs	r0, r5
    2a3e:	6ae7      	ldr	r7, [r4, #44]	; 0x2c
    2a40:	47b8      	blx	r7
    2a42:	89a1      	ldrh	r1, [r4, #12]
    2a44:	1c43      	adds	r3, r0, #1
    2a46:	d106      	bne.n	2a56 <__sflush_r+0x66>
    2a48:	682b      	ldr	r3, [r5, #0]
    2a4a:	2b1d      	cmp	r3, #29
    2a4c:	d831      	bhi.n	2ab2 <__sflush_r+0xc2>
    2a4e:	4a2c      	ldr	r2, [pc, #176]	; (2b00 <__sflush_r+0x110>)
    2a50:	40da      	lsrs	r2, r3
    2a52:	07d3      	lsls	r3, r2, #31
    2a54:	d52d      	bpl.n	2ab2 <__sflush_r+0xc2>
    2a56:	2300      	movs	r3, #0
    2a58:	6063      	str	r3, [r4, #4]
    2a5a:	6923      	ldr	r3, [r4, #16]
    2a5c:	6023      	str	r3, [r4, #0]
    2a5e:	04cb      	lsls	r3, r1, #19
    2a60:	d505      	bpl.n	2a6e <__sflush_r+0x7e>
    2a62:	1c43      	adds	r3, r0, #1
    2a64:	d102      	bne.n	2a6c <__sflush_r+0x7c>
    2a66:	682b      	ldr	r3, [r5, #0]
    2a68:	2b00      	cmp	r3, #0
    2a6a:	d100      	bne.n	2a6e <__sflush_r+0x7e>
    2a6c:	6560      	str	r0, [r4, #84]	; 0x54
    2a6e:	6b61      	ldr	r1, [r4, #52]	; 0x34
    2a70:	602e      	str	r6, [r5, #0]
    2a72:	2900      	cmp	r1, #0
    2a74:	d0c8      	beq.n	2a08 <__sflush_r+0x18>
    2a76:	0023      	movs	r3, r4
    2a78:	3344      	adds	r3, #68	; 0x44
    2a7a:	4299      	cmp	r1, r3
    2a7c:	d002      	beq.n	2a84 <__sflush_r+0x94>
    2a7e:	0028      	movs	r0, r5
    2a80:	f000 f9ba 	bl	2df8 <_free_r>
    2a84:	2000      	movs	r0, #0
    2a86:	6360      	str	r0, [r4, #52]	; 0x34
    2a88:	e7bf      	b.n	2a0a <__sflush_r+0x1a>
    2a8a:	2301      	movs	r3, #1
    2a8c:	6a21      	ldr	r1, [r4, #32]
    2a8e:	0028      	movs	r0, r5
    2a90:	47b8      	blx	r7
    2a92:	1c43      	adds	r3, r0, #1
    2a94:	d1c5      	bne.n	2a22 <__sflush_r+0x32>
    2a96:	682b      	ldr	r3, [r5, #0]
    2a98:	2b00      	cmp	r3, #0
    2a9a:	d0c2      	beq.n	2a22 <__sflush_r+0x32>
    2a9c:	2b1d      	cmp	r3, #29
    2a9e:	d001      	beq.n	2aa4 <__sflush_r+0xb4>
    2aa0:	2b16      	cmp	r3, #22
    2aa2:	d101      	bne.n	2aa8 <__sflush_r+0xb8>
    2aa4:	602e      	str	r6, [r5, #0]
    2aa6:	e7af      	b.n	2a08 <__sflush_r+0x18>
    2aa8:	2340      	movs	r3, #64	; 0x40
    2aaa:	89a2      	ldrh	r2, [r4, #12]
    2aac:	4313      	orrs	r3, r2
    2aae:	81a3      	strh	r3, [r4, #12]
    2ab0:	e7ab      	b.n	2a0a <__sflush_r+0x1a>
    2ab2:	2340      	movs	r3, #64	; 0x40
    2ab4:	430b      	orrs	r3, r1
    2ab6:	2001      	movs	r0, #1
    2ab8:	81a3      	strh	r3, [r4, #12]
    2aba:	4240      	negs	r0, r0
    2abc:	e7a5      	b.n	2a0a <__sflush_r+0x1a>
    2abe:	690f      	ldr	r7, [r1, #16]
    2ac0:	2f00      	cmp	r7, #0
    2ac2:	d0a1      	beq.n	2a08 <__sflush_r+0x18>
    2ac4:	680b      	ldr	r3, [r1, #0]
    2ac6:	600f      	str	r7, [r1, #0]
    2ac8:	1bdb      	subs	r3, r3, r7
    2aca:	9301      	str	r3, [sp, #4]
    2acc:	2300      	movs	r3, #0
    2ace:	0792      	lsls	r2, r2, #30
    2ad0:	d100      	bne.n	2ad4 <__sflush_r+0xe4>
    2ad2:	694b      	ldr	r3, [r1, #20]
    2ad4:	60a3      	str	r3, [r4, #8]
    2ad6:	9b01      	ldr	r3, [sp, #4]
    2ad8:	2b00      	cmp	r3, #0
    2ada:	dc00      	bgt.n	2ade <__sflush_r+0xee>
    2adc:	e794      	b.n	2a08 <__sflush_r+0x18>
    2ade:	9b01      	ldr	r3, [sp, #4]
    2ae0:	003a      	movs	r2, r7
    2ae2:	6a21      	ldr	r1, [r4, #32]
    2ae4:	0028      	movs	r0, r5
    2ae6:	6aa6      	ldr	r6, [r4, #40]	; 0x28
    2ae8:	47b0      	blx	r6
    2aea:	2800      	cmp	r0, #0
    2aec:	dc03      	bgt.n	2af6 <__sflush_r+0x106>
    2aee:	2340      	movs	r3, #64	; 0x40
    2af0:	89a2      	ldrh	r2, [r4, #12]
    2af2:	4313      	orrs	r3, r2
    2af4:	e7df      	b.n	2ab6 <__sflush_r+0xc6>
    2af6:	9b01      	ldr	r3, [sp, #4]
    2af8:	183f      	adds	r7, r7, r0
    2afa:	1a1b      	subs	r3, r3, r0
    2afc:	9301      	str	r3, [sp, #4]
    2afe:	e7ea      	b.n	2ad6 <__sflush_r+0xe6>
    2b00:	20400001 	.word	0x20400001

00002b04 <_fflush_r>:
    2b04:	690b      	ldr	r3, [r1, #16]
    2b06:	b570      	push	{r4, r5, r6, lr}
    2b08:	0005      	movs	r5, r0
    2b0a:	000c      	movs	r4, r1
    2b0c:	2b00      	cmp	r3, #0
    2b0e:	d101      	bne.n	2b14 <_fflush_r+0x10>
    2b10:	2000      	movs	r0, #0
    2b12:	bd70      	pop	{r4, r5, r6, pc}
    2b14:	2800      	cmp	r0, #0
    2b16:	d004      	beq.n	2b22 <_fflush_r+0x1e>
    2b18:	6983      	ldr	r3, [r0, #24]
    2b1a:	2b00      	cmp	r3, #0
    2b1c:	d101      	bne.n	2b22 <_fflush_r+0x1e>
    2b1e:	f000 f85f 	bl	2be0 <__sinit>
    2b22:	4b0b      	ldr	r3, [pc, #44]	; (2b50 <_fflush_r+0x4c>)
    2b24:	429c      	cmp	r4, r3
    2b26:	d109      	bne.n	2b3c <_fflush_r+0x38>
    2b28:	686c      	ldr	r4, [r5, #4]
    2b2a:	220c      	movs	r2, #12
    2b2c:	5ea3      	ldrsh	r3, [r4, r2]
    2b2e:	2b00      	cmp	r3, #0
    2b30:	d0ee      	beq.n	2b10 <_fflush_r+0xc>
    2b32:	0021      	movs	r1, r4
    2b34:	0028      	movs	r0, r5
    2b36:	f7ff ff5b 	bl	29f0 <__sflush_r>
    2b3a:	e7ea      	b.n	2b12 <_fflush_r+0xe>
    2b3c:	4b05      	ldr	r3, [pc, #20]	; (2b54 <_fflush_r+0x50>)
    2b3e:	429c      	cmp	r4, r3
    2b40:	d101      	bne.n	2b46 <_fflush_r+0x42>
    2b42:	68ac      	ldr	r4, [r5, #8]
    2b44:	e7f1      	b.n	2b2a <_fflush_r+0x26>
    2b46:	4b04      	ldr	r3, [pc, #16]	; (2b58 <_fflush_r+0x54>)
    2b48:	429c      	cmp	r4, r3
    2b4a:	d1ee      	bne.n	2b2a <_fflush_r+0x26>
    2b4c:	68ec      	ldr	r4, [r5, #12]
    2b4e:	e7ec      	b.n	2b2a <_fflush_r+0x26>
    2b50:	000039e0 	.word	0x000039e0
    2b54:	00003a00 	.word	0x00003a00
    2b58:	000039c0 	.word	0x000039c0

00002b5c <_cleanup_r>:
    2b5c:	b510      	push	{r4, lr}
    2b5e:	4902      	ldr	r1, [pc, #8]	; (2b68 <_cleanup_r+0xc>)
    2b60:	f000 f8b2 	bl	2cc8 <_fwalk_reent>
    2b64:	bd10      	pop	{r4, pc}
    2b66:	46c0      	nop			; (mov r8, r8)
    2b68:	00002b05 	.word	0x00002b05

00002b6c <std.isra.0>:
    2b6c:	2300      	movs	r3, #0
    2b6e:	b510      	push	{r4, lr}
    2b70:	0004      	movs	r4, r0
    2b72:	6003      	str	r3, [r0, #0]
    2b74:	6043      	str	r3, [r0, #4]
    2b76:	6083      	str	r3, [r0, #8]
    2b78:	8181      	strh	r1, [r0, #12]
    2b7a:	6643      	str	r3, [r0, #100]	; 0x64
    2b7c:	81c2      	strh	r2, [r0, #14]
    2b7e:	6103      	str	r3, [r0, #16]
    2b80:	6143      	str	r3, [r0, #20]
    2b82:	6183      	str	r3, [r0, #24]
    2b84:	0019      	movs	r1, r3
    2b86:	2208      	movs	r2, #8
    2b88:	305c      	adds	r0, #92	; 0x5c
    2b8a:	f7ff fd23 	bl	25d4 <memset>
    2b8e:	4b05      	ldr	r3, [pc, #20]	; (2ba4 <std.isra.0+0x38>)
    2b90:	6224      	str	r4, [r4, #32]
    2b92:	6263      	str	r3, [r4, #36]	; 0x24
    2b94:	4b04      	ldr	r3, [pc, #16]	; (2ba8 <std.isra.0+0x3c>)
    2b96:	62a3      	str	r3, [r4, #40]	; 0x28
    2b98:	4b04      	ldr	r3, [pc, #16]	; (2bac <std.isra.0+0x40>)
    2b9a:	62e3      	str	r3, [r4, #44]	; 0x2c
    2b9c:	4b04      	ldr	r3, [pc, #16]	; (2bb0 <std.isra.0+0x44>)
    2b9e:	6323      	str	r3, [r4, #48]	; 0x30
    2ba0:	bd10      	pop	{r4, pc}
    2ba2:	46c0      	nop			; (mov r8, r8)
    2ba4:	00003505 	.word	0x00003505
    2ba8:	0000352d 	.word	0x0000352d
    2bac:	00003565 	.word	0x00003565
    2bb0:	00003591 	.word	0x00003591

00002bb4 <__sfmoreglue>:
    2bb4:	b570      	push	{r4, r5, r6, lr}
    2bb6:	2568      	movs	r5, #104	; 0x68
    2bb8:	1e4a      	subs	r2, r1, #1
    2bba:	4355      	muls	r5, r2
    2bbc:	000e      	movs	r6, r1
    2bbe:	0029      	movs	r1, r5
    2bc0:	3174      	adds	r1, #116	; 0x74
    2bc2:	f000 f963 	bl	2e8c <_malloc_r>
    2bc6:	1e04      	subs	r4, r0, #0
    2bc8:	d008      	beq.n	2bdc <__sfmoreglue+0x28>
    2bca:	2100      	movs	r1, #0
    2bcc:	002a      	movs	r2, r5
    2bce:	6001      	str	r1, [r0, #0]
    2bd0:	6046      	str	r6, [r0, #4]
    2bd2:	300c      	adds	r0, #12
    2bd4:	60a0      	str	r0, [r4, #8]
    2bd6:	3268      	adds	r2, #104	; 0x68
    2bd8:	f7ff fcfc 	bl	25d4 <memset>
    2bdc:	0020      	movs	r0, r4
    2bde:	bd70      	pop	{r4, r5, r6, pc}

00002be0 <__sinit>:
    2be0:	6983      	ldr	r3, [r0, #24]
    2be2:	b513      	push	{r0, r1, r4, lr}
    2be4:	0004      	movs	r4, r0
    2be6:	2b00      	cmp	r3, #0
    2be8:	d128      	bne.n	2c3c <__sinit+0x5c>
    2bea:	6483      	str	r3, [r0, #72]	; 0x48
    2bec:	64c3      	str	r3, [r0, #76]	; 0x4c
    2bee:	6503      	str	r3, [r0, #80]	; 0x50
    2bf0:	4b13      	ldr	r3, [pc, #76]	; (2c40 <__sinit+0x60>)
    2bf2:	4a14      	ldr	r2, [pc, #80]	; (2c44 <__sinit+0x64>)
    2bf4:	681b      	ldr	r3, [r3, #0]
    2bf6:	6282      	str	r2, [r0, #40]	; 0x28
    2bf8:	9301      	str	r3, [sp, #4]
    2bfa:	4298      	cmp	r0, r3
    2bfc:	d101      	bne.n	2c02 <__sinit+0x22>
    2bfe:	2301      	movs	r3, #1
    2c00:	6183      	str	r3, [r0, #24]
    2c02:	0020      	movs	r0, r4
    2c04:	f000 f820 	bl	2c48 <__sfp>
    2c08:	6060      	str	r0, [r4, #4]
    2c0a:	0020      	movs	r0, r4
    2c0c:	f000 f81c 	bl	2c48 <__sfp>
    2c10:	60a0      	str	r0, [r4, #8]
    2c12:	0020      	movs	r0, r4
    2c14:	f000 f818 	bl	2c48 <__sfp>
    2c18:	2200      	movs	r2, #0
    2c1a:	60e0      	str	r0, [r4, #12]
    2c1c:	2104      	movs	r1, #4
    2c1e:	6860      	ldr	r0, [r4, #4]
    2c20:	f7ff ffa4 	bl	2b6c <std.isra.0>
    2c24:	2201      	movs	r2, #1
    2c26:	2109      	movs	r1, #9
    2c28:	68a0      	ldr	r0, [r4, #8]
    2c2a:	f7ff ff9f 	bl	2b6c <std.isra.0>
    2c2e:	2202      	movs	r2, #2
    2c30:	2112      	movs	r1, #18
    2c32:	68e0      	ldr	r0, [r4, #12]
    2c34:	f7ff ff9a 	bl	2b6c <std.isra.0>
    2c38:	2301      	movs	r3, #1
    2c3a:	61a3      	str	r3, [r4, #24]
    2c3c:	bd13      	pop	{r0, r1, r4, pc}
    2c3e:	46c0      	nop			; (mov r8, r8)
    2c40:	000039bc 	.word	0x000039bc
    2c44:	00002b5d 	.word	0x00002b5d

00002c48 <__sfp>:
    2c48:	b5f8      	push	{r3, r4, r5, r6, r7, lr}
    2c4a:	4b1e      	ldr	r3, [pc, #120]	; (2cc4 <__sfp+0x7c>)
    2c4c:	0007      	movs	r7, r0
    2c4e:	681e      	ldr	r6, [r3, #0]
    2c50:	69b3      	ldr	r3, [r6, #24]
    2c52:	2b00      	cmp	r3, #0
    2c54:	d102      	bne.n	2c5c <__sfp+0x14>
    2c56:	0030      	movs	r0, r6
    2c58:	f7ff ffc2 	bl	2be0 <__sinit>
    2c5c:	3648      	adds	r6, #72	; 0x48
    2c5e:	68b4      	ldr	r4, [r6, #8]
    2c60:	6873      	ldr	r3, [r6, #4]
    2c62:	3b01      	subs	r3, #1
    2c64:	d504      	bpl.n	2c70 <__sfp+0x28>
    2c66:	6833      	ldr	r3, [r6, #0]
    2c68:	2b00      	cmp	r3, #0
    2c6a:	d007      	beq.n	2c7c <__sfp+0x34>
    2c6c:	6836      	ldr	r6, [r6, #0]
    2c6e:	e7f6      	b.n	2c5e <__sfp+0x16>
    2c70:	220c      	movs	r2, #12
    2c72:	5ea5      	ldrsh	r5, [r4, r2]
    2c74:	2d00      	cmp	r5, #0
    2c76:	d00d      	beq.n	2c94 <__sfp+0x4c>
    2c78:	3468      	adds	r4, #104	; 0x68
    2c7a:	e7f2      	b.n	2c62 <__sfp+0x1a>
    2c7c:	2104      	movs	r1, #4
    2c7e:	0038      	movs	r0, r7
    2c80:	f7ff ff98 	bl	2bb4 <__sfmoreglue>
    2c84:	6030      	str	r0, [r6, #0]
    2c86:	2800      	cmp	r0, #0
    2c88:	d1f0      	bne.n	2c6c <__sfp+0x24>
    2c8a:	230c      	movs	r3, #12
    2c8c:	0004      	movs	r4, r0
    2c8e:	603b      	str	r3, [r7, #0]
    2c90:	0020      	movs	r0, r4
    2c92:	bdf8      	pop	{r3, r4, r5, r6, r7, pc}
    2c94:	2301      	movs	r3, #1
    2c96:	0020      	movs	r0, r4
    2c98:	425b      	negs	r3, r3
    2c9a:	81e3      	strh	r3, [r4, #14]
    2c9c:	3302      	adds	r3, #2
    2c9e:	81a3      	strh	r3, [r4, #12]
    2ca0:	6665      	str	r5, [r4, #100]	; 0x64
    2ca2:	6025      	str	r5, [r4, #0]
    2ca4:	60a5      	str	r5, [r4, #8]
    2ca6:	6065      	str	r5, [r4, #4]
    2ca8:	6125      	str	r5, [r4, #16]
    2caa:	6165      	str	r5, [r4, #20]
    2cac:	61a5      	str	r5, [r4, #24]
    2cae:	2208      	movs	r2, #8
    2cb0:	0029      	movs	r1, r5
    2cb2:	305c      	adds	r0, #92	; 0x5c
    2cb4:	f7ff fc8e 	bl	25d4 <memset>
    2cb8:	6365      	str	r5, [r4, #52]	; 0x34
    2cba:	63a5      	str	r5, [r4, #56]	; 0x38
    2cbc:	64a5      	str	r5, [r4, #72]	; 0x48
    2cbe:	64e5      	str	r5, [r4, #76]	; 0x4c
    2cc0:	e7e6      	b.n	2c90 <__sfp+0x48>
    2cc2:	46c0      	nop			; (mov r8, r8)
    2cc4:	000039bc 	.word	0x000039bc

00002cc8 <_fwalk_reent>:
    2cc8:	b5f7      	push	{r0, r1, r2, r4, r5, r6, r7, lr}
    2cca:	0004      	movs	r4, r0
    2ccc:	0007      	movs	r7, r0
    2cce:	2600      	movs	r6, #0
    2cd0:	9101      	str	r1, [sp, #4]
    2cd2:	3448      	adds	r4, #72	; 0x48
    2cd4:	2c00      	cmp	r4, #0
    2cd6:	d101      	bne.n	2cdc <_fwalk_reent+0x14>
    2cd8:	0030      	movs	r0, r6
    2cda:	bdfe      	pop	{r1, r2, r3, r4, r5, r6, r7, pc}
    2cdc:	6863      	ldr	r3, [r4, #4]
    2cde:	68a5      	ldr	r5, [r4, #8]
    2ce0:	9300      	str	r3, [sp, #0]
    2ce2:	9b00      	ldr	r3, [sp, #0]
    2ce4:	3b01      	subs	r3, #1
    2ce6:	9300      	str	r3, [sp, #0]
    2ce8:	d501      	bpl.n	2cee <_fwalk_reent+0x26>
    2cea:	6824      	ldr	r4, [r4, #0]
    2cec:	e7f2      	b.n	2cd4 <_fwalk_reent+0xc>
    2cee:	89ab      	ldrh	r3, [r5, #12]
    2cf0:	2b01      	cmp	r3, #1
    2cf2:	d908      	bls.n	2d06 <_fwalk_reent+0x3e>
    2cf4:	220e      	movs	r2, #14
    2cf6:	5eab      	ldrsh	r3, [r5, r2]
    2cf8:	3301      	adds	r3, #1
    2cfa:	d004      	beq.n	2d06 <_fwalk_reent+0x3e>
    2cfc:	0029      	movs	r1, r5
    2cfe:	0038      	movs	r0, r7
    2d00:	9b01      	ldr	r3, [sp, #4]
    2d02:	4798      	blx	r3
    2d04:	4306      	orrs	r6, r0
    2d06:	3568      	adds	r5, #104	; 0x68
    2d08:	e7eb      	b.n	2ce2 <_fwalk_reent+0x1a>
	...

00002d0c <__swhatbuf_r>:
    2d0c:	b570      	push	{r4, r5, r6, lr}
    2d0e:	000e      	movs	r6, r1
    2d10:	001d      	movs	r5, r3
    2d12:	230e      	movs	r3, #14
    2d14:	5ec9      	ldrsh	r1, [r1, r3]
    2d16:	b090      	sub	sp, #64	; 0x40
    2d18:	0014      	movs	r4, r2
    2d1a:	2900      	cmp	r1, #0
    2d1c:	da07      	bge.n	2d2e <__swhatbuf_r+0x22>
    2d1e:	2300      	movs	r3, #0
    2d20:	602b      	str	r3, [r5, #0]
    2d22:	89b3      	ldrh	r3, [r6, #12]
    2d24:	061b      	lsls	r3, r3, #24
    2d26:	d411      	bmi.n	2d4c <__swhatbuf_r+0x40>
    2d28:	2380      	movs	r3, #128	; 0x80
    2d2a:	00db      	lsls	r3, r3, #3
    2d2c:	e00f      	b.n	2d4e <__swhatbuf_r+0x42>
    2d2e:	aa01      	add	r2, sp, #4
    2d30:	f000 fc5a 	bl	35e8 <_fstat_r>
    2d34:	2800      	cmp	r0, #0
    2d36:	dbf2      	blt.n	2d1e <__swhatbuf_r+0x12>
    2d38:	22f0      	movs	r2, #240	; 0xf0
    2d3a:	9b02      	ldr	r3, [sp, #8]
    2d3c:	0212      	lsls	r2, r2, #8
    2d3e:	4013      	ands	r3, r2
    2d40:	4a05      	ldr	r2, [pc, #20]	; (2d58 <__swhatbuf_r+0x4c>)
    2d42:	189b      	adds	r3, r3, r2
    2d44:	425a      	negs	r2, r3
    2d46:	4153      	adcs	r3, r2
    2d48:	602b      	str	r3, [r5, #0]
    2d4a:	e7ed      	b.n	2d28 <__swhatbuf_r+0x1c>
    2d4c:	2340      	movs	r3, #64	; 0x40
    2d4e:	2000      	movs	r0, #0
    2d50:	6023      	str	r3, [r4, #0]
    2d52:	b010      	add	sp, #64	; 0x40
    2d54:	bd70      	pop	{r4, r5, r6, pc}
    2d56:	46c0      	nop			; (mov r8, r8)
    2d58:	ffffe000 	.word	0xffffe000

00002d5c <__smakebuf_r>:
    2d5c:	b5f7      	push	{r0, r1, r2, r4, r5, r6, r7, lr}
    2d5e:	2602      	movs	r6, #2
    2d60:	898b      	ldrh	r3, [r1, #12]
    2d62:	0005      	movs	r5, r0
    2d64:	000c      	movs	r4, r1
    2d66:	4233      	tst	r3, r6
    2d68:	d006      	beq.n	2d78 <__smakebuf_r+0x1c>
    2d6a:	0023      	movs	r3, r4
    2d6c:	3347      	adds	r3, #71	; 0x47
    2d6e:	6023      	str	r3, [r4, #0]
    2d70:	6123      	str	r3, [r4, #16]
    2d72:	2301      	movs	r3, #1
    2d74:	6163      	str	r3, [r4, #20]
    2d76:	bdf7      	pop	{r0, r1, r2, r4, r5, r6, r7, pc}
    2d78:	ab01      	add	r3, sp, #4
    2d7a:	466a      	mov	r2, sp
    2d7c:	f7ff ffc6 	bl	2d0c <__swhatbuf_r>
    2d80:	9900      	ldr	r1, [sp, #0]
    2d82:	0007      	movs	r7, r0
    2d84:	0028      	movs	r0, r5
    2d86:	f000 f881 	bl	2e8c <_malloc_r>
    2d8a:	2800      	cmp	r0, #0
    2d8c:	d108      	bne.n	2da0 <__smakebuf_r+0x44>
    2d8e:	220c      	movs	r2, #12
    2d90:	5ea3      	ldrsh	r3, [r4, r2]
    2d92:	059a      	lsls	r2, r3, #22
    2d94:	d4ef      	bmi.n	2d76 <__smakebuf_r+0x1a>
    2d96:	2203      	movs	r2, #3
    2d98:	4393      	bics	r3, r2
    2d9a:	431e      	orrs	r6, r3
    2d9c:	81a6      	strh	r6, [r4, #12]
    2d9e:	e7e4      	b.n	2d6a <__smakebuf_r+0xe>
    2da0:	4b0f      	ldr	r3, [pc, #60]	; (2de0 <__smakebuf_r+0x84>)
    2da2:	62ab      	str	r3, [r5, #40]	; 0x28
    2da4:	2380      	movs	r3, #128	; 0x80
    2da6:	89a2      	ldrh	r2, [r4, #12]
    2da8:	6020      	str	r0, [r4, #0]
    2daa:	4313      	orrs	r3, r2
    2dac:	81a3      	strh	r3, [r4, #12]
    2dae:	9b00      	ldr	r3, [sp, #0]
    2db0:	6120      	str	r0, [r4, #16]
    2db2:	6163      	str	r3, [r4, #20]
    2db4:	9b01      	ldr	r3, [sp, #4]
    2db6:	2b00      	cmp	r3, #0
    2db8:	d00d      	beq.n	2dd6 <__smakebuf_r+0x7a>
    2dba:	230e      	movs	r3, #14
    2dbc:	5ee1      	ldrsh	r1, [r4, r3]
    2dbe:	0028      	movs	r0, r5
    2dc0:	f000 fc24 	bl	360c <_isatty_r>
    2dc4:	2800      	cmp	r0, #0
    2dc6:	d006      	beq.n	2dd6 <__smakebuf_r+0x7a>
    2dc8:	2203      	movs	r2, #3
    2dca:	89a3      	ldrh	r3, [r4, #12]
    2dcc:	4393      	bics	r3, r2
    2dce:	001a      	movs	r2, r3
    2dd0:	2301      	movs	r3, #1
    2dd2:	4313      	orrs	r3, r2
    2dd4:	81a3      	strh	r3, [r4, #12]
    2dd6:	89a0      	ldrh	r0, [r4, #12]
    2dd8:	4338      	orrs	r0, r7
    2dda:	81a0      	strh	r0, [r4, #12]
    2ddc:	e7cb      	b.n	2d76 <__smakebuf_r+0x1a>
    2dde:	46c0      	nop			; (mov r8, r8)
    2de0:	00002b5d 	.word	0x00002b5d

00002de4 <malloc>:
    2de4:	b510      	push	{r4, lr}
    2de6:	4b03      	ldr	r3, [pc, #12]	; (2df4 <malloc+0x10>)
    2de8:	0001      	movs	r1, r0
    2dea:	6818      	ldr	r0, [r3, #0]
    2dec:	f000 f84e 	bl	2e8c <_malloc_r>
    2df0:	bd10      	pop	{r4, pc}
    2df2:	46c0      	nop			; (mov r8, r8)
    2df4:	2000000c 	.word	0x2000000c

00002df8 <_free_r>:
    2df8:	b570      	push	{r4, r5, r6, lr}
    2dfa:	0005      	movs	r5, r0
    2dfc:	2900      	cmp	r1, #0
    2dfe:	d010      	beq.n	2e22 <_free_r+0x2a>
    2e00:	1f0c      	subs	r4, r1, #4
    2e02:	6823      	ldr	r3, [r4, #0]
    2e04:	2b00      	cmp	r3, #0
    2e06:	da00      	bge.n	2e0a <_free_r+0x12>
    2e08:	18e4      	adds	r4, r4, r3
    2e0a:	0028      	movs	r0, r5
    2e0c:	f000 fc2f 	bl	366e <__malloc_lock>
    2e10:	4a1d      	ldr	r2, [pc, #116]	; (2e88 <_free_r+0x90>)
    2e12:	6813      	ldr	r3, [r2, #0]
    2e14:	2b00      	cmp	r3, #0
    2e16:	d105      	bne.n	2e24 <_free_r+0x2c>
    2e18:	6063      	str	r3, [r4, #4]
    2e1a:	6014      	str	r4, [r2, #0]
    2e1c:	0028      	movs	r0, r5
    2e1e:	f000 fc27 	bl	3670 <__malloc_unlock>
    2e22:	bd70      	pop	{r4, r5, r6, pc}
    2e24:	42a3      	cmp	r3, r4
    2e26:	d909      	bls.n	2e3c <_free_r+0x44>
    2e28:	6821      	ldr	r1, [r4, #0]
    2e2a:	1860      	adds	r0, r4, r1
    2e2c:	4283      	cmp	r3, r0
    2e2e:	d1f3      	bne.n	2e18 <_free_r+0x20>
    2e30:	6818      	ldr	r0, [r3, #0]
    2e32:	685b      	ldr	r3, [r3, #4]
    2e34:	1841      	adds	r1, r0, r1
    2e36:	6021      	str	r1, [r4, #0]
    2e38:	e7ee      	b.n	2e18 <_free_r+0x20>
    2e3a:	0013      	movs	r3, r2
    2e3c:	685a      	ldr	r2, [r3, #4]
    2e3e:	2a00      	cmp	r2, #0
    2e40:	d001      	beq.n	2e46 <_free_r+0x4e>
    2e42:	42a2      	cmp	r2, r4
    2e44:	d9f9      	bls.n	2e3a <_free_r+0x42>
    2e46:	6819      	ldr	r1, [r3, #0]
    2e48:	1858      	adds	r0, r3, r1
    2e4a:	42a0      	cmp	r0, r4
    2e4c:	d10b      	bne.n	2e66 <_free_r+0x6e>
    2e4e:	6820      	ldr	r0, [r4, #0]
    2e50:	1809      	adds	r1, r1, r0
    2e52:	1858      	adds	r0, r3, r1
    2e54:	6019      	str	r1, [r3, #0]
    2e56:	4282      	cmp	r2, r0
    2e58:	d1e0      	bne.n	2e1c <_free_r+0x24>
    2e5a:	6810      	ldr	r0, [r2, #0]
    2e5c:	6852      	ldr	r2, [r2, #4]
    2e5e:	1841      	adds	r1, r0, r1
    2e60:	6019      	str	r1, [r3, #0]
    2e62:	605a      	str	r2, [r3, #4]
    2e64:	e7da      	b.n	2e1c <_free_r+0x24>
    2e66:	42a0      	cmp	r0, r4
    2e68:	d902      	bls.n	2e70 <_free_r+0x78>
    2e6a:	230c      	movs	r3, #12
    2e6c:	602b      	str	r3, [r5, #0]
    2e6e:	e7d5      	b.n	2e1c <_free_r+0x24>
    2e70:	6821      	ldr	r1, [r4, #0]
    2e72:	1860      	adds	r0, r4, r1
    2e74:	4282      	cmp	r2, r0
    2e76:	d103      	bne.n	2e80 <_free_r+0x88>
    2e78:	6810      	ldr	r0, [r2, #0]
    2e7a:	6852      	ldr	r2, [r2, #4]
    2e7c:	1841      	adds	r1, r0, r1
    2e7e:	6021      	str	r1, [r4, #0]
    2e80:	6062      	str	r2, [r4, #4]
    2e82:	605c      	str	r4, [r3, #4]
    2e84:	e7ca      	b.n	2e1c <_free_r+0x24>
    2e86:	46c0      	nop			; (mov r8, r8)
    2e88:	200000d4 	.word	0x200000d4

00002e8c <_malloc_r>:
    2e8c:	2303      	movs	r3, #3
    2e8e:	b570      	push	{r4, r5, r6, lr}
    2e90:	1ccd      	adds	r5, r1, #3
    2e92:	439d      	bics	r5, r3
    2e94:	3508      	adds	r5, #8
    2e96:	0006      	movs	r6, r0
    2e98:	2d0c      	cmp	r5, #12
    2e9a:	d21e      	bcs.n	2eda <_malloc_r+0x4e>
    2e9c:	250c      	movs	r5, #12
    2e9e:	42a9      	cmp	r1, r5
    2ea0:	d81d      	bhi.n	2ede <_malloc_r+0x52>
    2ea2:	0030      	movs	r0, r6
    2ea4:	f000 fbe3 	bl	366e <__malloc_lock>
    2ea8:	4a25      	ldr	r2, [pc, #148]	; (2f40 <_malloc_r+0xb4>)
    2eaa:	6814      	ldr	r4, [r2, #0]
    2eac:	0021      	movs	r1, r4
    2eae:	2900      	cmp	r1, #0
    2eb0:	d119      	bne.n	2ee6 <_malloc_r+0x5a>
    2eb2:	4c24      	ldr	r4, [pc, #144]	; (2f44 <_malloc_r+0xb8>)
    2eb4:	6823      	ldr	r3, [r4, #0]
    2eb6:	2b00      	cmp	r3, #0
    2eb8:	d103      	bne.n	2ec2 <_malloc_r+0x36>
    2eba:	0030      	movs	r0, r6
    2ebc:	f000 fb10 	bl	34e0 <_sbrk_r>
    2ec0:	6020      	str	r0, [r4, #0]
    2ec2:	0029      	movs	r1, r5
    2ec4:	0030      	movs	r0, r6
    2ec6:	f000 fb0b 	bl	34e0 <_sbrk_r>
    2eca:	1c43      	adds	r3, r0, #1
    2ecc:	d12c      	bne.n	2f28 <_malloc_r+0x9c>
    2ece:	230c      	movs	r3, #12
    2ed0:	0030      	movs	r0, r6
    2ed2:	6033      	str	r3, [r6, #0]
    2ed4:	f000 fbcc 	bl	3670 <__malloc_unlock>
    2ed8:	e003      	b.n	2ee2 <_malloc_r+0x56>
    2eda:	2d00      	cmp	r5, #0
    2edc:	dadf      	bge.n	2e9e <_malloc_r+0x12>
    2ede:	230c      	movs	r3, #12
    2ee0:	6033      	str	r3, [r6, #0]
    2ee2:	2000      	movs	r0, #0
    2ee4:	bd70      	pop	{r4, r5, r6, pc}
    2ee6:	680b      	ldr	r3, [r1, #0]
    2ee8:	1b5b      	subs	r3, r3, r5
    2eea:	d41a      	bmi.n	2f22 <_malloc_r+0x96>
    2eec:	2b0b      	cmp	r3, #11
    2eee:	d903      	bls.n	2ef8 <_malloc_r+0x6c>
    2ef0:	600b      	str	r3, [r1, #0]
    2ef2:	18cc      	adds	r4, r1, r3
    2ef4:	6025      	str	r5, [r4, #0]
    2ef6:	e003      	b.n	2f00 <_malloc_r+0x74>
    2ef8:	428c      	cmp	r4, r1
    2efa:	d10e      	bne.n	2f1a <_malloc_r+0x8e>
    2efc:	6863      	ldr	r3, [r4, #4]
    2efe:	6013      	str	r3, [r2, #0]
    2f00:	0030      	movs	r0, r6
    2f02:	f000 fbb5 	bl	3670 <__malloc_unlock>
    2f06:	0020      	movs	r0, r4
    2f08:	2207      	movs	r2, #7
    2f0a:	300b      	adds	r0, #11
    2f0c:	1d23      	adds	r3, r4, #4
    2f0e:	4390      	bics	r0, r2
    2f10:	1ac3      	subs	r3, r0, r3
    2f12:	d0e7      	beq.n	2ee4 <_malloc_r+0x58>
    2f14:	425a      	negs	r2, r3
    2f16:	50e2      	str	r2, [r4, r3]
    2f18:	e7e4      	b.n	2ee4 <_malloc_r+0x58>
    2f1a:	684b      	ldr	r3, [r1, #4]
    2f1c:	6063      	str	r3, [r4, #4]
    2f1e:	000c      	movs	r4, r1
    2f20:	e7ee      	b.n	2f00 <_malloc_r+0x74>
    2f22:	000c      	movs	r4, r1
    2f24:	6849      	ldr	r1, [r1, #4]
    2f26:	e7c2      	b.n	2eae <_malloc_r+0x22>
    2f28:	2303      	movs	r3, #3
    2f2a:	1cc4      	adds	r4, r0, #3
    2f2c:	439c      	bics	r4, r3
    2f2e:	42a0      	cmp	r0, r4
    2f30:	d0e0      	beq.n	2ef4 <_malloc_r+0x68>
    2f32:	1a21      	subs	r1, r4, r0
    2f34:	0030      	movs	r0, r6
    2f36:	f000 fad3 	bl	34e0 <_sbrk_r>
    2f3a:	1c43      	adds	r3, r0, #1
    2f3c:	d1da      	bne.n	2ef4 <_malloc_r+0x68>
    2f3e:	e7c6      	b.n	2ece <_malloc_r+0x42>
    2f40:	200000d4 	.word	0x200000d4
    2f44:	200000d8 	.word	0x200000d8

00002f48 <__sfputc_r>:
    2f48:	6893      	ldr	r3, [r2, #8]
    2f4a:	b510      	push	{r4, lr}
    2f4c:	3b01      	subs	r3, #1
    2f4e:	6093      	str	r3, [r2, #8]
    2f50:	2b00      	cmp	r3, #0
    2f52:	da05      	bge.n	2f60 <__sfputc_r+0x18>
    2f54:	6994      	ldr	r4, [r2, #24]
    2f56:	42a3      	cmp	r3, r4
    2f58:	db08      	blt.n	2f6c <__sfputc_r+0x24>
    2f5a:	b2cb      	uxtb	r3, r1
    2f5c:	2b0a      	cmp	r3, #10
    2f5e:	d005      	beq.n	2f6c <__sfputc_r+0x24>
    2f60:	6813      	ldr	r3, [r2, #0]
    2f62:	1c58      	adds	r0, r3, #1
    2f64:	6010      	str	r0, [r2, #0]
    2f66:	7019      	strb	r1, [r3, #0]
    2f68:	b2c8      	uxtb	r0, r1
    2f6a:	bd10      	pop	{r4, pc}
    2f6c:	f7ff fc74 	bl	2858 <__swbuf_r>
    2f70:	e7fb      	b.n	2f6a <__sfputc_r+0x22>

00002f72 <__sfputs_r>:
    2f72:	b5f8      	push	{r3, r4, r5, r6, r7, lr}
    2f74:	0006      	movs	r6, r0
    2f76:	000f      	movs	r7, r1
    2f78:	0014      	movs	r4, r2
    2f7a:	18d5      	adds	r5, r2, r3
    2f7c:	42ac      	cmp	r4, r5
    2f7e:	d101      	bne.n	2f84 <__sfputs_r+0x12>
    2f80:	2000      	movs	r0, #0
    2f82:	e007      	b.n	2f94 <__sfputs_r+0x22>
    2f84:	7821      	ldrb	r1, [r4, #0]
    2f86:	003a      	movs	r2, r7
    2f88:	0030      	movs	r0, r6
    2f8a:	f7ff ffdd 	bl	2f48 <__sfputc_r>
    2f8e:	3401      	adds	r4, #1
    2f90:	1c43      	adds	r3, r0, #1
    2f92:	d1f3      	bne.n	2f7c <__sfputs_r+0xa>
    2f94:	bdf8      	pop	{r3, r4, r5, r6, r7, pc}
	...

00002f98 <_vfiprintf_r>:
    2f98:	b5f0      	push	{r4, r5, r6, r7, lr}
    2f9a:	b09f      	sub	sp, #124	; 0x7c
    2f9c:	0006      	movs	r6, r0
    2f9e:	000f      	movs	r7, r1
    2fa0:	0014      	movs	r4, r2
    2fa2:	9305      	str	r3, [sp, #20]
    2fa4:	2800      	cmp	r0, #0
    2fa6:	d004      	beq.n	2fb2 <_vfiprintf_r+0x1a>
    2fa8:	6983      	ldr	r3, [r0, #24]
    2faa:	2b00      	cmp	r3, #0
    2fac:	d101      	bne.n	2fb2 <_vfiprintf_r+0x1a>
    2fae:	f7ff fe17 	bl	2be0 <__sinit>
    2fb2:	4b7f      	ldr	r3, [pc, #508]	; (31b0 <_vfiprintf_r+0x218>)
    2fb4:	429f      	cmp	r7, r3
    2fb6:	d15c      	bne.n	3072 <_vfiprintf_r+0xda>
    2fb8:	6877      	ldr	r7, [r6, #4]
    2fba:	89bb      	ldrh	r3, [r7, #12]
    2fbc:	071b      	lsls	r3, r3, #28
    2fbe:	d562      	bpl.n	3086 <_vfiprintf_r+0xee>
    2fc0:	693b      	ldr	r3, [r7, #16]
    2fc2:	2b00      	cmp	r3, #0
    2fc4:	d05f      	beq.n	3086 <_vfiprintf_r+0xee>
    2fc6:	2300      	movs	r3, #0
    2fc8:	ad06      	add	r5, sp, #24
    2fca:	616b      	str	r3, [r5, #20]
    2fcc:	3320      	adds	r3, #32
    2fce:	766b      	strb	r3, [r5, #25]
    2fd0:	3310      	adds	r3, #16
    2fd2:	76ab      	strb	r3, [r5, #26]
    2fd4:	9402      	str	r4, [sp, #8]
    2fd6:	9c02      	ldr	r4, [sp, #8]
    2fd8:	7823      	ldrb	r3, [r4, #0]
    2fda:	2b00      	cmp	r3, #0
    2fdc:	d15d      	bne.n	309a <_vfiprintf_r+0x102>
    2fde:	9b02      	ldr	r3, [sp, #8]
    2fe0:	1ae3      	subs	r3, r4, r3
    2fe2:	9304      	str	r3, [sp, #16]
    2fe4:	d00d      	beq.n	3002 <_vfiprintf_r+0x6a>
    2fe6:	9b04      	ldr	r3, [sp, #16]
    2fe8:	9a02      	ldr	r2, [sp, #8]
    2fea:	0039      	movs	r1, r7
    2fec:	0030      	movs	r0, r6
    2fee:	f7ff ffc0 	bl	2f72 <__sfputs_r>
    2ff2:	1c43      	adds	r3, r0, #1
    2ff4:	d100      	bne.n	2ff8 <_vfiprintf_r+0x60>
    2ff6:	e0cc      	b.n	3192 <_vfiprintf_r+0x1fa>
    2ff8:	696a      	ldr	r2, [r5, #20]
    2ffa:	9b04      	ldr	r3, [sp, #16]
    2ffc:	4694      	mov	ip, r2
    2ffe:	4463      	add	r3, ip
    3000:	616b      	str	r3, [r5, #20]
    3002:	7823      	ldrb	r3, [r4, #0]
    3004:	2b00      	cmp	r3, #0
    3006:	d100      	bne.n	300a <_vfiprintf_r+0x72>
    3008:	e0c3      	b.n	3192 <_vfiprintf_r+0x1fa>
    300a:	2201      	movs	r2, #1
    300c:	2300      	movs	r3, #0
    300e:	4252      	negs	r2, r2
    3010:	606a      	str	r2, [r5, #4]
    3012:	a902      	add	r1, sp, #8
    3014:	3254      	adds	r2, #84	; 0x54
    3016:	1852      	adds	r2, r2, r1
    3018:	3401      	adds	r4, #1
    301a:	602b      	str	r3, [r5, #0]
    301c:	60eb      	str	r3, [r5, #12]
    301e:	60ab      	str	r3, [r5, #8]
    3020:	7013      	strb	r3, [r2, #0]
    3022:	65ab      	str	r3, [r5, #88]	; 0x58
    3024:	7821      	ldrb	r1, [r4, #0]
    3026:	2205      	movs	r2, #5
    3028:	4862      	ldr	r0, [pc, #392]	; (31b4 <_vfiprintf_r+0x21c>)
    302a:	f000 fb15 	bl	3658 <memchr>
    302e:	1c63      	adds	r3, r4, #1
    3030:	469c      	mov	ip, r3
    3032:	2800      	cmp	r0, #0
    3034:	d135      	bne.n	30a2 <_vfiprintf_r+0x10a>
    3036:	6829      	ldr	r1, [r5, #0]
    3038:	06cb      	lsls	r3, r1, #27
    303a:	d504      	bpl.n	3046 <_vfiprintf_r+0xae>
    303c:	2353      	movs	r3, #83	; 0x53
    303e:	aa02      	add	r2, sp, #8
    3040:	3020      	adds	r0, #32
    3042:	189b      	adds	r3, r3, r2
    3044:	7018      	strb	r0, [r3, #0]
    3046:	070b      	lsls	r3, r1, #28
    3048:	d504      	bpl.n	3054 <_vfiprintf_r+0xbc>
    304a:	2353      	movs	r3, #83	; 0x53
    304c:	202b      	movs	r0, #43	; 0x2b
    304e:	aa02      	add	r2, sp, #8
    3050:	189b      	adds	r3, r3, r2
    3052:	7018      	strb	r0, [r3, #0]
    3054:	7823      	ldrb	r3, [r4, #0]
    3056:	2b2a      	cmp	r3, #42	; 0x2a
    3058:	d02c      	beq.n	30b4 <_vfiprintf_r+0x11c>
    305a:	2000      	movs	r0, #0
    305c:	210a      	movs	r1, #10
    305e:	9b09      	ldr	r3, [sp, #36]	; 0x24
    3060:	7822      	ldrb	r2, [r4, #0]
    3062:	3a30      	subs	r2, #48	; 0x30
    3064:	2a09      	cmp	r2, #9
    3066:	d800      	bhi.n	306a <_vfiprintf_r+0xd2>
    3068:	e06b      	b.n	3142 <_vfiprintf_r+0x1aa>
    306a:	2800      	cmp	r0, #0
    306c:	d02a      	beq.n	30c4 <_vfiprintf_r+0x12c>
    306e:	9309      	str	r3, [sp, #36]	; 0x24
    3070:	e028      	b.n	30c4 <_vfiprintf_r+0x12c>
    3072:	4b51      	ldr	r3, [pc, #324]	; (31b8 <_vfiprintf_r+0x220>)
    3074:	429f      	cmp	r7, r3
    3076:	d101      	bne.n	307c <_vfiprintf_r+0xe4>
    3078:	68b7      	ldr	r7, [r6, #8]
    307a:	e79e      	b.n	2fba <_vfiprintf_r+0x22>
    307c:	4b4f      	ldr	r3, [pc, #316]	; (31bc <_vfiprintf_r+0x224>)
    307e:	429f      	cmp	r7, r3
    3080:	d19b      	bne.n	2fba <_vfiprintf_r+0x22>
    3082:	68f7      	ldr	r7, [r6, #12]
    3084:	e799      	b.n	2fba <_vfiprintf_r+0x22>
    3086:	0039      	movs	r1, r7
    3088:	0030      	movs	r0, r6
    308a:	f7ff fc3b 	bl	2904 <__swsetup_r>
    308e:	2800      	cmp	r0, #0
    3090:	d099      	beq.n	2fc6 <_vfiprintf_r+0x2e>
    3092:	2001      	movs	r0, #1
    3094:	4240      	negs	r0, r0
    3096:	b01f      	add	sp, #124	; 0x7c
    3098:	bdf0      	pop	{r4, r5, r6, r7, pc}
    309a:	2b25      	cmp	r3, #37	; 0x25
    309c:	d09f      	beq.n	2fde <_vfiprintf_r+0x46>
    309e:	3401      	adds	r4, #1
    30a0:	e79a      	b.n	2fd8 <_vfiprintf_r+0x40>
    30a2:	4b44      	ldr	r3, [pc, #272]	; (31b4 <_vfiprintf_r+0x21c>)
    30a4:	6829      	ldr	r1, [r5, #0]
    30a6:	1ac0      	subs	r0, r0, r3
    30a8:	2301      	movs	r3, #1
    30aa:	4083      	lsls	r3, r0
    30ac:	430b      	orrs	r3, r1
    30ae:	602b      	str	r3, [r5, #0]
    30b0:	4664      	mov	r4, ip
    30b2:	e7b7      	b.n	3024 <_vfiprintf_r+0x8c>
    30b4:	9b05      	ldr	r3, [sp, #20]
    30b6:	1d18      	adds	r0, r3, #4
    30b8:	681b      	ldr	r3, [r3, #0]
    30ba:	9005      	str	r0, [sp, #20]
    30bc:	2b00      	cmp	r3, #0
    30be:	db3a      	blt.n	3136 <_vfiprintf_r+0x19e>
    30c0:	9309      	str	r3, [sp, #36]	; 0x24
    30c2:	4664      	mov	r4, ip
    30c4:	7823      	ldrb	r3, [r4, #0]
    30c6:	2b2e      	cmp	r3, #46	; 0x2e
    30c8:	d10b      	bne.n	30e2 <_vfiprintf_r+0x14a>
    30ca:	7863      	ldrb	r3, [r4, #1]
    30cc:	1c62      	adds	r2, r4, #1
    30ce:	2b2a      	cmp	r3, #42	; 0x2a
    30d0:	d13f      	bne.n	3152 <_vfiprintf_r+0x1ba>
    30d2:	9b05      	ldr	r3, [sp, #20]
    30d4:	3402      	adds	r4, #2
    30d6:	1d1a      	adds	r2, r3, #4
    30d8:	681b      	ldr	r3, [r3, #0]
    30da:	9205      	str	r2, [sp, #20]
    30dc:	2b00      	cmp	r3, #0
    30de:	db35      	blt.n	314c <_vfiprintf_r+0x1b4>
    30e0:	9307      	str	r3, [sp, #28]
    30e2:	7821      	ldrb	r1, [r4, #0]
    30e4:	2203      	movs	r2, #3
    30e6:	4836      	ldr	r0, [pc, #216]	; (31c0 <_vfiprintf_r+0x228>)
    30e8:	f000 fab6 	bl	3658 <memchr>
    30ec:	2800      	cmp	r0, #0
    30ee:	d007      	beq.n	3100 <_vfiprintf_r+0x168>
    30f0:	4b33      	ldr	r3, [pc, #204]	; (31c0 <_vfiprintf_r+0x228>)
    30f2:	682a      	ldr	r2, [r5, #0]
    30f4:	1ac0      	subs	r0, r0, r3
    30f6:	2340      	movs	r3, #64	; 0x40
    30f8:	4083      	lsls	r3, r0
    30fa:	4313      	orrs	r3, r2
    30fc:	602b      	str	r3, [r5, #0]
    30fe:	3401      	adds	r4, #1
    3100:	7821      	ldrb	r1, [r4, #0]
    3102:	1c63      	adds	r3, r4, #1
    3104:	2206      	movs	r2, #6
    3106:	482f      	ldr	r0, [pc, #188]	; (31c4 <_vfiprintf_r+0x22c>)
    3108:	9302      	str	r3, [sp, #8]
    310a:	7629      	strb	r1, [r5, #24]
    310c:	f000 faa4 	bl	3658 <memchr>
    3110:	2800      	cmp	r0, #0
    3112:	d044      	beq.n	319e <_vfiprintf_r+0x206>
    3114:	4b2c      	ldr	r3, [pc, #176]	; (31c8 <_vfiprintf_r+0x230>)
    3116:	2b00      	cmp	r3, #0
    3118:	d12f      	bne.n	317a <_vfiprintf_r+0x1e2>
    311a:	6829      	ldr	r1, [r5, #0]
    311c:	9b05      	ldr	r3, [sp, #20]
    311e:	2207      	movs	r2, #7
    3120:	05c9      	lsls	r1, r1, #23
    3122:	d528      	bpl.n	3176 <_vfiprintf_r+0x1de>
    3124:	189b      	adds	r3, r3, r2
    3126:	4393      	bics	r3, r2
    3128:	3308      	adds	r3, #8
    312a:	9305      	str	r3, [sp, #20]
    312c:	696b      	ldr	r3, [r5, #20]
    312e:	9a03      	ldr	r2, [sp, #12]
    3130:	189b      	adds	r3, r3, r2
    3132:	616b      	str	r3, [r5, #20]
    3134:	e74f      	b.n	2fd6 <_vfiprintf_r+0x3e>
    3136:	425b      	negs	r3, r3
    3138:	60eb      	str	r3, [r5, #12]
    313a:	2302      	movs	r3, #2
    313c:	430b      	orrs	r3, r1
    313e:	602b      	str	r3, [r5, #0]
    3140:	e7bf      	b.n	30c2 <_vfiprintf_r+0x12a>
    3142:	434b      	muls	r3, r1
    3144:	3401      	adds	r4, #1
    3146:	189b      	adds	r3, r3, r2
    3148:	2001      	movs	r0, #1
    314a:	e789      	b.n	3060 <_vfiprintf_r+0xc8>
    314c:	2301      	movs	r3, #1
    314e:	425b      	negs	r3, r3
    3150:	e7c6      	b.n	30e0 <_vfiprintf_r+0x148>
    3152:	2300      	movs	r3, #0
    3154:	0014      	movs	r4, r2
    3156:	200a      	movs	r0, #10
    3158:	001a      	movs	r2, r3
    315a:	606b      	str	r3, [r5, #4]
    315c:	7821      	ldrb	r1, [r4, #0]
    315e:	3930      	subs	r1, #48	; 0x30
    3160:	2909      	cmp	r1, #9
    3162:	d903      	bls.n	316c <_vfiprintf_r+0x1d4>
    3164:	2b00      	cmp	r3, #0
    3166:	d0bc      	beq.n	30e2 <_vfiprintf_r+0x14a>
    3168:	9207      	str	r2, [sp, #28]
    316a:	e7ba      	b.n	30e2 <_vfiprintf_r+0x14a>
    316c:	4342      	muls	r2, r0
    316e:	3401      	adds	r4, #1
    3170:	1852      	adds	r2, r2, r1
    3172:	2301      	movs	r3, #1
    3174:	e7f2      	b.n	315c <_vfiprintf_r+0x1c4>
    3176:	3307      	adds	r3, #7
    3178:	e7d5      	b.n	3126 <_vfiprintf_r+0x18e>
    317a:	ab05      	add	r3, sp, #20
    317c:	9300      	str	r3, [sp, #0]
    317e:	003a      	movs	r2, r7
    3180:	4b12      	ldr	r3, [pc, #72]	; (31cc <_vfiprintf_r+0x234>)
    3182:	0029      	movs	r1, r5
    3184:	0030      	movs	r0, r6
    3186:	e000      	b.n	318a <_vfiprintf_r+0x1f2>
    3188:	bf00      	nop
    318a:	9003      	str	r0, [sp, #12]
    318c:	9b03      	ldr	r3, [sp, #12]
    318e:	3301      	adds	r3, #1
    3190:	d1cc      	bne.n	312c <_vfiprintf_r+0x194>
    3192:	89bb      	ldrh	r3, [r7, #12]
    3194:	065b      	lsls	r3, r3, #25
    3196:	d500      	bpl.n	319a <_vfiprintf_r+0x202>
    3198:	e77b      	b.n	3092 <_vfiprintf_r+0xfa>
    319a:	980b      	ldr	r0, [sp, #44]	; 0x2c
    319c:	e77b      	b.n	3096 <_vfiprintf_r+0xfe>
    319e:	ab05      	add	r3, sp, #20
    31a0:	9300      	str	r3, [sp, #0]
    31a2:	003a      	movs	r2, r7
    31a4:	4b09      	ldr	r3, [pc, #36]	; (31cc <_vfiprintf_r+0x234>)
    31a6:	0029      	movs	r1, r5
    31a8:	0030      	movs	r0, r6
    31aa:	f000 f87f 	bl	32ac <_printf_i>
    31ae:	e7ec      	b.n	318a <_vfiprintf_r+0x1f2>
    31b0:	000039e0 	.word	0x000039e0
    31b4:	00003a20 	.word	0x00003a20
    31b8:	00003a00 	.word	0x00003a00
    31bc:	000039c0 	.word	0x000039c0
    31c0:	00003a26 	.word	0x00003a26
    31c4:	00003a2a 	.word	0x00003a2a
    31c8:	00000000 	.word	0x00000000
    31cc:	00002f73 	.word	0x00002f73

000031d0 <_printf_common>:
    31d0:	b5f7      	push	{r0, r1, r2, r4, r5, r6, r7, lr}
    31d2:	0015      	movs	r5, r2
    31d4:	9301      	str	r3, [sp, #4]
    31d6:	688a      	ldr	r2, [r1, #8]
    31d8:	690b      	ldr	r3, [r1, #16]
    31da:	9000      	str	r0, [sp, #0]
    31dc:	000c      	movs	r4, r1
    31de:	4293      	cmp	r3, r2
    31e0:	da00      	bge.n	31e4 <_printf_common+0x14>
    31e2:	0013      	movs	r3, r2
    31e4:	0022      	movs	r2, r4
    31e6:	602b      	str	r3, [r5, #0]
    31e8:	3243      	adds	r2, #67	; 0x43
    31ea:	7812      	ldrb	r2, [r2, #0]
    31ec:	2a00      	cmp	r2, #0
    31ee:	d001      	beq.n	31f4 <_printf_common+0x24>
    31f0:	3301      	adds	r3, #1
    31f2:	602b      	str	r3, [r5, #0]
    31f4:	6823      	ldr	r3, [r4, #0]
    31f6:	069b      	lsls	r3, r3, #26
    31f8:	d502      	bpl.n	3200 <_printf_common+0x30>
    31fa:	682b      	ldr	r3, [r5, #0]
    31fc:	3302      	adds	r3, #2
    31fe:	602b      	str	r3, [r5, #0]
    3200:	2706      	movs	r7, #6
    3202:	6823      	ldr	r3, [r4, #0]
    3204:	401f      	ands	r7, r3
    3206:	d027      	beq.n	3258 <_printf_common+0x88>
    3208:	0023      	movs	r3, r4
    320a:	3343      	adds	r3, #67	; 0x43
    320c:	781b      	ldrb	r3, [r3, #0]
    320e:	1e5a      	subs	r2, r3, #1
    3210:	4193      	sbcs	r3, r2
    3212:	6822      	ldr	r2, [r4, #0]
    3214:	0692      	lsls	r2, r2, #26
    3216:	d430      	bmi.n	327a <_printf_common+0xaa>
    3218:	0022      	movs	r2, r4
    321a:	9901      	ldr	r1, [sp, #4]
    321c:	3243      	adds	r2, #67	; 0x43
    321e:	9800      	ldr	r0, [sp, #0]
    3220:	9e08      	ldr	r6, [sp, #32]
    3222:	47b0      	blx	r6
    3224:	1c43      	adds	r3, r0, #1
    3226:	d025      	beq.n	3274 <_printf_common+0xa4>
    3228:	2306      	movs	r3, #6
    322a:	6820      	ldr	r0, [r4, #0]
    322c:	682a      	ldr	r2, [r5, #0]
    322e:	68e1      	ldr	r1, [r4, #12]
    3230:	4003      	ands	r3, r0
    3232:	2500      	movs	r5, #0
    3234:	2b04      	cmp	r3, #4
    3236:	d103      	bne.n	3240 <_printf_common+0x70>
    3238:	1a8d      	subs	r5, r1, r2
    323a:	43eb      	mvns	r3, r5
    323c:	17db      	asrs	r3, r3, #31
    323e:	401d      	ands	r5, r3
    3240:	68a3      	ldr	r3, [r4, #8]
    3242:	6922      	ldr	r2, [r4, #16]
    3244:	4293      	cmp	r3, r2
    3246:	dd01      	ble.n	324c <_printf_common+0x7c>
    3248:	1a9b      	subs	r3, r3, r2
    324a:	18ed      	adds	r5, r5, r3
    324c:	2700      	movs	r7, #0
    324e:	42bd      	cmp	r5, r7
    3250:	d120      	bne.n	3294 <_printf_common+0xc4>
    3252:	2000      	movs	r0, #0
    3254:	e010      	b.n	3278 <_printf_common+0xa8>
    3256:	3701      	adds	r7, #1
    3258:	68e3      	ldr	r3, [r4, #12]
    325a:	682a      	ldr	r2, [r5, #0]
    325c:	1a9b      	subs	r3, r3, r2
    325e:	429f      	cmp	r7, r3
    3260:	dad2      	bge.n	3208 <_printf_common+0x38>
    3262:	0022      	movs	r2, r4
    3264:	2301      	movs	r3, #1
    3266:	3219      	adds	r2, #25
    3268:	9901      	ldr	r1, [sp, #4]
    326a:	9800      	ldr	r0, [sp, #0]
    326c:	9e08      	ldr	r6, [sp, #32]
    326e:	47b0      	blx	r6
    3270:	1c43      	adds	r3, r0, #1
    3272:	d1f0      	bne.n	3256 <_printf_common+0x86>
    3274:	2001      	movs	r0, #1
    3276:	4240      	negs	r0, r0
    3278:	bdfe      	pop	{r1, r2, r3, r4, r5, r6, r7, pc}
    327a:	2030      	movs	r0, #48	; 0x30
    327c:	18e1      	adds	r1, r4, r3
    327e:	3143      	adds	r1, #67	; 0x43
    3280:	7008      	strb	r0, [r1, #0]
    3282:	0021      	movs	r1, r4
    3284:	1c5a      	adds	r2, r3, #1
    3286:	3145      	adds	r1, #69	; 0x45
    3288:	7809      	ldrb	r1, [r1, #0]
    328a:	18a2      	adds	r2, r4, r2
    328c:	3243      	adds	r2, #67	; 0x43
    328e:	3302      	adds	r3, #2
    3290:	7011      	strb	r1, [r2, #0]
    3292:	e7c1      	b.n	3218 <_printf_common+0x48>
    3294:	0022      	movs	r2, r4
    3296:	2301      	movs	r3, #1
    3298:	321a      	adds	r2, #26
    329a:	9901      	ldr	r1, [sp, #4]
    329c:	9800      	ldr	r0, [sp, #0]
    329e:	9e08      	ldr	r6, [sp, #32]
    32a0:	47b0      	blx	r6
    32a2:	1c43      	adds	r3, r0, #1
    32a4:	d0e6      	beq.n	3274 <_printf_common+0xa4>
    32a6:	3701      	adds	r7, #1
    32a8:	e7d1      	b.n	324e <_printf_common+0x7e>
	...

000032ac <_printf_i>:
    32ac:	b5f0      	push	{r4, r5, r6, r7, lr}
    32ae:	b08b      	sub	sp, #44	; 0x2c
    32b0:	9206      	str	r2, [sp, #24]
    32b2:	000a      	movs	r2, r1
    32b4:	3243      	adds	r2, #67	; 0x43
    32b6:	9307      	str	r3, [sp, #28]
    32b8:	9005      	str	r0, [sp, #20]
    32ba:	9204      	str	r2, [sp, #16]
    32bc:	7e0a      	ldrb	r2, [r1, #24]
    32be:	000c      	movs	r4, r1
    32c0:	9b10      	ldr	r3, [sp, #64]	; 0x40
    32c2:	2a6e      	cmp	r2, #110	; 0x6e
    32c4:	d100      	bne.n	32c8 <_printf_i+0x1c>
    32c6:	e08f      	b.n	33e8 <_printf_i+0x13c>
    32c8:	d817      	bhi.n	32fa <_printf_i+0x4e>
    32ca:	2a63      	cmp	r2, #99	; 0x63
    32cc:	d02c      	beq.n	3328 <_printf_i+0x7c>
    32ce:	d808      	bhi.n	32e2 <_printf_i+0x36>
    32d0:	2a00      	cmp	r2, #0
    32d2:	d100      	bne.n	32d6 <_printf_i+0x2a>
    32d4:	e099      	b.n	340a <_printf_i+0x15e>
    32d6:	2a58      	cmp	r2, #88	; 0x58
    32d8:	d054      	beq.n	3384 <_printf_i+0xd8>
    32da:	0026      	movs	r6, r4
    32dc:	3642      	adds	r6, #66	; 0x42
    32de:	7032      	strb	r2, [r6, #0]
    32e0:	e029      	b.n	3336 <_printf_i+0x8a>
    32e2:	2a64      	cmp	r2, #100	; 0x64
    32e4:	d001      	beq.n	32ea <_printf_i+0x3e>
    32e6:	2a69      	cmp	r2, #105	; 0x69
    32e8:	d1f7      	bne.n	32da <_printf_i+0x2e>
    32ea:	6821      	ldr	r1, [r4, #0]
    32ec:	681a      	ldr	r2, [r3, #0]
    32ee:	0608      	lsls	r0, r1, #24
    32f0:	d523      	bpl.n	333a <_printf_i+0x8e>
    32f2:	1d11      	adds	r1, r2, #4
    32f4:	6019      	str	r1, [r3, #0]
    32f6:	6815      	ldr	r5, [r2, #0]
    32f8:	e025      	b.n	3346 <_printf_i+0x9a>
    32fa:	2a73      	cmp	r2, #115	; 0x73
    32fc:	d100      	bne.n	3300 <_printf_i+0x54>
    32fe:	e088      	b.n	3412 <_printf_i+0x166>
    3300:	d808      	bhi.n	3314 <_printf_i+0x68>
    3302:	2a6f      	cmp	r2, #111	; 0x6f
    3304:	d029      	beq.n	335a <_printf_i+0xae>
    3306:	2a70      	cmp	r2, #112	; 0x70
    3308:	d1e7      	bne.n	32da <_printf_i+0x2e>
    330a:	2220      	movs	r2, #32
    330c:	6809      	ldr	r1, [r1, #0]
    330e:	430a      	orrs	r2, r1
    3310:	6022      	str	r2, [r4, #0]
    3312:	e003      	b.n	331c <_printf_i+0x70>
    3314:	2a75      	cmp	r2, #117	; 0x75
    3316:	d020      	beq.n	335a <_printf_i+0xae>
    3318:	2a78      	cmp	r2, #120	; 0x78
    331a:	d1de      	bne.n	32da <_printf_i+0x2e>
    331c:	0022      	movs	r2, r4
    331e:	2178      	movs	r1, #120	; 0x78
    3320:	3245      	adds	r2, #69	; 0x45
    3322:	7011      	strb	r1, [r2, #0]
    3324:	4a6c      	ldr	r2, [pc, #432]	; (34d8 <_printf_i+0x22c>)
    3326:	e030      	b.n	338a <_printf_i+0xde>
    3328:	000e      	movs	r6, r1
    332a:	681a      	ldr	r2, [r3, #0]
    332c:	3642      	adds	r6, #66	; 0x42
    332e:	1d11      	adds	r1, r2, #4
    3330:	6019      	str	r1, [r3, #0]
    3332:	6813      	ldr	r3, [r2, #0]
    3334:	7033      	strb	r3, [r6, #0]
    3336:	2301      	movs	r3, #1
    3338:	e079      	b.n	342e <_printf_i+0x182>
    333a:	0649      	lsls	r1, r1, #25
    333c:	d5d9      	bpl.n	32f2 <_printf_i+0x46>
    333e:	1d11      	adds	r1, r2, #4
    3340:	6019      	str	r1, [r3, #0]
    3342:	2300      	movs	r3, #0
    3344:	5ed5      	ldrsh	r5, [r2, r3]
    3346:	2d00      	cmp	r5, #0
    3348:	da03      	bge.n	3352 <_printf_i+0xa6>
    334a:	232d      	movs	r3, #45	; 0x2d
    334c:	9a04      	ldr	r2, [sp, #16]
    334e:	426d      	negs	r5, r5
    3350:	7013      	strb	r3, [r2, #0]
    3352:	4b62      	ldr	r3, [pc, #392]	; (34dc <_printf_i+0x230>)
    3354:	270a      	movs	r7, #10
    3356:	9303      	str	r3, [sp, #12]
    3358:	e02f      	b.n	33ba <_printf_i+0x10e>
    335a:	6820      	ldr	r0, [r4, #0]
    335c:	6819      	ldr	r1, [r3, #0]
    335e:	0605      	lsls	r5, r0, #24
    3360:	d503      	bpl.n	336a <_printf_i+0xbe>
    3362:	1d08      	adds	r0, r1, #4
    3364:	6018      	str	r0, [r3, #0]
    3366:	680d      	ldr	r5, [r1, #0]
    3368:	e005      	b.n	3376 <_printf_i+0xca>
    336a:	0640      	lsls	r0, r0, #25
    336c:	d5f9      	bpl.n	3362 <_printf_i+0xb6>
    336e:	680d      	ldr	r5, [r1, #0]
    3370:	1d08      	adds	r0, r1, #4
    3372:	6018      	str	r0, [r3, #0]
    3374:	b2ad      	uxth	r5, r5
    3376:	4b59      	ldr	r3, [pc, #356]	; (34dc <_printf_i+0x230>)
    3378:	2708      	movs	r7, #8
    337a:	9303      	str	r3, [sp, #12]
    337c:	2a6f      	cmp	r2, #111	; 0x6f
    337e:	d018      	beq.n	33b2 <_printf_i+0x106>
    3380:	270a      	movs	r7, #10
    3382:	e016      	b.n	33b2 <_printf_i+0x106>
    3384:	3145      	adds	r1, #69	; 0x45
    3386:	700a      	strb	r2, [r1, #0]
    3388:	4a54      	ldr	r2, [pc, #336]	; (34dc <_printf_i+0x230>)
    338a:	9203      	str	r2, [sp, #12]
    338c:	681a      	ldr	r2, [r3, #0]
    338e:	6821      	ldr	r1, [r4, #0]
    3390:	1d10      	adds	r0, r2, #4
    3392:	6018      	str	r0, [r3, #0]
    3394:	6815      	ldr	r5, [r2, #0]
    3396:	0608      	lsls	r0, r1, #24
    3398:	d522      	bpl.n	33e0 <_printf_i+0x134>
    339a:	07cb      	lsls	r3, r1, #31
    339c:	d502      	bpl.n	33a4 <_printf_i+0xf8>
    339e:	2320      	movs	r3, #32
    33a0:	4319      	orrs	r1, r3
    33a2:	6021      	str	r1, [r4, #0]
    33a4:	2710      	movs	r7, #16
    33a6:	2d00      	cmp	r5, #0
    33a8:	d103      	bne.n	33b2 <_printf_i+0x106>
    33aa:	2320      	movs	r3, #32
    33ac:	6822      	ldr	r2, [r4, #0]
    33ae:	439a      	bics	r2, r3
    33b0:	6022      	str	r2, [r4, #0]
    33b2:	0023      	movs	r3, r4
    33b4:	2200      	movs	r2, #0
    33b6:	3343      	adds	r3, #67	; 0x43
    33b8:	701a      	strb	r2, [r3, #0]
    33ba:	6863      	ldr	r3, [r4, #4]
    33bc:	60a3      	str	r3, [r4, #8]
    33be:	2b00      	cmp	r3, #0
    33c0:	db5c      	blt.n	347c <_printf_i+0x1d0>
    33c2:	2204      	movs	r2, #4
    33c4:	6821      	ldr	r1, [r4, #0]
    33c6:	4391      	bics	r1, r2
    33c8:	6021      	str	r1, [r4, #0]
    33ca:	2d00      	cmp	r5, #0
    33cc:	d158      	bne.n	3480 <_printf_i+0x1d4>
    33ce:	9e04      	ldr	r6, [sp, #16]
    33d0:	2b00      	cmp	r3, #0
    33d2:	d064      	beq.n	349e <_printf_i+0x1f2>
    33d4:	0026      	movs	r6, r4
    33d6:	9b03      	ldr	r3, [sp, #12]
    33d8:	3642      	adds	r6, #66	; 0x42
    33da:	781b      	ldrb	r3, [r3, #0]
    33dc:	7033      	strb	r3, [r6, #0]
    33de:	e05e      	b.n	349e <_printf_i+0x1f2>
    33e0:	0648      	lsls	r0, r1, #25
    33e2:	d5da      	bpl.n	339a <_printf_i+0xee>
    33e4:	b2ad      	uxth	r5, r5
    33e6:	e7d8      	b.n	339a <_printf_i+0xee>
    33e8:	6809      	ldr	r1, [r1, #0]
    33ea:	681a      	ldr	r2, [r3, #0]
    33ec:	0608      	lsls	r0, r1, #24
    33ee:	d505      	bpl.n	33fc <_printf_i+0x150>
    33f0:	1d11      	adds	r1, r2, #4
    33f2:	6019      	str	r1, [r3, #0]
    33f4:	6813      	ldr	r3, [r2, #0]
    33f6:	6962      	ldr	r2, [r4, #20]
    33f8:	601a      	str	r2, [r3, #0]
    33fa:	e006      	b.n	340a <_printf_i+0x15e>
    33fc:	0649      	lsls	r1, r1, #25
    33fe:	d5f7      	bpl.n	33f0 <_printf_i+0x144>
    3400:	1d11      	adds	r1, r2, #4
    3402:	6019      	str	r1, [r3, #0]
    3404:	6813      	ldr	r3, [r2, #0]
    3406:	8aa2      	ldrh	r2, [r4, #20]
    3408:	801a      	strh	r2, [r3, #0]
    340a:	2300      	movs	r3, #0
    340c:	9e04      	ldr	r6, [sp, #16]
    340e:	6123      	str	r3, [r4, #16]
    3410:	e054      	b.n	34bc <_printf_i+0x210>
    3412:	681a      	ldr	r2, [r3, #0]
    3414:	1d11      	adds	r1, r2, #4
    3416:	6019      	str	r1, [r3, #0]
    3418:	6816      	ldr	r6, [r2, #0]
    341a:	2100      	movs	r1, #0
    341c:	6862      	ldr	r2, [r4, #4]
    341e:	0030      	movs	r0, r6
    3420:	f000 f91a 	bl	3658 <memchr>
    3424:	2800      	cmp	r0, #0
    3426:	d001      	beq.n	342c <_printf_i+0x180>
    3428:	1b80      	subs	r0, r0, r6
    342a:	6060      	str	r0, [r4, #4]
    342c:	6863      	ldr	r3, [r4, #4]
    342e:	6123      	str	r3, [r4, #16]
    3430:	2300      	movs	r3, #0
    3432:	9a04      	ldr	r2, [sp, #16]
    3434:	7013      	strb	r3, [r2, #0]
    3436:	e041      	b.n	34bc <_printf_i+0x210>
    3438:	6923      	ldr	r3, [r4, #16]
    343a:	0032      	movs	r2, r6
    343c:	9906      	ldr	r1, [sp, #24]
    343e:	9805      	ldr	r0, [sp, #20]
    3440:	9d07      	ldr	r5, [sp, #28]
    3442:	47a8      	blx	r5
    3444:	1c43      	adds	r3, r0, #1
    3446:	d043      	beq.n	34d0 <_printf_i+0x224>
    3448:	6823      	ldr	r3, [r4, #0]
    344a:	2500      	movs	r5, #0
    344c:	079b      	lsls	r3, r3, #30
    344e:	d40f      	bmi.n	3470 <_printf_i+0x1c4>
    3450:	9b09      	ldr	r3, [sp, #36]	; 0x24
    3452:	68e0      	ldr	r0, [r4, #12]
    3454:	4298      	cmp	r0, r3
    3456:	da3d      	bge.n	34d4 <_printf_i+0x228>
    3458:	0018      	movs	r0, r3
    345a:	e03b      	b.n	34d4 <_printf_i+0x228>
    345c:	0022      	movs	r2, r4
    345e:	2301      	movs	r3, #1
    3460:	3219      	adds	r2, #25
    3462:	9906      	ldr	r1, [sp, #24]
    3464:	9805      	ldr	r0, [sp, #20]
    3466:	9e07      	ldr	r6, [sp, #28]
    3468:	47b0      	blx	r6
    346a:	1c43      	adds	r3, r0, #1
    346c:	d030      	beq.n	34d0 <_printf_i+0x224>
    346e:	3501      	adds	r5, #1
    3470:	68e3      	ldr	r3, [r4, #12]
    3472:	9a09      	ldr	r2, [sp, #36]	; 0x24
    3474:	1a9b      	subs	r3, r3, r2
    3476:	429d      	cmp	r5, r3
    3478:	dbf0      	blt.n	345c <_printf_i+0x1b0>
    347a:	e7e9      	b.n	3450 <_printf_i+0x1a4>
    347c:	2d00      	cmp	r5, #0
    347e:	d0a9      	beq.n	33d4 <_printf_i+0x128>
    3480:	9e04      	ldr	r6, [sp, #16]
    3482:	0028      	movs	r0, r5
    3484:	0039      	movs	r1, r7
    3486:	f7ff f845 	bl	2514 <__aeabi_uidivmod>
    348a:	9b03      	ldr	r3, [sp, #12]
    348c:	3e01      	subs	r6, #1
    348e:	5c5b      	ldrb	r3, [r3, r1]
    3490:	0028      	movs	r0, r5
    3492:	7033      	strb	r3, [r6, #0]
    3494:	0039      	movs	r1, r7
    3496:	f7fe ffb7 	bl	2408 <__udivsi3>
    349a:	1e05      	subs	r5, r0, #0
    349c:	d1f1      	bne.n	3482 <_printf_i+0x1d6>
    349e:	2f08      	cmp	r7, #8
    34a0:	d109      	bne.n	34b6 <_printf_i+0x20a>
    34a2:	6823      	ldr	r3, [r4, #0]
    34a4:	07db      	lsls	r3, r3, #31
    34a6:	d506      	bpl.n	34b6 <_printf_i+0x20a>
    34a8:	6863      	ldr	r3, [r4, #4]
    34aa:	6922      	ldr	r2, [r4, #16]
    34ac:	4293      	cmp	r3, r2
    34ae:	dc02      	bgt.n	34b6 <_printf_i+0x20a>
    34b0:	2330      	movs	r3, #48	; 0x30
    34b2:	3e01      	subs	r6, #1
    34b4:	7033      	strb	r3, [r6, #0]
    34b6:	9b04      	ldr	r3, [sp, #16]
    34b8:	1b9b      	subs	r3, r3, r6
    34ba:	6123      	str	r3, [r4, #16]
    34bc:	9b07      	ldr	r3, [sp, #28]
    34be:	aa09      	add	r2, sp, #36	; 0x24
    34c0:	9300      	str	r3, [sp, #0]
    34c2:	0021      	movs	r1, r4
    34c4:	9b06      	ldr	r3, [sp, #24]
    34c6:	9805      	ldr	r0, [sp, #20]
    34c8:	f7ff fe82 	bl	31d0 <_printf_common>
    34cc:	1c43      	adds	r3, r0, #1
    34ce:	d1b3      	bne.n	3438 <_printf_i+0x18c>
    34d0:	2001      	movs	r0, #1
    34d2:	4240      	negs	r0, r0
    34d4:	b00b      	add	sp, #44	; 0x2c
    34d6:	bdf0      	pop	{r4, r5, r6, r7, pc}
    34d8:	00003a42 	.word	0x00003a42
    34dc:	00003a31 	.word	0x00003a31

000034e0 <_sbrk_r>:
    34e0:	2300      	movs	r3, #0
    34e2:	b570      	push	{r4, r5, r6, lr}
    34e4:	4c06      	ldr	r4, [pc, #24]	; (3500 <_sbrk_r+0x20>)
    34e6:	0005      	movs	r5, r0
    34e8:	0008      	movs	r0, r1
    34ea:	6023      	str	r3, [r4, #0]
    34ec:	f7fe fca0 	bl	1e30 <_sbrk>
    34f0:	1c43      	adds	r3, r0, #1
    34f2:	d103      	bne.n	34fc <_sbrk_r+0x1c>
    34f4:	6823      	ldr	r3, [r4, #0]
    34f6:	2b00      	cmp	r3, #0
    34f8:	d000      	beq.n	34fc <_sbrk_r+0x1c>
    34fa:	602b      	str	r3, [r5, #0]
    34fc:	bd70      	pop	{r4, r5, r6, pc}
    34fe:	46c0      	nop			; (mov r8, r8)
    3500:	20000188 	.word	0x20000188

00003504 <__sread>:
    3504:	b570      	push	{r4, r5, r6, lr}
    3506:	000c      	movs	r4, r1
    3508:	250e      	movs	r5, #14
    350a:	5f49      	ldrsh	r1, [r1, r5]
    350c:	f000 f8b2 	bl	3674 <_read_r>
    3510:	2800      	cmp	r0, #0
    3512:	db03      	blt.n	351c <__sread+0x18>
    3514:	6d63      	ldr	r3, [r4, #84]	; 0x54
    3516:	181b      	adds	r3, r3, r0
    3518:	6563      	str	r3, [r4, #84]	; 0x54
    351a:	bd70      	pop	{r4, r5, r6, pc}
    351c:	89a3      	ldrh	r3, [r4, #12]
    351e:	4a02      	ldr	r2, [pc, #8]	; (3528 <__sread+0x24>)
    3520:	4013      	ands	r3, r2
    3522:	81a3      	strh	r3, [r4, #12]
    3524:	e7f9      	b.n	351a <__sread+0x16>
    3526:	46c0      	nop			; (mov r8, r8)
    3528:	ffffefff 	.word	0xffffefff

0000352c <__swrite>:
    352c:	b5f8      	push	{r3, r4, r5, r6, r7, lr}
    352e:	001f      	movs	r7, r3
    3530:	898b      	ldrh	r3, [r1, #12]
    3532:	0005      	movs	r5, r0
    3534:	000c      	movs	r4, r1
    3536:	0016      	movs	r6, r2
    3538:	05db      	lsls	r3, r3, #23
    353a:	d505      	bpl.n	3548 <__swrite+0x1c>
    353c:	230e      	movs	r3, #14
    353e:	5ec9      	ldrsh	r1, [r1, r3]
    3540:	2200      	movs	r2, #0
    3542:	2302      	movs	r3, #2
    3544:	f000 f874 	bl	3630 <_lseek_r>
    3548:	89a3      	ldrh	r3, [r4, #12]
    354a:	4a05      	ldr	r2, [pc, #20]	; (3560 <__swrite+0x34>)
    354c:	0028      	movs	r0, r5
    354e:	4013      	ands	r3, r2
    3550:	81a3      	strh	r3, [r4, #12]
    3552:	0032      	movs	r2, r6
    3554:	230e      	movs	r3, #14
    3556:	5ee1      	ldrsh	r1, [r4, r3]
    3558:	003b      	movs	r3, r7
    355a:	f000 f81f 	bl	359c <_write_r>
    355e:	bdf8      	pop	{r3, r4, r5, r6, r7, pc}
    3560:	ffffefff 	.word	0xffffefff

00003564 <__sseek>:
    3564:	b570      	push	{r4, r5, r6, lr}
    3566:	000c      	movs	r4, r1
    3568:	250e      	movs	r5, #14
    356a:	5f49      	ldrsh	r1, [r1, r5]
    356c:	f000 f860 	bl	3630 <_lseek_r>
    3570:	89a3      	ldrh	r3, [r4, #12]
    3572:	1c42      	adds	r2, r0, #1
    3574:	d103      	bne.n	357e <__sseek+0x1a>
    3576:	4a05      	ldr	r2, [pc, #20]	; (358c <__sseek+0x28>)
    3578:	4013      	ands	r3, r2
    357a:	81a3      	strh	r3, [r4, #12]
    357c:	bd70      	pop	{r4, r5, r6, pc}
    357e:	2280      	movs	r2, #128	; 0x80
    3580:	0152      	lsls	r2, r2, #5
    3582:	4313      	orrs	r3, r2
    3584:	81a3      	strh	r3, [r4, #12]
    3586:	6560      	str	r0, [r4, #84]	; 0x54
    3588:	e7f8      	b.n	357c <__sseek+0x18>
    358a:	46c0      	nop			; (mov r8, r8)
    358c:	ffffefff 	.word	0xffffefff

00003590 <__sclose>:
    3590:	b510      	push	{r4, lr}
    3592:	230e      	movs	r3, #14
    3594:	5ec9      	ldrsh	r1, [r1, r3]
    3596:	f000 f815 	bl	35c4 <_close_r>
    359a:	bd10      	pop	{r4, pc}

0000359c <_write_r>:
    359c:	b570      	push	{r4, r5, r6, lr}
    359e:	0005      	movs	r5, r0
    35a0:	0008      	movs	r0, r1
    35a2:	0011      	movs	r1, r2
    35a4:	2200      	movs	r2, #0
    35a6:	4c06      	ldr	r4, [pc, #24]	; (35c0 <_write_r+0x24>)
    35a8:	6022      	str	r2, [r4, #0]
    35aa:	001a      	movs	r2, r3
    35ac:	f7fe fc26 	bl	1dfc <_write>
    35b0:	1c43      	adds	r3, r0, #1
    35b2:	d103      	bne.n	35bc <_write_r+0x20>
    35b4:	6823      	ldr	r3, [r4, #0]
    35b6:	2b00      	cmp	r3, #0
    35b8:	d000      	beq.n	35bc <_write_r+0x20>
    35ba:	602b      	str	r3, [r5, #0]
    35bc:	bd70      	pop	{r4, r5, r6, pc}
    35be:	46c0      	nop			; (mov r8, r8)
    35c0:	20000188 	.word	0x20000188

000035c4 <_close_r>:
    35c4:	2300      	movs	r3, #0
    35c6:	b570      	push	{r4, r5, r6, lr}
    35c8:	4c06      	ldr	r4, [pc, #24]	; (35e4 <_close_r+0x20>)
    35ca:	0005      	movs	r5, r0
    35cc:	0008      	movs	r0, r1
    35ce:	6023      	str	r3, [r4, #0]
    35d0:	f7fe fc3e 	bl	1e50 <_close>
    35d4:	1c43      	adds	r3, r0, #1
    35d6:	d103      	bne.n	35e0 <_close_r+0x1c>
    35d8:	6823      	ldr	r3, [r4, #0]
    35da:	2b00      	cmp	r3, #0
    35dc:	d000      	beq.n	35e0 <_close_r+0x1c>
    35de:	602b      	str	r3, [r5, #0]
    35e0:	bd70      	pop	{r4, r5, r6, pc}
    35e2:	46c0      	nop			; (mov r8, r8)
    35e4:	20000188 	.word	0x20000188

000035e8 <_fstat_r>:
    35e8:	2300      	movs	r3, #0
    35ea:	b570      	push	{r4, r5, r6, lr}
    35ec:	4c06      	ldr	r4, [pc, #24]	; (3608 <_fstat_r+0x20>)
    35ee:	0005      	movs	r5, r0
    35f0:	0008      	movs	r0, r1
    35f2:	0011      	movs	r1, r2
    35f4:	6023      	str	r3, [r4, #0]
    35f6:	f7fe fc2e 	bl	1e56 <_fstat>
    35fa:	1c43      	adds	r3, r0, #1
    35fc:	d103      	bne.n	3606 <_fstat_r+0x1e>
    35fe:	6823      	ldr	r3, [r4, #0]
    3600:	2b00      	cmp	r3, #0
    3602:	d000      	beq.n	3606 <_fstat_r+0x1e>
    3604:	602b      	str	r3, [r5, #0]
    3606:	bd70      	pop	{r4, r5, r6, pc}
    3608:	20000188 	.word	0x20000188

0000360c <_isatty_r>:
    360c:	2300      	movs	r3, #0
    360e:	b570      	push	{r4, r5, r6, lr}
    3610:	4c06      	ldr	r4, [pc, #24]	; (362c <_isatty_r+0x20>)
    3612:	0005      	movs	r5, r0
    3614:	0008      	movs	r0, r1
    3616:	6023      	str	r3, [r4, #0]
    3618:	f7fe fc22 	bl	1e60 <_isatty>
    361c:	1c43      	adds	r3, r0, #1
    361e:	d103      	bne.n	3628 <_isatty_r+0x1c>
    3620:	6823      	ldr	r3, [r4, #0]
    3622:	2b00      	cmp	r3, #0
    3624:	d000      	beq.n	3628 <_isatty_r+0x1c>
    3626:	602b      	str	r3, [r5, #0]
    3628:	bd70      	pop	{r4, r5, r6, pc}
    362a:	46c0      	nop			; (mov r8, r8)
    362c:	20000188 	.word	0x20000188

00003630 <_lseek_r>:
    3630:	b570      	push	{r4, r5, r6, lr}
    3632:	0005      	movs	r5, r0
    3634:	0008      	movs	r0, r1
    3636:	0011      	movs	r1, r2
    3638:	2200      	movs	r2, #0
    363a:	4c06      	ldr	r4, [pc, #24]	; (3654 <_lseek_r+0x24>)
    363c:	6022      	str	r2, [r4, #0]
    363e:	001a      	movs	r2, r3
    3640:	f7fe fc10 	bl	1e64 <_lseek>
    3644:	1c43      	adds	r3, r0, #1
    3646:	d103      	bne.n	3650 <_lseek_r+0x20>
    3648:	6823      	ldr	r3, [r4, #0]
    364a:	2b00      	cmp	r3, #0
    364c:	d000      	beq.n	3650 <_lseek_r+0x20>
    364e:	602b      	str	r3, [r5, #0]
    3650:	bd70      	pop	{r4, r5, r6, pc}
    3652:	46c0      	nop			; (mov r8, r8)
    3654:	20000188 	.word	0x20000188

00003658 <memchr>:
    3658:	b2c9      	uxtb	r1, r1
    365a:	1882      	adds	r2, r0, r2
    365c:	4290      	cmp	r0, r2
    365e:	d101      	bne.n	3664 <memchr+0xc>
    3660:	2000      	movs	r0, #0
    3662:	4770      	bx	lr
    3664:	7803      	ldrb	r3, [r0, #0]
    3666:	428b      	cmp	r3, r1
    3668:	d0fb      	beq.n	3662 <memchr+0xa>
    366a:	3001      	adds	r0, #1
    366c:	e7f6      	b.n	365c <memchr+0x4>

0000366e <__malloc_lock>:
    366e:	4770      	bx	lr

00003670 <__malloc_unlock>:
    3670:	4770      	bx	lr
	...

00003674 <_read_r>:
    3674:	b570      	push	{r4, r5, r6, lr}
    3676:	0005      	movs	r5, r0
    3678:	0008      	movs	r0, r1
    367a:	0011      	movs	r1, r2
    367c:	2200      	movs	r2, #0
    367e:	4c06      	ldr	r4, [pc, #24]	; (3698 <_read_r+0x24>)
    3680:	6022      	str	r2, [r4, #0]
    3682:	001a      	movs	r2, r3
    3684:	f7fe fb9e 	bl	1dc4 <_read>
    3688:	1c43      	adds	r3, r0, #1
    368a:	d103      	bne.n	3694 <_read_r+0x20>
    368c:	6823      	ldr	r3, [r4, #0]
    368e:	2b00      	cmp	r3, #0
    3690:	d000      	beq.n	3694 <_read_r+0x20>
    3692:	602b      	str	r3, [r5, #0]
    3694:	bd70      	pop	{r4, r5, r6, pc}
    3696:	46c0      	nop			; (mov r8, r8)
    3698:	20000188 	.word	0x20000188

0000369c <CSWTCH.14>:
    369c:	0000651f 0000431f 0001441f 0002451f     .e...C...D...E..
    36ac:	0001451f 0002461f 0003461f 0000861f     .E...F...F......
    36bc:	0001471f 0000481f                       .G...H..

000036c4 <CSWTCH.16>:
    36c4:	00010000 00040000 00080000 00100000     ................
    36d4:	00100000 00200000 00200000 00200000     ...... ... ... .
    36e4:	00400000 00800000 42000800 42000c00     ..@........B...B
    36f4:	42001000 42001400 42001800 42001c00     ...B...B...B...B
    3704:	6f727265 65662072 69686374 6420676e     error fetching d
    3714:	20617461 6d6f7266 74786520 616e7265     ata from externa
    3724:	6c66206c 21687361 6c66000d 5f687361     l flash!..flash_
    3734:	67616d69 6e203a65 65626d75 666f2072     image: number of
    3744:	74796220 66207365 6873616c 203a6465      bytes flashed: 
    3754:	0a0d6425 616d5b00 205d6e69 746f6f62     %d...[main] boot
    3764:	64616f6c 73207265 74726174 000d6465     loader started..
    3774:	6e75725b 6f6f625f 616f6c74 5d726564     [run_bootloader]
    3784:	61747320 64657472 6f6f6220 616f6c74      started bootloa
    3794:	0d726564 65764500 65726772 42206e65     der..Evergreen B
    37a4:	6c746f6f 6564616f 430a0d72 65727275     ootloader..Curre
    37b4:	6620746e 65762057 6f697372 25203a6e     nt fW version: %
    37c4:	430a0d73 65727275 4220746e 6576204c     s..Current BL ve
    37d4:	6f697372 25203a6e 000a0d73 6c756f43     rsion: %s...Coul
    37e4:	6f6e2064 69662074 6620646e 6873616c     d not find flash
    37f4:	69686320 000d2e70 73616c66 676e6968      chip...flashing
    3804:	72696620 7261776d 65682065 72656461      firmware header
    3814:	000d203a 5f77656e 685f7766 65646165     : ..new_fw_heade
    3824:	77662e72 7265765f 6e6f6973 6425203a     r.fw_version: %d
    3834:	6e000a0d 665f7765 65685f77 72656461     ...new_fw_header
    3844:	6568632e 75736b63 25203a6d 0d783430     .checksum: %04x.
    3854:	7573000a 73656363 6c756673 7520796c     ..successfully u
    3864:	74616470 66206465 776d7269 21657261     pdated firmware!
    3874:	7265000d 20726f72 69797274 7420676e     ..error trying t
    3884:	6c66206f 20687361 67616d69 70203a65     o flash image: p
    3894:	7361656c 6f702065 20726577 6c637963     lease power cycl
    38a4:	6e612065 72742064 67612079 2e6e6961     e and try again.
    38b4:	206f6e00 2077656e 67616d69 65722065     .no new image re
    38c4:	20796461 20726f66 74736e69 2e6c6c61     ady for install.
    38d4:	570a0d20 646c756f 756f7920 6b696c20      ..Would you lik
    38e4:	6f742065 206f6720 74206f74 41206568     e to go to the A
    38f4:	696c7070 69746163 203f6e6f 6e2f7928     pplication? (y/n
    3904:	4e000d29 7061206f 63696c70 6f697461     )..No applicatio
    3914:	6564206e 74636574 0d2e6465 756f570a     n detected...Wou
    3924:	7920646c 6c20756f 20656b69 67206f74     ld you like to g
    3934:	6f74206f 65687420 494c4320 7928203f     o to the CLI? (y
    3944:	0d296e2f 72657600 5f796669 73616c66     /n)..verify_flas
    3954:	6e203a68 62206d75 73657479 63796320     h: num bytes cyc
    3964:	3a64656c 0d642520 6576000a 79666972     led: %d...verify
    3974:	616c665f 203a6873 636c6163 74616c75     _flash: calculat
    3984:	63206465 76206372 203a6c61 78343025     ed crc val: %04x
    3994:	76000a0d 66697265 6c665f79 3a687361     ...verify_flash:
    39a4:	6f6e6b20 63206e77 6b636568 3a6d7573      known checksum:
    39b4:	34302520 000a0d78                        %04x...

000039bc <_global_impure_ptr>:
    39bc:	20000010                                ... 

000039c0 <__sf_fake_stderr>:
	...

000039e0 <__sf_fake_stdin>:
	...

00003a00 <__sf_fake_stdout>:
	...
    3a20:	2b302d23 6c680020 6665004c 47464567     #-0+ .hlL.efgEFG
    3a30:	32313000 36353433 41393837 45444342     .0123456789ABCDE
    3a40:	31300046 35343332 39383736 64636261     F.0123456789abcd
    3a50:	00006665                                ef..

00003a54 <_init>:
    3a54:	b5f8      	push	{r3, r4, r5, r6, r7, lr}
    3a56:	46c0      	nop			; (mov r8, r8)
    3a58:	bcf8      	pop	{r3, r4, r5, r6, r7}
    3a5a:	bc08      	pop	{r3}
    3a5c:	469e      	mov	lr, r3
    3a5e:	4770      	bx	lr

00003a60 <__init_array_start>:
    3a60:	000000dd 	.word	0x000000dd

00003a64 <_fini>:
    3a64:	b5f8      	push	{r3, r4, r5, r6, r7, lr}
    3a66:	46c0      	nop			; (mov r8, r8)
    3a68:	bcf8      	pop	{r3, r4, r5, r6, r7}
    3a6a:	bc08      	pop	{r3}
    3a6c:	469e      	mov	lr, r3
    3a6e:	4770      	bx	lr

00003a70 <__fini_array_start>:
    3a70:	000000b5 	.word	0x000000b5
