
GccBoardProject1.elf:     file format elf32-littlearm

Sections:
Idx Name          Size      VMA       LMA       File off  Algn
  0 .text         00002a18  00000000  00000000  00010000  2**2
                  CONTENTS, ALLOC, LOAD, READONLY, CODE
  1 .relocate     00000068  20000000  00002a18  00020000  2**2
                  CONTENTS, ALLOC, LOAD, DATA
  2 .bss          000000c8  20000068  00002a80  00020068  2**2
                  ALLOC
  3 .stack        00002000  20000130  00002b48  00020068  2**0
                  ALLOC
  4 .ARM.attributes 00000028  00000000  00000000  00020068  2**0
                  CONTENTS, READONLY
  5 .comment      00000059  00000000  00000000  00020090  2**0
                  CONTENTS, READONLY
  6 .debug_info   000217be  00000000  00000000  000200e9  2**0
                  CONTENTS, READONLY, DEBUGGING
  7 .debug_abbrev 0000319e  00000000  00000000  000418a7  2**0
                  CONTENTS, READONLY, DEBUGGING
  8 .debug_loc    000040a9  00000000  00000000  00044a45  2**0
                  CONTENTS, READONLY, DEBUGGING
  9 .debug_aranges 00000440  00000000  00000000  00048aee  2**0
                  CONTENTS, READONLY, DEBUGGING
 10 .debug_ranges 00000480  00000000  00000000  00048f2e  2**0
                  CONTENTS, READONLY, DEBUGGING
 11 .debug_macro  000197ab  00000000  00000000  000493ae  2**0
                  CONTENTS, READONLY, DEBUGGING
 12 .debug_line   0000a18f  00000000  00000000  00062b59  2**0
                  CONTENTS, READONLY, DEBUGGING
 13 .debug_str    00088cb8  00000000  00000000  0006cce8  2**0
                  CONTENTS, READONLY, DEBUGGING
 14 .debug_frame  00001174  00000000  00000000  000f59a0  2**2
                  CONTENTS, READONLY, DEBUGGING

Disassembly of section .text:

00000000 <exception_table>:
       0:	30 21 00 20 41 14 00 00 3d 14 00 00 3d 14 00 00     0!. A...=...=...
	...
      2c:	3d 14 00 00 00 00 00 00 00 00 00 00 3d 14 00 00     =...........=...
      3c:	3d 14 00 00 3d 14 00 00 3d 14 00 00 3d 14 00 00     =...=...=...=...
      4c:	3d 14 00 00 3d 14 00 00 3d 14 00 00 3d 14 00 00     =...=...=...=...
      5c:	3d 14 00 00 3d 14 00 00 75 0b 00 00 85 0b 00 00     =...=...u.......
      6c:	95 0b 00 00 a5 0b 00 00 b5 0b 00 00 c5 0b 00 00     ................
      7c:	3d 14 00 00 3d 14 00 00 3d 14 00 00 3d 14 00 00     =...=...=...=...
      8c:	3d 14 00 00 3d 14 00 00 00 00 00 00 00 00 00 00     =...=...........
      9c:	3d 14 00 00 3d 14 00 00 3d 14 00 00 3d 14 00 00     =...=...=...=...
      ac:	3d 14 00 00 00 00 00 00                             =.......

000000b4 <__do_global_dtors_aux>:
      b4:	b510      	push	{r4, lr}
      b6:	4c06      	ldr	r4, [pc, #24]	; (d0 <__do_global_dtors_aux+0x1c>)
      b8:	7823      	ldrb	r3, [r4, #0]
      ba:	2b00      	cmp	r3, #0
      bc:	d107      	bne.n	ce <__do_global_dtors_aux+0x1a>
      be:	4b05      	ldr	r3, [pc, #20]	; (d4 <__do_global_dtors_aux+0x20>)
      c0:	2b00      	cmp	r3, #0
      c2:	d002      	beq.n	ca <__do_global_dtors_aux+0x16>
      c4:	4804      	ldr	r0, [pc, #16]	; (d8 <__do_global_dtors_aux+0x24>)
      c6:	e000      	b.n	ca <__do_global_dtors_aux+0x16>
      c8:	bf00      	nop
      ca:	2301      	movs	r3, #1
      cc:	7023      	strb	r3, [r4, #0]
      ce:	bd10      	pop	{r4, pc}
      d0:	20000068 	.word	0x20000068
      d4:	00000000 	.word	0x00000000
      d8:	00002a18 	.word	0x00002a18

000000dc <frame_dummy>:
      dc:	4b08      	ldr	r3, [pc, #32]	; (100 <frame_dummy+0x24>)
      de:	b510      	push	{r4, lr}
      e0:	2b00      	cmp	r3, #0
      e2:	d003      	beq.n	ec <frame_dummy+0x10>
      e4:	4907      	ldr	r1, [pc, #28]	; (104 <frame_dummy+0x28>)
      e6:	4808      	ldr	r0, [pc, #32]	; (108 <frame_dummy+0x2c>)
      e8:	e000      	b.n	ec <frame_dummy+0x10>
      ea:	bf00      	nop
      ec:	4807      	ldr	r0, [pc, #28]	; (10c <frame_dummy+0x30>)
      ee:	6803      	ldr	r3, [r0, #0]
      f0:	2b00      	cmp	r3, #0
      f2:	d100      	bne.n	f6 <frame_dummy+0x1a>
      f4:	bd10      	pop	{r4, pc}
      f6:	4b06      	ldr	r3, [pc, #24]	; (110 <frame_dummy+0x34>)
      f8:	2b00      	cmp	r3, #0
      fa:	d0fb      	beq.n	f4 <frame_dummy+0x18>
      fc:	4798      	blx	r3
      fe:	e7f9      	b.n	f4 <frame_dummy+0x18>
     100:	00000000 	.word	0x00000000
     104:	2000006c 	.word	0x2000006c
     108:	00002a18 	.word	0x00002a18
     10c:	00002a18 	.word	0x00002a18
     110:	00000000 	.word	0x00000000

00000114 <long_division>:
/**
 * \internal Calculate 64 bit division, ref can be found in
 * http://en.wikipedia.org/wiki/Division_algorithm#Long_division
 */
static uint64_t long_division(uint64_t n, uint64_t d)
{
     114:	b5f0      	push	{r4, r5, r6, r7, lr}
     116:	46de      	mov	lr, fp
     118:	4657      	mov	r7, sl
     11a:	464e      	mov	r6, r9
     11c:	4645      	mov	r5, r8
     11e:	b5e0      	push	{r5, r6, r7, lr}
     120:	b087      	sub	sp, #28
     122:	4680      	mov	r8, r0
     124:	9104      	str	r1, [sp, #16]
     126:	0016      	movs	r6, r2
     128:	001f      	movs	r7, r3
	int32_t i;
	uint64_t q = 0, r = 0, bit_shift;
     12a:	2200      	movs	r2, #0
     12c:	2300      	movs	r3, #0
     12e:	2100      	movs	r1, #0
     130:	468b      	mov	fp, r1
	for (i = 63; i >= 0; i--) {
     132:	243f      	movs	r4, #63	; 0x3f
		bit_shift = (uint64_t)1 << i;
     134:	2001      	movs	r0, #1
     136:	0021      	movs	r1, r4
     138:	9600      	str	r6, [sp, #0]
     13a:	9701      	str	r7, [sp, #4]
     13c:	465c      	mov	r4, fp
     13e:	9403      	str	r4, [sp, #12]
     140:	4644      	mov	r4, r8
     142:	9405      	str	r4, [sp, #20]
     144:	e013      	b.n	16e <long_division+0x5a>
     146:	2420      	movs	r4, #32
     148:	1a64      	subs	r4, r4, r1
     14a:	0005      	movs	r5, r0
     14c:	40e5      	lsrs	r5, r4
     14e:	46a8      	mov	r8, r5
     150:	e014      	b.n	17c <long_division+0x68>
		if (n & bit_shift) {
			r |= 0x01;
		}

		if (r >= d) {
			r = r - d;
     152:	9c00      	ldr	r4, [sp, #0]
     154:	9d01      	ldr	r5, [sp, #4]
     156:	1b12      	subs	r2, r2, r4
     158:	41ab      	sbcs	r3, r5
			q |= bit_shift;
     15a:	465c      	mov	r4, fp
     15c:	464d      	mov	r5, r9
     15e:	432c      	orrs	r4, r5
     160:	46a3      	mov	fp, r4
     162:	9c03      	ldr	r4, [sp, #12]
     164:	4645      	mov	r5, r8
     166:	432c      	orrs	r4, r5
     168:	9403      	str	r4, [sp, #12]
	for (i = 63; i >= 0; i--) {
     16a:	3901      	subs	r1, #1
     16c:	d325      	bcc.n	1ba <long_division+0xa6>
		bit_shift = (uint64_t)1 << i;
     16e:	2420      	movs	r4, #32
     170:	4264      	negs	r4, r4
     172:	190c      	adds	r4, r1, r4
     174:	d4e7      	bmi.n	146 <long_division+0x32>
     176:	0005      	movs	r5, r0
     178:	40a5      	lsls	r5, r4
     17a:	46a8      	mov	r8, r5
     17c:	0004      	movs	r4, r0
     17e:	408c      	lsls	r4, r1
     180:	46a1      	mov	r9, r4
		r = r << 1;
     182:	1892      	adds	r2, r2, r2
     184:	415b      	adcs	r3, r3
     186:	0014      	movs	r4, r2
     188:	001d      	movs	r5, r3
		if (n & bit_shift) {
     18a:	9e05      	ldr	r6, [sp, #20]
     18c:	464f      	mov	r7, r9
     18e:	403e      	ands	r6, r7
     190:	46b4      	mov	ip, r6
     192:	9e04      	ldr	r6, [sp, #16]
     194:	4647      	mov	r7, r8
     196:	403e      	ands	r6, r7
     198:	46b2      	mov	sl, r6
     19a:	4666      	mov	r6, ip
     19c:	4657      	mov	r7, sl
     19e:	433e      	orrs	r6, r7
     1a0:	d003      	beq.n	1aa <long_division+0x96>
			r |= 0x01;
     1a2:	0006      	movs	r6, r0
     1a4:	4326      	orrs	r6, r4
     1a6:	0032      	movs	r2, r6
     1a8:	002b      	movs	r3, r5
		if (r >= d) {
     1aa:	9c00      	ldr	r4, [sp, #0]
     1ac:	9d01      	ldr	r5, [sp, #4]
     1ae:	429d      	cmp	r5, r3
     1b0:	d8db      	bhi.n	16a <long_division+0x56>
     1b2:	d1ce      	bne.n	152 <long_division+0x3e>
     1b4:	4294      	cmp	r4, r2
     1b6:	d8d8      	bhi.n	16a <long_division+0x56>
     1b8:	e7cb      	b.n	152 <long_division+0x3e>
     1ba:	9b03      	ldr	r3, [sp, #12]
		}
	}

	return q;
}
     1bc:	4658      	mov	r0, fp
     1be:	0019      	movs	r1, r3
     1c0:	b007      	add	sp, #28
     1c2:	bc3c      	pop	{r2, r3, r4, r5}
     1c4:	4690      	mov	r8, r2
     1c6:	4699      	mov	r9, r3
     1c8:	46a2      	mov	sl, r4
     1ca:	46ab      	mov	fp, r5
     1cc:	bdf0      	pop	{r4, r5, r6, r7, pc}

000001ce <_sercom_get_sync_baud_val>:
 */
enum status_code _sercom_get_sync_baud_val(
		const uint32_t baudrate,
		const uint32_t external_clock,
		uint16_t *const baudvalue)
{
     1ce:	b510      	push	{r4, lr}
	uint16_t baud_calculated = 0;
	uint32_t clock_value = external_clock;


	/* Check if baudrate is outside of valid range */
	if (baudrate > (external_clock / 2)) {
     1d0:	0849      	lsrs	r1, r1, #1
		/* Return with error code */
		return STATUS_ERR_BAUDRATE_UNAVAILABLE;
     1d2:	2340      	movs	r3, #64	; 0x40
     1d4:	2400      	movs	r4, #0
	if (baudrate > (external_clock / 2)) {
     1d6:	4281      	cmp	r1, r0
     1d8:	d202      	bcs.n	1e0 <_sercom_get_sync_baud_val+0x12>
		return STATUS_ERR_BAUDRATE_UNAVAILABLE;
	} else {
		*baudvalue = baud_calculated;
		return STATUS_OK;
	}
}
     1da:	0018      	movs	r0, r3
     1dc:	bd10      	pop	{r4, pc}
		baud_calculated++;
     1de:	001c      	movs	r4, r3
		clock_value = clock_value - baudrate;
     1e0:	1a09      	subs	r1, r1, r0
		baud_calculated++;
     1e2:	1c63      	adds	r3, r4, #1
     1e4:	b29b      	uxth	r3, r3
	while (clock_value >= baudrate) {
     1e6:	4288      	cmp	r0, r1
     1e8:	d9f9      	bls.n	1de <_sercom_get_sync_baud_val+0x10>
		return STATUS_ERR_BAUDRATE_UNAVAILABLE;
     1ea:	2340      	movs	r3, #64	; 0x40
	if (baud_calculated > 0xFF) {
     1ec:	2cff      	cmp	r4, #255	; 0xff
     1ee:	d8f4      	bhi.n	1da <_sercom_get_sync_baud_val+0xc>
		*baudvalue = baud_calculated;
     1f0:	8014      	strh	r4, [r2, #0]
		return STATUS_OK;
     1f2:	2300      	movs	r3, #0
     1f4:	e7f1      	b.n	1da <_sercom_get_sync_baud_val+0xc>
	...

000001f8 <_sercom_get_async_baud_val>:
		const uint32_t baudrate,
		const uint32_t peripheral_clock,
		uint16_t *const baudval,
		enum sercom_asynchronous_operation_mode mode,
		enum sercom_asynchronous_sample_num sample_num)
{
     1f8:	b5f0      	push	{r4, r5, r6, r7, lr}
     1fa:	b083      	sub	sp, #12
     1fc:	000f      	movs	r7, r1
     1fe:	0016      	movs	r6, r2
     200:	aa08      	add	r2, sp, #32
     202:	7811      	ldrb	r1, [r2, #0]
	uint8_t baud_fp;
	uint32_t baud_int = 0;
	uint64_t temp1;

	/* Check if the baudrate is outside of valid range */
	if ((baudrate * sample_num) > peripheral_clock) {
     204:	0004      	movs	r4, r0
     206:	434c      	muls	r4, r1
		/* Return with error code */
		return STATUS_ERR_BAUDRATE_UNAVAILABLE;
     208:	2240      	movs	r2, #64	; 0x40
	if ((baudrate * sample_num) > peripheral_clock) {
     20a:	42bc      	cmp	r4, r7
     20c:	d902      	bls.n	214 <_sercom_get_async_baud_val+0x1c>
		baud_calculated = baud_int | (baud_fp << 13);
	}

	*baudval = baud_calculated;
	return STATUS_OK;
}
     20e:	0010      	movs	r0, r2
     210:	b003      	add	sp, #12
     212:	bdf0      	pop	{r4, r5, r6, r7, pc}
	if(mode == SERCOM_ASYNC_OPERATION_MODE_ARITHMETIC) {
     214:	2b00      	cmp	r3, #0
     216:	d114      	bne.n	242 <_sercom_get_async_baud_val+0x4a>
		temp1 = ((sample_num * (uint64_t)baudrate) << SHIFT);
     218:	0002      	movs	r2, r0
     21a:	0008      	movs	r0, r1
     21c:	2100      	movs	r1, #0
     21e:	4c19      	ldr	r4, [pc, #100]	; (284 <_sercom_get_async_baud_val+0x8c>)
     220:	47a0      	blx	r4
     222:	0001      	movs	r1, r0
		ratio = long_division(temp1, peripheral_clock);
     224:	003a      	movs	r2, r7
     226:	2300      	movs	r3, #0
     228:	2000      	movs	r0, #0
     22a:	4c17      	ldr	r4, [pc, #92]	; (288 <_sercom_get_async_baud_val+0x90>)
     22c:	47a0      	blx	r4
		scale = ((uint64_t)1 << SHIFT) - ratio;
     22e:	2200      	movs	r2, #0
     230:	2301      	movs	r3, #1
     232:	1a12      	subs	r2, r2, r0
     234:	418b      	sbcs	r3, r1
		baud_calculated = (65536 * scale) >> SHIFT;
     236:	0c12      	lsrs	r2, r2, #16
     238:	041b      	lsls	r3, r3, #16
     23a:	431a      	orrs	r2, r3
	*baudval = baud_calculated;
     23c:	8032      	strh	r2, [r6, #0]
	return STATUS_OK;
     23e:	2200      	movs	r2, #0
     240:	e7e5      	b.n	20e <_sercom_get_async_baud_val+0x16>
	uint64_t baud_calculated = 0;
     242:	2200      	movs	r2, #0
	} else if(mode == SERCOM_ASYNC_OPERATION_MODE_FRACTIONAL) {
     244:	2b01      	cmp	r3, #1
     246:	d1f9      	bne.n	23c <_sercom_get_async_baud_val+0x44>
		temp1 = ((uint64_t)baudrate * sample_num);
     248:	000a      	movs	r2, r1
     24a:	2300      	movs	r3, #0
     24c:	2100      	movs	r1, #0
     24e:	4c0d      	ldr	r4, [pc, #52]	; (284 <_sercom_get_async_baud_val+0x8c>)
     250:	47a0      	blx	r4
     252:	0002      	movs	r2, r0
     254:	000b      	movs	r3, r1
     256:	9200      	str	r2, [sp, #0]
     258:	9301      	str	r3, [sp, #4]
		baud_int = long_division( peripheral_clock, temp1);
     25a:	0038      	movs	r0, r7
     25c:	2100      	movs	r1, #0
     25e:	4c0a      	ldr	r4, [pc, #40]	; (288 <_sercom_get_async_baud_val+0x90>)
     260:	47a0      	blx	r4
     262:	0005      	movs	r5, r0
		if(baud_int > BAUD_INT_MAX) {
     264:	2380      	movs	r3, #128	; 0x80
     266:	019b      	lsls	r3, r3, #6
				return STATUS_ERR_BAUDRATE_UNAVAILABLE;
     268:	2240      	movs	r2, #64	; 0x40
		if(baud_int > BAUD_INT_MAX) {
     26a:	4298      	cmp	r0, r3
     26c:	d8cf      	bhi.n	20e <_sercom_get_async_baud_val+0x16>
		temp1 = long_division( 8 * (uint64_t)peripheral_clock, temp1);
     26e:	0f79      	lsrs	r1, r7, #29
     270:	00f8      	lsls	r0, r7, #3
     272:	9a00      	ldr	r2, [sp, #0]
     274:	9b01      	ldr	r3, [sp, #4]
     276:	47a0      	blx	r4
		baud_fp = temp1 - 8 * baud_int;
     278:	00ea      	lsls	r2, r5, #3
     27a:	1a82      	subs	r2, r0, r2
		baud_calculated = baud_int | (baud_fp << 13);
     27c:	b2d2      	uxtb	r2, r2
     27e:	0352      	lsls	r2, r2, #13
     280:	432a      	orrs	r2, r5
     282:	e7db      	b.n	23c <_sercom_get_async_baud_val+0x44>
     284:	00001861 	.word	0x00001861
     288:	00000115 	.word	0x00000115

0000028c <sercom_set_gclk_generator>:
 *                                         forced.
 */
enum status_code sercom_set_gclk_generator(
		const enum gclk_generator generator_source,
		const bool force_change)
{
     28c:	b510      	push	{r4, lr}
     28e:	b082      	sub	sp, #8
     290:	0004      	movs	r4, r0
	/* Check if valid option */
	if (!_sercom_config.generator_is_set || force_change) {
     292:	4b0e      	ldr	r3, [pc, #56]	; (2cc <sercom_set_gclk_generator+0x40>)
     294:	781b      	ldrb	r3, [r3, #0]
     296:	2b00      	cmp	r3, #0
     298:	d007      	beq.n	2aa <sercom_set_gclk_generator+0x1e>
     29a:	2900      	cmp	r1, #0
     29c:	d105      	bne.n	2aa <sercom_set_gclk_generator+0x1e>
		/* Save config */
		_sercom_config.generator_source = generator_source;
		_sercom_config.generator_is_set = true;

		return STATUS_OK;
	} else if (generator_source == _sercom_config.generator_source) {
     29e:	4b0b      	ldr	r3, [pc, #44]	; (2cc <sercom_set_gclk_generator+0x40>)
     2a0:	785b      	ldrb	r3, [r3, #1]
     2a2:	4283      	cmp	r3, r0
     2a4:	d010      	beq.n	2c8 <sercom_set_gclk_generator+0x3c>
		/* Return status OK if same config */
		return STATUS_OK;
	}

	/* Return invalid config to already initialized GCLK */
	return STATUS_ERR_ALREADY_INITIALIZED;
     2a6:	201d      	movs	r0, #29
     2a8:	e00c      	b.n	2c4 <sercom_set_gclk_generator+0x38>
		gclk_chan_conf.source_generator = generator_source;
     2aa:	a901      	add	r1, sp, #4
     2ac:	700c      	strb	r4, [r1, #0]
		system_gclk_chan_set_config(SERCOM_GCLK_ID, &gclk_chan_conf);
     2ae:	2013      	movs	r0, #19
     2b0:	4b07      	ldr	r3, [pc, #28]	; (2d0 <sercom_set_gclk_generator+0x44>)
     2b2:	4798      	blx	r3
		system_gclk_chan_enable(SERCOM_GCLK_ID);
     2b4:	2013      	movs	r0, #19
     2b6:	4b07      	ldr	r3, [pc, #28]	; (2d4 <sercom_set_gclk_generator+0x48>)
     2b8:	4798      	blx	r3
		_sercom_config.generator_source = generator_source;
     2ba:	4b04      	ldr	r3, [pc, #16]	; (2cc <sercom_set_gclk_generator+0x40>)
     2bc:	705c      	strb	r4, [r3, #1]
		_sercom_config.generator_is_set = true;
     2be:	2201      	movs	r2, #1
     2c0:	701a      	strb	r2, [r3, #0]
		return STATUS_OK;
     2c2:	2000      	movs	r0, #0
}
     2c4:	b002      	add	sp, #8
     2c6:	bd10      	pop	{r4, pc}
		return STATUS_OK;
     2c8:	2000      	movs	r0, #0
     2ca:	e7fb      	b.n	2c4 <sercom_set_gclk_generator+0x38>
     2cc:	20000084 	.word	0x20000084
     2d0:	000012e5 	.word	0x000012e5
     2d4:	00001259 	.word	0x00001259

000002d8 <_sercom_get_default_pad>:
 */
uint32_t _sercom_get_default_pad(
		Sercom *const sercom_module,
		const uint8_t pad)
{
	switch ((uintptr_t)sercom_module) {
     2d8:	4b40      	ldr	r3, [pc, #256]	; (3dc <_sercom_get_default_pad+0x104>)
     2da:	4298      	cmp	r0, r3
     2dc:	d031      	beq.n	342 <_sercom_get_default_pad+0x6a>
     2de:	d90a      	bls.n	2f6 <_sercom_get_default_pad+0x1e>
     2e0:	4b3f      	ldr	r3, [pc, #252]	; (3e0 <_sercom_get_default_pad+0x108>)
     2e2:	4298      	cmp	r0, r3
     2e4:	d04d      	beq.n	382 <_sercom_get_default_pad+0xaa>
     2e6:	4b3f      	ldr	r3, [pc, #252]	; (3e4 <_sercom_get_default_pad+0x10c>)
     2e8:	4298      	cmp	r0, r3
     2ea:	d05a      	beq.n	3a2 <_sercom_get_default_pad+0xca>
     2ec:	4b3e      	ldr	r3, [pc, #248]	; (3e8 <_sercom_get_default_pad+0x110>)
     2ee:	4298      	cmp	r0, r3
     2f0:	d037      	beq.n	362 <_sercom_get_default_pad+0x8a>
		/* Auto-generate a lookup table for the default SERCOM pad defaults */
		MREPEAT(SERCOM_INST_NUM, _SERCOM_PAD_DEFAULTS_CASE, pad)
	}

	Assert(false);
	return 0;
     2f2:	2000      	movs	r0, #0
}
     2f4:	4770      	bx	lr
	switch ((uintptr_t)sercom_module) {
     2f6:	4b3d      	ldr	r3, [pc, #244]	; (3ec <_sercom_get_default_pad+0x114>)
     2f8:	4298      	cmp	r0, r3
     2fa:	d00c      	beq.n	316 <_sercom_get_default_pad+0x3e>
     2fc:	4b3c      	ldr	r3, [pc, #240]	; (3f0 <_sercom_get_default_pad+0x118>)
     2fe:	4298      	cmp	r0, r3
     300:	d1f7      	bne.n	2f2 <_sercom_get_default_pad+0x1a>
		MREPEAT(SERCOM_INST_NUM, _SERCOM_PAD_DEFAULTS_CASE, pad)
     302:	2901      	cmp	r1, #1
     304:	d017      	beq.n	336 <_sercom_get_default_pad+0x5e>
     306:	2900      	cmp	r1, #0
     308:	d05d      	beq.n	3c6 <_sercom_get_default_pad+0xee>
     30a:	2902      	cmp	r1, #2
     30c:	d015      	beq.n	33a <_sercom_get_default_pad+0x62>
     30e:	2903      	cmp	r1, #3
     310:	d015      	beq.n	33e <_sercom_get_default_pad+0x66>
	return 0;
     312:	2000      	movs	r0, #0
     314:	e7ee      	b.n	2f4 <_sercom_get_default_pad+0x1c>
		MREPEAT(SERCOM_INST_NUM, _SERCOM_PAD_DEFAULTS_CASE, pad)
     316:	2901      	cmp	r1, #1
     318:	d007      	beq.n	32a <_sercom_get_default_pad+0x52>
     31a:	2900      	cmp	r1, #0
     31c:	d051      	beq.n	3c2 <_sercom_get_default_pad+0xea>
     31e:	2902      	cmp	r1, #2
     320:	d005      	beq.n	32e <_sercom_get_default_pad+0x56>
     322:	2903      	cmp	r1, #3
     324:	d005      	beq.n	332 <_sercom_get_default_pad+0x5a>
	return 0;
     326:	2000      	movs	r0, #0
     328:	e7e4      	b.n	2f4 <_sercom_get_default_pad+0x1c>
		MREPEAT(SERCOM_INST_NUM, _SERCOM_PAD_DEFAULTS_CASE, pad)
     32a:	4832      	ldr	r0, [pc, #200]	; (3f4 <_sercom_get_default_pad+0x11c>)
     32c:	e7e2      	b.n	2f4 <_sercom_get_default_pad+0x1c>
     32e:	4832      	ldr	r0, [pc, #200]	; (3f8 <_sercom_get_default_pad+0x120>)
     330:	e7e0      	b.n	2f4 <_sercom_get_default_pad+0x1c>
     332:	4832      	ldr	r0, [pc, #200]	; (3fc <_sercom_get_default_pad+0x124>)
     334:	e7de      	b.n	2f4 <_sercom_get_default_pad+0x1c>
     336:	4832      	ldr	r0, [pc, #200]	; (400 <_sercom_get_default_pad+0x128>)
     338:	e7dc      	b.n	2f4 <_sercom_get_default_pad+0x1c>
     33a:	4832      	ldr	r0, [pc, #200]	; (404 <_sercom_get_default_pad+0x12c>)
     33c:	e7da      	b.n	2f4 <_sercom_get_default_pad+0x1c>
     33e:	4832      	ldr	r0, [pc, #200]	; (408 <_sercom_get_default_pad+0x130>)
     340:	e7d8      	b.n	2f4 <_sercom_get_default_pad+0x1c>
     342:	2901      	cmp	r1, #1
     344:	d007      	beq.n	356 <_sercom_get_default_pad+0x7e>
     346:	2900      	cmp	r1, #0
     348:	d03f      	beq.n	3ca <_sercom_get_default_pad+0xf2>
     34a:	2902      	cmp	r1, #2
     34c:	d005      	beq.n	35a <_sercom_get_default_pad+0x82>
     34e:	2903      	cmp	r1, #3
     350:	d005      	beq.n	35e <_sercom_get_default_pad+0x86>
	return 0;
     352:	2000      	movs	r0, #0
     354:	e7ce      	b.n	2f4 <_sercom_get_default_pad+0x1c>
		MREPEAT(SERCOM_INST_NUM, _SERCOM_PAD_DEFAULTS_CASE, pad)
     356:	482d      	ldr	r0, [pc, #180]	; (40c <_sercom_get_default_pad+0x134>)
     358:	e7cc      	b.n	2f4 <_sercom_get_default_pad+0x1c>
     35a:	482d      	ldr	r0, [pc, #180]	; (410 <_sercom_get_default_pad+0x138>)
     35c:	e7ca      	b.n	2f4 <_sercom_get_default_pad+0x1c>
     35e:	482d      	ldr	r0, [pc, #180]	; (414 <_sercom_get_default_pad+0x13c>)
     360:	e7c8      	b.n	2f4 <_sercom_get_default_pad+0x1c>
     362:	2901      	cmp	r1, #1
     364:	d007      	beq.n	376 <_sercom_get_default_pad+0x9e>
     366:	2900      	cmp	r1, #0
     368:	d031      	beq.n	3ce <_sercom_get_default_pad+0xf6>
     36a:	2902      	cmp	r1, #2
     36c:	d005      	beq.n	37a <_sercom_get_default_pad+0xa2>
     36e:	2903      	cmp	r1, #3
     370:	d005      	beq.n	37e <_sercom_get_default_pad+0xa6>
	return 0;
     372:	2000      	movs	r0, #0
     374:	e7be      	b.n	2f4 <_sercom_get_default_pad+0x1c>
		MREPEAT(SERCOM_INST_NUM, _SERCOM_PAD_DEFAULTS_CASE, pad)
     376:	4828      	ldr	r0, [pc, #160]	; (418 <_sercom_get_default_pad+0x140>)
     378:	e7bc      	b.n	2f4 <_sercom_get_default_pad+0x1c>
     37a:	4828      	ldr	r0, [pc, #160]	; (41c <_sercom_get_default_pad+0x144>)
     37c:	e7ba      	b.n	2f4 <_sercom_get_default_pad+0x1c>
     37e:	4828      	ldr	r0, [pc, #160]	; (420 <_sercom_get_default_pad+0x148>)
     380:	e7b8      	b.n	2f4 <_sercom_get_default_pad+0x1c>
     382:	2901      	cmp	r1, #1
     384:	d007      	beq.n	396 <_sercom_get_default_pad+0xbe>
     386:	2900      	cmp	r1, #0
     388:	d023      	beq.n	3d2 <_sercom_get_default_pad+0xfa>
     38a:	2902      	cmp	r1, #2
     38c:	d005      	beq.n	39a <_sercom_get_default_pad+0xc2>
     38e:	2903      	cmp	r1, #3
     390:	d005      	beq.n	39e <_sercom_get_default_pad+0xc6>
	return 0;
     392:	2000      	movs	r0, #0
     394:	e7ae      	b.n	2f4 <_sercom_get_default_pad+0x1c>
		MREPEAT(SERCOM_INST_NUM, _SERCOM_PAD_DEFAULTS_CASE, pad)
     396:	4823      	ldr	r0, [pc, #140]	; (424 <_sercom_get_default_pad+0x14c>)
     398:	e7ac      	b.n	2f4 <_sercom_get_default_pad+0x1c>
     39a:	4823      	ldr	r0, [pc, #140]	; (428 <_sercom_get_default_pad+0x150>)
     39c:	e7aa      	b.n	2f4 <_sercom_get_default_pad+0x1c>
     39e:	4823      	ldr	r0, [pc, #140]	; (42c <_sercom_get_default_pad+0x154>)
     3a0:	e7a8      	b.n	2f4 <_sercom_get_default_pad+0x1c>
     3a2:	2901      	cmp	r1, #1
     3a4:	d007      	beq.n	3b6 <_sercom_get_default_pad+0xde>
     3a6:	2900      	cmp	r1, #0
     3a8:	d015      	beq.n	3d6 <_sercom_get_default_pad+0xfe>
     3aa:	2902      	cmp	r1, #2
     3ac:	d005      	beq.n	3ba <_sercom_get_default_pad+0xe2>
     3ae:	2903      	cmp	r1, #3
     3b0:	d005      	beq.n	3be <_sercom_get_default_pad+0xe6>
	return 0;
     3b2:	2000      	movs	r0, #0
     3b4:	e79e      	b.n	2f4 <_sercom_get_default_pad+0x1c>
		MREPEAT(SERCOM_INST_NUM, _SERCOM_PAD_DEFAULTS_CASE, pad)
     3b6:	481e      	ldr	r0, [pc, #120]	; (430 <_sercom_get_default_pad+0x158>)
     3b8:	e79c      	b.n	2f4 <_sercom_get_default_pad+0x1c>
     3ba:	481e      	ldr	r0, [pc, #120]	; (434 <_sercom_get_default_pad+0x15c>)
     3bc:	e79a      	b.n	2f4 <_sercom_get_default_pad+0x1c>
     3be:	481e      	ldr	r0, [pc, #120]	; (438 <_sercom_get_default_pad+0x160>)
     3c0:	e798      	b.n	2f4 <_sercom_get_default_pad+0x1c>
     3c2:	481e      	ldr	r0, [pc, #120]	; (43c <_sercom_get_default_pad+0x164>)
     3c4:	e796      	b.n	2f4 <_sercom_get_default_pad+0x1c>
     3c6:	2003      	movs	r0, #3
     3c8:	e794      	b.n	2f4 <_sercom_get_default_pad+0x1c>
     3ca:	481d      	ldr	r0, [pc, #116]	; (440 <_sercom_get_default_pad+0x168>)
     3cc:	e792      	b.n	2f4 <_sercom_get_default_pad+0x1c>
     3ce:	481d      	ldr	r0, [pc, #116]	; (444 <_sercom_get_default_pad+0x16c>)
     3d0:	e790      	b.n	2f4 <_sercom_get_default_pad+0x1c>
     3d2:	481d      	ldr	r0, [pc, #116]	; (448 <_sercom_get_default_pad+0x170>)
     3d4:	e78e      	b.n	2f4 <_sercom_get_default_pad+0x1c>
     3d6:	481d      	ldr	r0, [pc, #116]	; (44c <_sercom_get_default_pad+0x174>)
     3d8:	e78c      	b.n	2f4 <_sercom_get_default_pad+0x1c>
     3da:	46c0      	nop			; (mov r8, r8)
     3dc:	42001000 	.word	0x42001000
     3e0:	42001800 	.word	0x42001800
     3e4:	42001c00 	.word	0x42001c00
     3e8:	42001400 	.word	0x42001400
     3ec:	42000800 	.word	0x42000800
     3f0:	42000c00 	.word	0x42000c00
     3f4:	00050003 	.word	0x00050003
     3f8:	00060003 	.word	0x00060003
     3fc:	00070003 	.word	0x00070003
     400:	00010003 	.word	0x00010003
     404:	001e0003 	.word	0x001e0003
     408:	001f0003 	.word	0x001f0003
     40c:	00090003 	.word	0x00090003
     410:	000a0003 	.word	0x000a0003
     414:	000b0003 	.word	0x000b0003
     418:	00110003 	.word	0x00110003
     41c:	00120003 	.word	0x00120003
     420:	00130003 	.word	0x00130003
     424:	000d0003 	.word	0x000d0003
     428:	000e0003 	.word	0x000e0003
     42c:	000f0003 	.word	0x000f0003
     430:	00170003 	.word	0x00170003
     434:	00180003 	.word	0x00180003
     438:	00190003 	.word	0x00190003
     43c:	00040003 	.word	0x00040003
     440:	00080003 	.word	0x00080003
     444:	00100003 	.word	0x00100003
     448:	000c0003 	.word	0x000c0003
     44c:	00160003 	.word	0x00160003

00000450 <_sercom_get_sercom_inst_index>:
 *
 * \return Index of given instance.
 */
uint8_t _sercom_get_sercom_inst_index(
		Sercom *const sercom_instance)
{
     450:	b530      	push	{r4, r5, lr}
     452:	b087      	sub	sp, #28
	/* Save all available SERCOM instances for compare */
	Sercom *sercom_instances[SERCOM_INST_NUM] = SERCOM_INSTS;
     454:	4b0b      	ldr	r3, [pc, #44]	; (484 <_sercom_get_sercom_inst_index+0x34>)
     456:	466a      	mov	r2, sp
     458:	cb32      	ldmia	r3!, {r1, r4, r5}
     45a:	c232      	stmia	r2!, {r1, r4, r5}
     45c:	cb32      	ldmia	r3!, {r1, r4, r5}
     45e:	c232      	stmia	r2!, {r1, r4, r5}

	/* Find index for sercom instance */
	for (uint32_t i = 0; i < SERCOM_INST_NUM; i++) {
		if ((uintptr_t)sercom_instance == (uintptr_t)sercom_instances[i]) {
     460:	9b00      	ldr	r3, [sp, #0]
     462:	4283      	cmp	r3, r0
     464:	d00b      	beq.n	47e <_sercom_get_sercom_inst_index+0x2e>
     466:	2301      	movs	r3, #1
     468:	009a      	lsls	r2, r3, #2
     46a:	4669      	mov	r1, sp
     46c:	5852      	ldr	r2, [r2, r1]
     46e:	4282      	cmp	r2, r0
     470:	d006      	beq.n	480 <_sercom_get_sercom_inst_index+0x30>
	for (uint32_t i = 0; i < SERCOM_INST_NUM; i++) {
     472:	3301      	adds	r3, #1
     474:	2b06      	cmp	r3, #6
     476:	d1f7      	bne.n	468 <_sercom_get_sercom_inst_index+0x18>
		}
	}

	/* Invalid data given */
	Assert(false);
	return 0;
     478:	2000      	movs	r0, #0
}
     47a:	b007      	add	sp, #28
     47c:	bd30      	pop	{r4, r5, pc}
	for (uint32_t i = 0; i < SERCOM_INST_NUM; i++) {
     47e:	2300      	movs	r3, #0
			return i;
     480:	b2d8      	uxtb	r0, r3
     482:	e7fa      	b.n	47a <_sercom_get_sercom_inst_index+0x2a>
     484:	000028f0 	.word	0x000028f0

00000488 <_read>:
int __attribute__((weak))
_read (int file, char * ptr, int len); // Remove GCC compiler warning

int __attribute__((weak))
_read (int file, char * ptr, int len)
{
     488:	b5f0      	push	{r4, r5, r6, r7, lr}
     48a:	46c6      	mov	lr, r8
     48c:	b500      	push	{lr}
     48e:	000c      	movs	r4, r1
     490:	4690      	mov	r8, r2
	int nChars = 0;

	if (file != 0) {
     492:	2800      	cmp	r0, #0
     494:	d10f      	bne.n	4b6 <_read+0x2e>
		return -1;
	}

	for (; len > 0; --len) {
     496:	2a00      	cmp	r2, #0
     498:	dd11      	ble.n	4be <_read+0x36>
     49a:	188f      	adds	r7, r1, r2
		ptr_get(stdio_base, ptr);
     49c:	4e09      	ldr	r6, [pc, #36]	; (4c4 <_read+0x3c>)
     49e:	4d0a      	ldr	r5, [pc, #40]	; (4c8 <_read+0x40>)
     4a0:	6830      	ldr	r0, [r6, #0]
     4a2:	0021      	movs	r1, r4
     4a4:	682b      	ldr	r3, [r5, #0]
     4a6:	4798      	blx	r3
		ptr++;
     4a8:	3401      	adds	r4, #1
	for (; len > 0; --len) {
     4aa:	42bc      	cmp	r4, r7
     4ac:	d1f8      	bne.n	4a0 <_read+0x18>
		nChars++;
	}
	return nChars;
}
     4ae:	4640      	mov	r0, r8
     4b0:	bc04      	pop	{r2}
     4b2:	4690      	mov	r8, r2
     4b4:	bdf0      	pop	{r4, r5, r6, r7, pc}
		return -1;
     4b6:	2301      	movs	r3, #1
     4b8:	425b      	negs	r3, r3
     4ba:	4698      	mov	r8, r3
     4bc:	e7f7      	b.n	4ae <_read+0x26>
	for (; len > 0; --len) {
     4be:	4680      	mov	r8, r0
     4c0:	e7f5      	b.n	4ae <_read+0x26>
     4c2:	46c0      	nop			; (mov r8, r8)
     4c4:	200000d4 	.word	0x200000d4
     4c8:	200000cc 	.word	0x200000cc

000004cc <_write>:
int __attribute__((weak))
_write (int file, char * ptr, int len);

int __attribute__((weak))
_write (int file, char * ptr, int len)
{
     4cc:	b5f0      	push	{r4, r5, r6, r7, lr}
     4ce:	46c6      	mov	lr, r8
     4d0:	b500      	push	{lr}
     4d2:	000e      	movs	r6, r1
     4d4:	0015      	movs	r5, r2
	int nChars = 0;

	if ((file != 1) && (file != 2) && (file!=3)) {
     4d6:	3801      	subs	r0, #1
     4d8:	2802      	cmp	r0, #2
     4da:	d810      	bhi.n	4fe <_write+0x32>
		return -1;
	}

	for (; len != 0; --len) {
     4dc:	2a00      	cmp	r2, #0
     4de:	d011      	beq.n	504 <_write+0x38>
     4e0:	2400      	movs	r4, #0
		if (ptr_put(stdio_base, *ptr++) < 0) {
     4e2:	4b0c      	ldr	r3, [pc, #48]	; (514 <_write+0x48>)
     4e4:	4698      	mov	r8, r3
     4e6:	4f0c      	ldr	r7, [pc, #48]	; (518 <_write+0x4c>)
     4e8:	4643      	mov	r3, r8
     4ea:	6818      	ldr	r0, [r3, #0]
     4ec:	5d31      	ldrb	r1, [r6, r4]
     4ee:	683b      	ldr	r3, [r7, #0]
     4f0:	4798      	blx	r3
     4f2:	2800      	cmp	r0, #0
     4f4:	db08      	blt.n	508 <_write+0x3c>
			return -1;
		}
		++nChars;
     4f6:	3401      	adds	r4, #1
	for (; len != 0; --len) {
     4f8:	42a5      	cmp	r5, r4
     4fa:	d1f5      	bne.n	4e8 <_write+0x1c>
     4fc:	e006      	b.n	50c <_write+0x40>
		return -1;
     4fe:	2401      	movs	r4, #1
     500:	4264      	negs	r4, r4
     502:	e003      	b.n	50c <_write+0x40>
	for (; len != 0; --len) {
     504:	0014      	movs	r4, r2
     506:	e001      	b.n	50c <_write+0x40>
			return -1;
     508:	2401      	movs	r4, #1
     50a:	4264      	negs	r4, r4
	}
	return nChars;
}
     50c:	0020      	movs	r0, r4
     50e:	bc04      	pop	{r2}
     510:	4690      	mov	r8, r2
     512:	bdf0      	pop	{r4, r5, r6, r7, pc}
     514:	200000d4 	.word	0x200000d4
     518:	200000d0 	.word	0x200000d0

0000051c <usart_init>:
 */
enum status_code usart_init(
		struct usart_module *const module,
		Sercom *const hw,
		const struct usart_config *const config)
{
     51c:	b5f0      	push	{r4, r5, r6, r7, lr}
     51e:	46de      	mov	lr, fp
     520:	4657      	mov	r7, sl
     522:	464e      	mov	r6, r9
     524:	4645      	mov	r5, r8
     526:	b5e0      	push	{r5, r6, r7, lr}
     528:	b091      	sub	sp, #68	; 0x44
     52a:	0005      	movs	r5, r0
     52c:	000c      	movs	r4, r1
     52e:	0016      	movs	r6, r2
	Assert(config);

	enum status_code status_code = STATUS_OK;

	/* Assign module pointer to software instance struct */
	module->hw = hw;
     530:	6029      	str	r1, [r5, #0]

	/* Get a pointer to the hardware module instance */
	SercomUsart *const usart_hw = &(module->hw->USART);

	uint32_t sercom_index = _sercom_get_sercom_inst_index(module->hw);
     532:	0008      	movs	r0, r1
     534:	4bbc      	ldr	r3, [pc, #752]	; (828 <usart_init+0x30c>)
     536:	4798      	blx	r3
     538:	0002      	movs	r2, r0
#else
	pm_index     = sercom_index + PM_APBCMASK_SERCOM0_Pos;
	gclk_index   = sercom_index + SERCOM0_GCLK_ID_CORE;
#endif

	if (usart_hw->CTRLA.reg & SERCOM_USART_CTRLA_SWRST) {
     53a:	6823      	ldr	r3, [r4, #0]
		/* The module is busy resetting itself */
		return STATUS_BUSY;
     53c:	2005      	movs	r0, #5
	if (usart_hw->CTRLA.reg & SERCOM_USART_CTRLA_SWRST) {
     53e:	07db      	lsls	r3, r3, #31
     540:	d506      	bpl.n	550 <usart_init+0x34>
	_sercom_set_handler(instance_index, _usart_interrupt_handler);
	_sercom_instances[instance_index] = module;
#endif

	return status_code;
}
     542:	b011      	add	sp, #68	; 0x44
     544:	bc3c      	pop	{r2, r3, r4, r5}
     546:	4690      	mov	r8, r2
     548:	4699      	mov	r9, r3
     54a:	46a2      	mov	sl, r4
     54c:	46ab      	mov	fp, r5
     54e:	bdf0      	pop	{r4, r5, r6, r7, pc}
	if (usart_hw->CTRLA.reg & SERCOM_USART_CTRLA_ENABLE) {
     550:	6823      	ldr	r3, [r4, #0]
		return STATUS_ERR_DENIED;
     552:	3017      	adds	r0, #23
	if (usart_hw->CTRLA.reg & SERCOM_USART_CTRLA_ENABLE) {
     554:	079b      	lsls	r3, r3, #30
     556:	d4f4      	bmi.n	542 <usart_init+0x26>
		case SYSTEM_CLOCK_APB_APBB:
			PM->APBBMASK.reg |= mask;
			break;

		case SYSTEM_CLOCK_APB_APBC:
			PM->APBCMASK.reg |= mask;
     558:	49b4      	ldr	r1, [pc, #720]	; (82c <usart_init+0x310>)
     55a:	6a08      	ldr	r0, [r1, #32]
	pm_index     = sercom_index + PM_APBCMASK_SERCOM0_Pos;
     55c:	1c97      	adds	r7, r2, #2
	system_apb_clock_set_mask(SYSTEM_CLOCK_APB_APBC, 1 << pm_index);
     55e:	2301      	movs	r3, #1
     560:	40bb      	lsls	r3, r7
     562:	4303      	orrs	r3, r0
     564:	620b      	str	r3, [r1, #32]
	gclk_chan_conf.source_generator = config->generator_source;
     566:	a90f      	add	r1, sp, #60	; 0x3c
     568:	272d      	movs	r7, #45	; 0x2d
     56a:	5df3      	ldrb	r3, [r6, r7]
     56c:	700b      	strb	r3, [r1, #0]
	gclk_index   = sercom_index + SERCOM0_GCLK_ID_CORE;
     56e:	3214      	adds	r2, #20
	system_gclk_chan_set_config(gclk_index, &gclk_chan_conf);
     570:	b2d3      	uxtb	r3, r2
     572:	9302      	str	r3, [sp, #8]
     574:	0018      	movs	r0, r3
     576:	4bae      	ldr	r3, [pc, #696]	; (830 <usart_init+0x314>)
     578:	4798      	blx	r3
	system_gclk_chan_enable(gclk_index);
     57a:	9802      	ldr	r0, [sp, #8]
     57c:	4bad      	ldr	r3, [pc, #692]	; (834 <usart_init+0x318>)
     57e:	4798      	blx	r3
	sercom_set_gclk_generator(config->generator_source, false);
     580:	5df0      	ldrb	r0, [r6, r7]
     582:	2100      	movs	r1, #0
     584:	4bac      	ldr	r3, [pc, #688]	; (838 <usart_init+0x31c>)
     586:	4798      	blx	r3
	module->character_size = config->character_size;
     588:	7af3      	ldrb	r3, [r6, #11]
     58a:	716b      	strb	r3, [r5, #5]
	module->receiver_enabled = config->receiver_enable;
     58c:	2324      	movs	r3, #36	; 0x24
     58e:	5cf3      	ldrb	r3, [r6, r3]
     590:	71ab      	strb	r3, [r5, #6]
	module->transmitter_enabled = config->transmitter_enable;
     592:	2325      	movs	r3, #37	; 0x25
     594:	5cf3      	ldrb	r3, [r6, r3]
     596:	71eb      	strb	r3, [r5, #7]
	module->lin_slave_enabled = config->lin_slave_enable;
     598:	7ef3      	ldrb	r3, [r6, #27]
     59a:	722b      	strb	r3, [r5, #8]
	module->start_frame_detection_enabled = config->start_frame_detection_enable;
     59c:	7f33      	ldrb	r3, [r6, #28]
     59e:	726b      	strb	r3, [r5, #9]
	SercomUsart *const usart_hw = &(module->hw->USART);
     5a0:	682b      	ldr	r3, [r5, #0]
     5a2:	4698      	mov	r8, r3
	uint32_t sercom_index = _sercom_get_sercom_inst_index(module->hw);
     5a4:	0018      	movs	r0, r3
     5a6:	4ba0      	ldr	r3, [pc, #640]	; (828 <usart_init+0x30c>)
     5a8:	4798      	blx	r3
	uint32_t gclk_index   = sercom_index + SERCOM0_GCLK_ID_CORE;
     5aa:	3014      	adds	r0, #20
	uint16_t baud  = 0;
     5ac:	2200      	movs	r2, #0
     5ae:	230e      	movs	r3, #14
     5b0:	a906      	add	r1, sp, #24
     5b2:	468c      	mov	ip, r1
     5b4:	4463      	add	r3, ip
     5b6:	801a      	strh	r2, [r3, #0]
	switch (config->sample_rate) {
     5b8:	8a32      	ldrh	r2, [r6, #16]
     5ba:	9202      	str	r2, [sp, #8]
     5bc:	2380      	movs	r3, #128	; 0x80
     5be:	01db      	lsls	r3, r3, #7
     5c0:	429a      	cmp	r2, r3
     5c2:	d100      	bne.n	5c6 <usart_init+0xaa>
     5c4:	e09e      	b.n	704 <usart_init+0x1e8>
     5c6:	d90f      	bls.n	5e8 <usart_init+0xcc>
     5c8:	23c0      	movs	r3, #192	; 0xc0
     5ca:	01db      	lsls	r3, r3, #7
     5cc:	9a02      	ldr	r2, [sp, #8]
     5ce:	429a      	cmp	r2, r3
     5d0:	d100      	bne.n	5d4 <usart_init+0xb8>
     5d2:	e092      	b.n	6fa <usart_init+0x1de>
     5d4:	2380      	movs	r3, #128	; 0x80
     5d6:	021b      	lsls	r3, r3, #8
     5d8:	429a      	cmp	r2, r3
     5da:	d000      	beq.n	5de <usart_init+0xc2>
     5dc:	e11f      	b.n	81e <usart_init+0x302>
			sample_num = SERCOM_ASYNC_SAMPLE_NUM_3;
     5de:	2303      	movs	r3, #3
     5e0:	9306      	str	r3, [sp, #24]
			mode = SERCOM_ASYNC_OPERATION_MODE_ARITHMETIC;
     5e2:	2300      	movs	r3, #0
     5e4:	9307      	str	r3, [sp, #28]
     5e6:	e008      	b.n	5fa <usart_init+0xde>
	switch (config->sample_rate) {
     5e8:	2380      	movs	r3, #128	; 0x80
     5ea:	019b      	lsls	r3, r3, #6
     5ec:	429a      	cmp	r2, r3
     5ee:	d000      	beq.n	5f2 <usart_init+0xd6>
     5f0:	e115      	b.n	81e <usart_init+0x302>
			sample_num = SERCOM_ASYNC_SAMPLE_NUM_16;
     5f2:	2310      	movs	r3, #16
     5f4:	9306      	str	r3, [sp, #24]
			mode = SERCOM_ASYNC_OPERATION_MODE_FRACTIONAL;
     5f6:	3b0f      	subs	r3, #15
     5f8:	9307      	str	r3, [sp, #28]
	ctrla = (uint32_t)config->data_order |
     5fa:	6833      	ldr	r3, [r6, #0]
     5fc:	9305      	str	r3, [sp, #20]
		(uint32_t)config->mux_setting |
     5fe:	68f3      	ldr	r3, [r6, #12]
     600:	9303      	str	r3, [sp, #12]
		config->sample_adjustment |
     602:	6973      	ldr	r3, [r6, #20]
     604:	9304      	str	r3, [sp, #16]
		(config->immediate_buffer_overflow_notification << SERCOM_USART_CTRLA_IBON_Pos) |
     606:	7e33      	ldrb	r3, [r6, #24]
     608:	469b      	mov	fp, r3
		(config->clock_polarity_inverted << SERCOM_USART_CTRLA_CPOL_Pos);
     60a:	2326      	movs	r3, #38	; 0x26
     60c:	5cf3      	ldrb	r3, [r6, r3]
     60e:	469a      	mov	sl, r3
	transfer_mode = (uint32_t)config->transfer_mode;
     610:	6873      	ldr	r3, [r6, #4]
     612:	4699      	mov	r9, r3
	switch (transfer_mode)
     614:	2b00      	cmp	r3, #0
     616:	d100      	bne.n	61a <usart_init+0xfe>
     618:	e0a0      	b.n	75c <usart_init+0x240>
     61a:	2380      	movs	r3, #128	; 0x80
     61c:	055b      	lsls	r3, r3, #21
     61e:	4599      	cmp	r9, r3
     620:	d100      	bne.n	624 <usart_init+0x108>
     622:	e084      	b.n	72e <usart_init+0x212>
	if(config->encoding_format_enable) {
     624:	7e73      	ldrb	r3, [r6, #25]
     626:	2b00      	cmp	r3, #0
     628:	d002      	beq.n	630 <usart_init+0x114>
		usart_hw->RXPL.reg = config->receive_pulse_length;
     62a:	7eb3      	ldrb	r3, [r6, #26]
     62c:	4642      	mov	r2, r8
     62e:	7393      	strb	r3, [r2, #14]
{
	/* Sanity check arguments */
	Assert(module);
	Assert(module->hw);

	SercomUsart *const usart_hw = &(module->hw->USART);
     630:	682a      	ldr	r2, [r5, #0]
     632:	9f02      	ldr	r7, [sp, #8]

#ifdef FEATURE_USART_SYNC_SCHEME_V2
	return (usart_hw->SYNCBUSY.reg);
     634:	69d3      	ldr	r3, [r2, #28]
		const struct usart_module *const module)
{
	/* Sanity check */
	Assert(module);

	while (usart_is_syncing(module)) {
     636:	2b00      	cmp	r3, #0
     638:	d1fc      	bne.n	634 <usart_init+0x118>
	usart_hw->BAUD.reg = baud;
     63a:	330e      	adds	r3, #14
     63c:	aa06      	add	r2, sp, #24
     63e:	4694      	mov	ip, r2
     640:	4463      	add	r3, ip
     642:	881b      	ldrh	r3, [r3, #0]
     644:	4642      	mov	r2, r8
     646:	8193      	strh	r3, [r2, #12]
	ctrla |= transfer_mode;
     648:	9b05      	ldr	r3, [sp, #20]
     64a:	9a03      	ldr	r2, [sp, #12]
     64c:	4313      	orrs	r3, r2
     64e:	9a04      	ldr	r2, [sp, #16]
     650:	4313      	orrs	r3, r2
     652:	464a      	mov	r2, r9
     654:	4313      	orrs	r3, r2
     656:	431f      	orrs	r7, r3
		(config->immediate_buffer_overflow_notification << SERCOM_USART_CTRLA_IBON_Pos) |
     658:	465b      	mov	r3, fp
     65a:	021b      	lsls	r3, r3, #8
	ctrla |= transfer_mode;
     65c:	431f      	orrs	r7, r3
		(config->clock_polarity_inverted << SERCOM_USART_CTRLA_CPOL_Pos);
     65e:	4653      	mov	r3, sl
     660:	075b      	lsls	r3, r3, #29
	ctrla |= transfer_mode;
     662:	431f      	orrs	r7, r3
	if (config->use_external_clock == false) {
     664:	2327      	movs	r3, #39	; 0x27
     666:	5cf3      	ldrb	r3, [r6, r3]
     668:	2b00      	cmp	r3, #0
     66a:	d101      	bne.n	670 <usart_init+0x154>
		ctrla |= SERCOM_USART_CTRLA_MODE(0x1);
     66c:	3304      	adds	r3, #4
     66e:	431f      	orrs	r7, r3
			(config->encoding_format_enable << SERCOM_USART_CTRLB_ENC_Pos) |
     670:	7e73      	ldrb	r3, [r6, #25]
     672:	029b      	lsls	r3, r3, #10
			(config->start_frame_detection_enable << SERCOM_USART_CTRLB_SFDE_Pos) |
     674:	7f32      	ldrb	r2, [r6, #28]
     676:	0252      	lsls	r2, r2, #9
			(config->encoding_format_enable << SERCOM_USART_CTRLB_ENC_Pos) |
     678:	4313      	orrs	r3, r2
			(config->collision_detection_enable << SERCOM_USART_CTRLB_COLDEN_Pos) |
     67a:	7f72      	ldrb	r2, [r6, #29]
     67c:	0212      	lsls	r2, r2, #8
			(config->start_frame_detection_enable << SERCOM_USART_CTRLB_SFDE_Pos) |
     67e:	4313      	orrs	r3, r2
			(config->receiver_enable << SERCOM_USART_CTRLB_RXEN_Pos) |
     680:	2224      	movs	r2, #36	; 0x24
     682:	5cb2      	ldrb	r2, [r6, r2]
     684:	0452      	lsls	r2, r2, #17
			(config->collision_detection_enable << SERCOM_USART_CTRLB_COLDEN_Pos) |
     686:	4313      	orrs	r3, r2
			(config->transmitter_enable << SERCOM_USART_CTRLB_TXEN_Pos);
     688:	2225      	movs	r2, #37	; 0x25
     68a:	5cb2      	ldrb	r2, [r6, r2]
     68c:	0412      	lsls	r2, r2, #16
			(config->receiver_enable << SERCOM_USART_CTRLB_RXEN_Pos) |
     68e:	4313      	orrs	r3, r2
	ctrlb |= (uint32_t)config->character_size;
     690:	7ab1      	ldrb	r1, [r6, #10]
     692:	7af2      	ldrb	r2, [r6, #11]
     694:	4311      	orrs	r1, r2
     696:	4319      	orrs	r1, r3
	if (config->parity != USART_PARITY_NONE) {
     698:	8933      	ldrh	r3, [r6, #8]
     69a:	2bff      	cmp	r3, #255	; 0xff
     69c:	d100      	bne.n	6a0 <usart_init+0x184>
     69e:	e081      	b.n	7a4 <usart_init+0x288>
		ctrla |= SERCOM_USART_CTRLA_FORM(1);
     6a0:	2280      	movs	r2, #128	; 0x80
     6a2:	0452      	lsls	r2, r2, #17
     6a4:	4317      	orrs	r7, r2
		ctrlb |= config->parity;
     6a6:	4319      	orrs	r1, r3
	if (config->run_in_standby || system_is_debugger_present()) {
     6a8:	232c      	movs	r3, #44	; 0x2c
     6aa:	5cf3      	ldrb	r3, [r6, r3]
     6ac:	2b00      	cmp	r3, #0
     6ae:	d103      	bne.n	6b8 <usart_init+0x19c>
 * \retval false Debugger is not connected to the system
 *
 */
static inline bool system_is_debugger_present(void)
{
	return DSU->STATUSB.reg & DSU_STATUSB_DBGPRES;
     6b0:	4b62      	ldr	r3, [pc, #392]	; (83c <usart_init+0x320>)
     6b2:	789b      	ldrb	r3, [r3, #2]
     6b4:	079b      	lsls	r3, r3, #30
     6b6:	d501      	bpl.n	6bc <usart_init+0x1a0>
		ctrla |= SERCOM_USART_CTRLA_RUNSTDBY;
     6b8:	2380      	movs	r3, #128	; 0x80
     6ba:	431f      	orrs	r7, r3
	SercomUsart *const usart_hw = &(module->hw->USART);
     6bc:	682a      	ldr	r2, [r5, #0]
	return (usart_hw->SYNCBUSY.reg);
     6be:	69d3      	ldr	r3, [r2, #28]
	while (usart_is_syncing(module)) {
     6c0:	2b00      	cmp	r3, #0
     6c2:	d1fc      	bne.n	6be <usart_init+0x1a2>
	usart_hw->CTRLB.reg = ctrlb;
     6c4:	4643      	mov	r3, r8
     6c6:	6059      	str	r1, [r3, #4]
	SercomUsart *const usart_hw = &(module->hw->USART);
     6c8:	682a      	ldr	r2, [r5, #0]
	return (usart_hw->SYNCBUSY.reg);
     6ca:	69d3      	ldr	r3, [r2, #28]
	while (usart_is_syncing(module)) {
     6cc:	2b00      	cmp	r3, #0
     6ce:	d1fc      	bne.n	6ca <usart_init+0x1ae>
	usart_hw->CTRLA.reg = ctrla;
     6d0:	4643      	mov	r3, r8
     6d2:	601f      	str	r7, [r3, #0]
{
	/* Sanity check arguments */
	Assert(config);

	/* Default configuration values */
	config->mux_position = SYSTEM_PINMUX_GPIO;
     6d4:	ab0e      	add	r3, sp, #56	; 0x38
     6d6:	2280      	movs	r2, #128	; 0x80
     6d8:	701a      	strb	r2, [r3, #0]
	config->direction    = SYSTEM_PINMUX_PIN_DIR_INPUT;
     6da:	2200      	movs	r2, #0
     6dc:	705a      	strb	r2, [r3, #1]
	config->input_pull   = SYSTEM_PINMUX_PIN_PULL_UP;
	config->powersave    = false;
     6de:	70da      	strb	r2, [r3, #3]
	pin_conf.input_pull = SYSTEM_PINMUX_PIN_PULL_NONE;
     6e0:	709a      	strb	r2, [r3, #2]
	uint32_t pad_pinmuxes[] = {
     6e2:	6b33      	ldr	r3, [r6, #48]	; 0x30
     6e4:	930a      	str	r3, [sp, #40]	; 0x28
     6e6:	6b73      	ldr	r3, [r6, #52]	; 0x34
     6e8:	930b      	str	r3, [sp, #44]	; 0x2c
     6ea:	6bb3      	ldr	r3, [r6, #56]	; 0x38
     6ec:	930c      	str	r3, [sp, #48]	; 0x30
     6ee:	6bf3      	ldr	r3, [r6, #60]	; 0x3c
     6f0:	9302      	str	r3, [sp, #8]
     6f2:	930d      	str	r3, [sp, #52]	; 0x34
     6f4:	2700      	movs	r7, #0
		uint32_t current_pinmux = pad_pinmuxes[pad];
     6f6:	ae0a      	add	r6, sp, #40	; 0x28
     6f8:	e063      	b.n	7c2 <usart_init+0x2a6>
			sample_num = SERCOM_ASYNC_SAMPLE_NUM_8;
     6fa:	2308      	movs	r3, #8
     6fc:	9306      	str	r3, [sp, #24]
			mode = SERCOM_ASYNC_OPERATION_MODE_FRACTIONAL;
     6fe:	3b07      	subs	r3, #7
     700:	9307      	str	r3, [sp, #28]
     702:	e77a      	b.n	5fa <usart_init+0xde>
	ctrla = (uint32_t)config->data_order |
     704:	6833      	ldr	r3, [r6, #0]
     706:	9305      	str	r3, [sp, #20]
		(uint32_t)config->mux_setting |
     708:	68f3      	ldr	r3, [r6, #12]
     70a:	9303      	str	r3, [sp, #12]
		config->sample_adjustment |
     70c:	6973      	ldr	r3, [r6, #20]
     70e:	9304      	str	r3, [sp, #16]
		(config->immediate_buffer_overflow_notification << SERCOM_USART_CTRLA_IBON_Pos) |
     710:	7e33      	ldrb	r3, [r6, #24]
     712:	469b      	mov	fp, r3
		(config->clock_polarity_inverted << SERCOM_USART_CTRLA_CPOL_Pos);
     714:	2326      	movs	r3, #38	; 0x26
     716:	5cf3      	ldrb	r3, [r6, r3]
     718:	469a      	mov	sl, r3
	transfer_mode = (uint32_t)config->transfer_mode;
     71a:	6873      	ldr	r3, [r6, #4]
     71c:	4699      	mov	r9, r3
	switch (transfer_mode)
     71e:	2b00      	cmp	r3, #0
     720:	d018      	beq.n	754 <usart_init+0x238>
     722:	2380      	movs	r3, #128	; 0x80
     724:	055b      	lsls	r3, r3, #21
     726:	4599      	cmp	r9, r3
     728:	d001      	beq.n	72e <usart_init+0x212>
	enum status_code status_code = STATUS_OK;
     72a:	2000      	movs	r0, #0
     72c:	e025      	b.n	77a <usart_init+0x25e>
			if (!config->use_external_clock) {
     72e:	2327      	movs	r3, #39	; 0x27
     730:	5cf3      	ldrb	r3, [r6, r3]
     732:	2b00      	cmp	r3, #0
     734:	d000      	beq.n	738 <usart_init+0x21c>
     736:	e775      	b.n	624 <usart_init+0x108>
				status_code = _sercom_get_sync_baud_val(config->baudrate,
     738:	6a33      	ldr	r3, [r6, #32]
     73a:	001f      	movs	r7, r3
     73c:	b2c0      	uxtb	r0, r0
     73e:	4b40      	ldr	r3, [pc, #256]	; (840 <usart_init+0x324>)
     740:	4798      	blx	r3
     742:	0001      	movs	r1, r0
     744:	220e      	movs	r2, #14
     746:	ab06      	add	r3, sp, #24
     748:	469c      	mov	ip, r3
     74a:	4462      	add	r2, ip
     74c:	0038      	movs	r0, r7
     74e:	4b3d      	ldr	r3, [pc, #244]	; (844 <usart_init+0x328>)
     750:	4798      	blx	r3
     752:	e012      	b.n	77a <usart_init+0x25e>
			sample_num = SERCOM_ASYNC_SAMPLE_NUM_8;
     754:	2308      	movs	r3, #8
     756:	9306      	str	r3, [sp, #24]
			mode = SERCOM_ASYNC_OPERATION_MODE_ARITHMETIC;
     758:	2300      	movs	r3, #0
     75a:	9307      	str	r3, [sp, #28]
			if (config->use_external_clock) {
     75c:	2327      	movs	r3, #39	; 0x27
     75e:	5cf3      	ldrb	r3, [r6, r3]
     760:	2b00      	cmp	r3, #0
     762:	d00e      	beq.n	782 <usart_init+0x266>
				status_code =
     764:	9b06      	ldr	r3, [sp, #24]
     766:	9300      	str	r3, [sp, #0]
     768:	9b07      	ldr	r3, [sp, #28]
     76a:	220e      	movs	r2, #14
     76c:	a906      	add	r1, sp, #24
     76e:	468c      	mov	ip, r1
     770:	4462      	add	r2, ip
     772:	6ab1      	ldr	r1, [r6, #40]	; 0x28
     774:	6a30      	ldr	r0, [r6, #32]
     776:	4f34      	ldr	r7, [pc, #208]	; (848 <usart_init+0x32c>)
     778:	47b8      	blx	r7
	if (status_code != STATUS_OK) {
     77a:	2800      	cmp	r0, #0
     77c:	d000      	beq.n	780 <usart_init+0x264>
     77e:	e6e0      	b.n	542 <usart_init+0x26>
     780:	e750      	b.n	624 <usart_init+0x108>
						_sercom_get_async_baud_val(config->baudrate,
     782:	6a33      	ldr	r3, [r6, #32]
     784:	001f      	movs	r7, r3
     786:	b2c0      	uxtb	r0, r0
     788:	4b2d      	ldr	r3, [pc, #180]	; (840 <usart_init+0x324>)
     78a:	4798      	blx	r3
     78c:	0001      	movs	r1, r0
				status_code =
     78e:	9b06      	ldr	r3, [sp, #24]
     790:	9300      	str	r3, [sp, #0]
     792:	9b07      	ldr	r3, [sp, #28]
     794:	220e      	movs	r2, #14
     796:	a806      	add	r0, sp, #24
     798:	4684      	mov	ip, r0
     79a:	4462      	add	r2, ip
     79c:	0038      	movs	r0, r7
     79e:	4f2a      	ldr	r7, [pc, #168]	; (848 <usart_init+0x32c>)
     7a0:	47b8      	blx	r7
     7a2:	e7ea      	b.n	77a <usart_init+0x25e>
		if(config->lin_slave_enable) {
     7a4:	7ef3      	ldrb	r3, [r6, #27]
     7a6:	2b00      	cmp	r3, #0
     7a8:	d100      	bne.n	7ac <usart_init+0x290>
     7aa:	e77d      	b.n	6a8 <usart_init+0x18c>
			ctrla |= SERCOM_USART_CTRLA_FORM(0x4);
     7ac:	2380      	movs	r3, #128	; 0x80
     7ae:	04db      	lsls	r3, r3, #19
     7b0:	431f      	orrs	r7, r3
     7b2:	e779      	b.n	6a8 <usart_init+0x18c>
			current_pinmux = _sercom_get_default_pad(hw, pad);
     7b4:	0020      	movs	r0, r4
     7b6:	4b25      	ldr	r3, [pc, #148]	; (84c <usart_init+0x330>)
     7b8:	4798      	blx	r3
     7ba:	e007      	b.n	7cc <usart_init+0x2b0>
     7bc:	3701      	adds	r7, #1
	for (uint8_t pad = 0; pad < 4; pad++) {
     7be:	2f04      	cmp	r7, #4
     7c0:	d00d      	beq.n	7de <usart_init+0x2c2>
     7c2:	b2f9      	uxtb	r1, r7
		uint32_t current_pinmux = pad_pinmuxes[pad];
     7c4:	00bb      	lsls	r3, r7, #2
     7c6:	5998      	ldr	r0, [r3, r6]
		if (current_pinmux == PINMUX_DEFAULT) {
     7c8:	2800      	cmp	r0, #0
     7ca:	d0f3      	beq.n	7b4 <usart_init+0x298>
		if (current_pinmux != PINMUX_UNUSED) {
     7cc:	1c43      	adds	r3, r0, #1
     7ce:	d0f5      	beq.n	7bc <usart_init+0x2a0>
			pin_conf.mux_position = current_pinmux & 0xFFFF;
     7d0:	a90e      	add	r1, sp, #56	; 0x38
     7d2:	7008      	strb	r0, [r1, #0]
			system_pinmux_pin_set_config(current_pinmux >> 16, &pin_conf);
     7d4:	0c00      	lsrs	r0, r0, #16
     7d6:	b2c0      	uxtb	r0, r0
     7d8:	4b1d      	ldr	r3, [pc, #116]	; (850 <usart_init+0x334>)
     7da:	4798      	blx	r3
     7dc:	e7ee      	b.n	7bc <usart_init+0x2a0>
		module->callback[i]            = NULL;
     7de:	2300      	movs	r3, #0
     7e0:	60eb      	str	r3, [r5, #12]
     7e2:	612b      	str	r3, [r5, #16]
     7e4:	616b      	str	r3, [r5, #20]
     7e6:	61ab      	str	r3, [r5, #24]
     7e8:	61eb      	str	r3, [r5, #28]
     7ea:	622b      	str	r3, [r5, #32]
	module->tx_buffer_ptr              = NULL;
     7ec:	62ab      	str	r3, [r5, #40]	; 0x28
	module->rx_buffer_ptr              = NULL;
     7ee:	626b      	str	r3, [r5, #36]	; 0x24
	module->remaining_tx_buffer_length = 0x0000;
     7f0:	2200      	movs	r2, #0
     7f2:	85eb      	strh	r3, [r5, #46]	; 0x2e
	module->remaining_rx_buffer_length = 0x0000;
     7f4:	85ab      	strh	r3, [r5, #44]	; 0x2c
	module->callback_reg_mask          = 0x00;
     7f6:	3330      	adds	r3, #48	; 0x30
     7f8:	54ea      	strb	r2, [r5, r3]
	module->callback_enable_mask       = 0x00;
     7fa:	3301      	adds	r3, #1
     7fc:	54ea      	strb	r2, [r5, r3]
	module->rx_status                  = STATUS_OK;
     7fe:	3301      	adds	r3, #1
     800:	54ea      	strb	r2, [r5, r3]
	module->tx_status                  = STATUS_OK;
     802:	3301      	adds	r3, #1
     804:	54ea      	strb	r2, [r5, r3]
	uint8_t instance_index = _sercom_get_sercom_inst_index(module->hw);
     806:	6828      	ldr	r0, [r5, #0]
     808:	4b07      	ldr	r3, [pc, #28]	; (828 <usart_init+0x30c>)
     80a:	4798      	blx	r3
     80c:	0004      	movs	r4, r0
	_sercom_set_handler(instance_index, _usart_interrupt_handler);
     80e:	4911      	ldr	r1, [pc, #68]	; (854 <usart_init+0x338>)
     810:	4b11      	ldr	r3, [pc, #68]	; (858 <usart_init+0x33c>)
     812:	4798      	blx	r3
	_sercom_instances[instance_index] = module;
     814:	00a4      	lsls	r4, r4, #2
     816:	4b11      	ldr	r3, [pc, #68]	; (85c <usart_init+0x340>)
     818:	50e5      	str	r5, [r4, r3]
	return status_code;
     81a:	2000      	movs	r0, #0
     81c:	e691      	b.n	542 <usart_init+0x26>
	enum sercom_asynchronous_sample_num sample_num = SERCOM_ASYNC_SAMPLE_NUM_16;
     81e:	2310      	movs	r3, #16
     820:	9306      	str	r3, [sp, #24]
	enum sercom_asynchronous_operation_mode mode = SERCOM_ASYNC_OPERATION_MODE_ARITHMETIC;
     822:	2300      	movs	r3, #0
     824:	9307      	str	r3, [sp, #28]
     826:	e6e8      	b.n	5fa <usart_init+0xde>
     828:	00000451 	.word	0x00000451
     82c:	40000400 	.word	0x40000400
     830:	000012e5 	.word	0x000012e5
     834:	00001259 	.word	0x00001259
     838:	0000028d 	.word	0x0000028d
     83c:	41002000 	.word	0x41002000
     840:	00001301 	.word	0x00001301
     844:	000001cf 	.word	0x000001cf
     848:	000001f9 	.word	0x000001f9
     84c:	000002d9 	.word	0x000002d9
     850:	000013dd 	.word	0x000013dd
     854:	00000971 	.word	0x00000971
     858:	00000b09 	.word	0x00000b09
     85c:	200000d8 	.word	0x200000d8

00000860 <usart_write_wait>:

	/* Get a pointer to the hardware module instance */
	SercomUsart *const usart_hw = &(module->hw->USART);

	/* Check that the transmitter is enabled */
	if (!(module->transmitter_enabled)) {
     860:	79c2      	ldrb	r2, [r0, #7]
		return STATUS_ERR_DENIED;
     862:	231c      	movs	r3, #28
	if (!(module->transmitter_enabled)) {
     864:	2a00      	cmp	r2, #0
     866:	d101      	bne.n	86c <usart_write_wait+0xc>
	while (!(usart_hw->INTFLAG.reg & SERCOM_USART_INTFLAG_TXC)) {
		/* Wait until data is sent */
	}

	return STATUS_OK;
}
     868:	0018      	movs	r0, r3
     86a:	4770      	bx	lr
	if (module->remaining_tx_buffer_length > 0) {
     86c:	8dc2      	ldrh	r2, [r0, #46]	; 0x2e
     86e:	b292      	uxth	r2, r2
		return STATUS_BUSY;
     870:	3b17      	subs	r3, #23
	if (module->remaining_tx_buffer_length > 0) {
     872:	2a00      	cmp	r2, #0
     874:	d1f8      	bne.n	868 <usart_write_wait+0x8>
	SercomUsart *const usart_hw = &(module->hw->USART);
     876:	6803      	ldr	r3, [r0, #0]
	return (usart_hw->SYNCBUSY.reg);
     878:	69da      	ldr	r2, [r3, #28]
	while (usart_is_syncing(module)) {
     87a:	2a00      	cmp	r2, #0
     87c:	d1fc      	bne.n	878 <usart_write_wait+0x18>
	usart_hw->DATA.reg = tx_data;
     87e:	8519      	strh	r1, [r3, #40]	; 0x28
	while (!(usart_hw->INTFLAG.reg & SERCOM_USART_INTFLAG_TXC)) {
     880:	2102      	movs	r1, #2
     882:	7e1a      	ldrb	r2, [r3, #24]
     884:	420a      	tst	r2, r1
     886:	d0fc      	beq.n	882 <usart_write_wait+0x22>
	return STATUS_OK;
     888:	2300      	movs	r3, #0
     88a:	e7ed      	b.n	868 <usart_write_wait+0x8>

0000088c <usart_read_wait>:

	/* Get a pointer to the hardware module instance */
	SercomUsart *const usart_hw = &(module->hw->USART);

	/* Check that the receiver is enabled */
	if (!(module->receiver_enabled)) {
     88c:	7982      	ldrb	r2, [r0, #6]
		return STATUS_ERR_DENIED;
     88e:	231c      	movs	r3, #28
	if (!(module->receiver_enabled)) {
     890:	2a00      	cmp	r2, #0
     892:	d101      	bne.n	898 <usart_read_wait+0xc>

	/* Read data from USART module */
	*rx_data = usart_hw->DATA.reg;

	return STATUS_OK;
}
     894:	0018      	movs	r0, r3
     896:	4770      	bx	lr
	if (module->remaining_rx_buffer_length > 0) {
     898:	8d82      	ldrh	r2, [r0, #44]	; 0x2c
     89a:	b292      	uxth	r2, r2
		return STATUS_BUSY;
     89c:	3b17      	subs	r3, #23
	if (module->remaining_rx_buffer_length > 0) {
     89e:	2a00      	cmp	r2, #0
     8a0:	d1f8      	bne.n	894 <usart_read_wait+0x8>
	SercomUsart *const usart_hw = &(module->hw->USART);
     8a2:	6802      	ldr	r2, [r0, #0]
	if (!(usart_hw->INTFLAG.reg & SERCOM_USART_INTFLAG_RXC)) {
     8a4:	7e10      	ldrb	r0, [r2, #24]
     8a6:	0740      	lsls	r0, r0, #29
     8a8:	d5f4      	bpl.n	894 <usart_read_wait+0x8>
	return (usart_hw->SYNCBUSY.reg);
     8aa:	69d3      	ldr	r3, [r2, #28]
	while (usart_is_syncing(module)) {
     8ac:	2b00      	cmp	r3, #0
     8ae:	d1fc      	bne.n	8aa <usart_read_wait+0x1e>
	error_code = (uint8_t)(usart_hw->STATUS.reg & SERCOM_USART_STATUS_MASK);
     8b0:	8b53      	ldrh	r3, [r2, #26]
     8b2:	b2db      	uxtb	r3, r3
	if (error_code) {
     8b4:	0698      	lsls	r0, r3, #26
     8b6:	d01d      	beq.n	8f4 <usart_read_wait+0x68>
		if (error_code & SERCOM_USART_STATUS_FERR) {
     8b8:	0798      	lsls	r0, r3, #30
     8ba:	d503      	bpl.n	8c4 <usart_read_wait+0x38>
			usart_hw->STATUS.reg = SERCOM_USART_STATUS_FERR;
     8bc:	2302      	movs	r3, #2
     8be:	8353      	strh	r3, [r2, #26]
			return STATUS_ERR_BAD_FORMAT;
     8c0:	3318      	adds	r3, #24
     8c2:	e7e7      	b.n	894 <usart_read_wait+0x8>
		} else if (error_code & SERCOM_USART_STATUS_BUFOVF) {
     8c4:	0758      	lsls	r0, r3, #29
     8c6:	d503      	bpl.n	8d0 <usart_read_wait+0x44>
			usart_hw->STATUS.reg = SERCOM_USART_STATUS_BUFOVF;
     8c8:	2304      	movs	r3, #4
     8ca:	8353      	strh	r3, [r2, #26]
			return STATUS_ERR_OVERFLOW;
     8cc:	331a      	adds	r3, #26
     8ce:	e7e1      	b.n	894 <usart_read_wait+0x8>
		} else if (error_code & SERCOM_USART_STATUS_PERR) {
     8d0:	07d8      	lsls	r0, r3, #31
     8d2:	d503      	bpl.n	8dc <usart_read_wait+0x50>
			usart_hw->STATUS.reg = SERCOM_USART_STATUS_PERR;
     8d4:	2301      	movs	r3, #1
     8d6:	8353      	strh	r3, [r2, #26]
			return STATUS_ERR_BAD_DATA;
     8d8:	3312      	adds	r3, #18
     8da:	e7db      	b.n	894 <usart_read_wait+0x8>
		else if (error_code & SERCOM_USART_STATUS_ISF) {
     8dc:	06d8      	lsls	r0, r3, #27
     8de:	d503      	bpl.n	8e8 <usart_read_wait+0x5c>
			usart_hw->STATUS.reg = SERCOM_USART_STATUS_ISF;
     8e0:	2310      	movs	r3, #16
     8e2:	8353      	strh	r3, [r2, #26]
			return STATUS_ERR_PROTOCOL;
     8e4:	3332      	adds	r3, #50	; 0x32
     8e6:	e7d5      	b.n	894 <usart_read_wait+0x8>
		else if (error_code & SERCOM_USART_STATUS_COLL) {
     8e8:	069b      	lsls	r3, r3, #26
     8ea:	d503      	bpl.n	8f4 <usart_read_wait+0x68>
			usart_hw->STATUS.reg = SERCOM_USART_STATUS_COLL;
     8ec:	2320      	movs	r3, #32
     8ee:	8353      	strh	r3, [r2, #26]
			return STATUS_ERR_PACKET_COLLISION;
     8f0:	3321      	adds	r3, #33	; 0x21
     8f2:	e7cf      	b.n	894 <usart_read_wait+0x8>
	*rx_data = usart_hw->DATA.reg;
     8f4:	8d13      	ldrh	r3, [r2, #40]	; 0x28
     8f6:	800b      	strh	r3, [r1, #0]
	return STATUS_OK;
     8f8:	2300      	movs	r3, #0
     8fa:	e7cb      	b.n	894 <usart_read_wait+0x8>

000008fc <_usart_write_buffer>:
 */
enum status_code _usart_write_buffer(
		struct usart_module *const module,
		uint8_t *tx_data,
		uint16_t length)
{
     8fc:	b5f8      	push	{r3, r4, r5, r6, r7, lr}
     8fe:	0006      	movs	r6, r0
     900:	000c      	movs	r4, r1
     902:	0015      	movs	r5, r2
	Assert(module);
	Assert(module->hw);
	Assert(tx_data);

	/* Get a pointer to the hardware module instance */
	SercomUsart *const usart_hw = &(module->hw->USART);
     904:	6807      	ldr	r7, [r0, #0]
 * are only re-enabled upon leaving the outermost nested critical section.
 *
 */
static inline void system_interrupt_enter_critical_section(void)
{
	cpu_irq_enter_critical();
     906:	4b0a      	ldr	r3, [pc, #40]	; (930 <_usart_write_buffer+0x34>)
     908:	4798      	blx	r3

	system_interrupt_enter_critical_section();

	/* Check if the USART transmitter is busy */
	if (module->remaining_tx_buffer_length > 0) {
     90a:	8df3      	ldrh	r3, [r6, #46]	; 0x2e
     90c:	b29b      	uxth	r3, r3
     90e:	2b00      	cmp	r3, #0
     910:	d003      	beq.n	91a <_usart_write_buffer+0x1e>
 * are only re-enabled upon leaving the outermost nested critical section.
 *
 */
static inline void system_interrupt_leave_critical_section(void)
{
	cpu_irq_leave_critical();
     912:	4b08      	ldr	r3, [pc, #32]	; (934 <_usart_write_buffer+0x38>)
     914:	4798      	blx	r3
		system_interrupt_leave_critical_section();
		return STATUS_BUSY;
     916:	2005      	movs	r0, #5

	/* Enable the Data Register Empty Interrupt */
	usart_hw->INTENSET.reg = SERCOM_USART_INTFLAG_DRE;

	return STATUS_OK;
}
     918:	bdf8      	pop	{r3, r4, r5, r6, r7, pc}
	module->remaining_tx_buffer_length = length;
     91a:	85f5      	strh	r5, [r6, #46]	; 0x2e
     91c:	4b05      	ldr	r3, [pc, #20]	; (934 <_usart_write_buffer+0x38>)
     91e:	4798      	blx	r3
	module->tx_buffer_ptr              = tx_data;
     920:	62b4      	str	r4, [r6, #40]	; 0x28
	module->tx_status                  = STATUS_BUSY;
     922:	2205      	movs	r2, #5
     924:	2333      	movs	r3, #51	; 0x33
     926:	54f2      	strb	r2, [r6, r3]
	usart_hw->INTENSET.reg = SERCOM_USART_INTFLAG_DRE;
     928:	3b32      	subs	r3, #50	; 0x32
     92a:	75bb      	strb	r3, [r7, #22]
	return STATUS_OK;
     92c:	2000      	movs	r0, #0
     92e:	e7f3      	b.n	918 <_usart_write_buffer+0x1c>
     930:	00000bd5 	.word	0x00000bd5
     934:	00000c15 	.word	0x00000c15

00000938 <usart_register_callback>:
	/* Sanity check arguments */
	Assert(module);
	Assert(callback_func);

	/* Register callback function */
	module->callback[callback_type] = callback_func;
     938:	1c93      	adds	r3, r2, #2
     93a:	009b      	lsls	r3, r3, #2
     93c:	18c3      	adds	r3, r0, r3
     93e:	6059      	str	r1, [r3, #4]

	/* Set the bit corresponding to the callback_type */
	module->callback_reg_mask |= (1 << callback_type);
     940:	2130      	movs	r1, #48	; 0x30
     942:	2301      	movs	r3, #1
     944:	4093      	lsls	r3, r2
     946:	001a      	movs	r2, r3
     948:	5c43      	ldrb	r3, [r0, r1]
     94a:	4313      	orrs	r3, r2
     94c:	5443      	strb	r3, [r0, r1]
}
     94e:	4770      	bx	lr

00000950 <usart_write_buffer_job>:
 */
enum status_code usart_write_buffer_job(
		struct usart_module *const module,
		uint8_t *tx_data,
		uint16_t length)
{
     950:	b510      	push	{r4, lr}
	/* Sanity check arguments */
	Assert(module);
	Assert(tx_data);

	if (length == 0) {
		return STATUS_ERR_INVALID_ARG;
     952:	2317      	movs	r3, #23
	if (length == 0) {
     954:	2a00      	cmp	r2, #0
     956:	d101      	bne.n	95c <usart_write_buffer_job+0xc>
		return STATUS_ERR_DENIED;
	}

	/* Issue internal asynchronous write */
	return _usart_write_buffer(module, tx_data, length);
}
     958:	0018      	movs	r0, r3
     95a:	bd10      	pop	{r4, pc}
	if (!(module->transmitter_enabled)) {
     95c:	79c4      	ldrb	r4, [r0, #7]
		return STATUS_ERR_DENIED;
     95e:	3305      	adds	r3, #5
	if (!(module->transmitter_enabled)) {
     960:	2c00      	cmp	r4, #0
     962:	d0f9      	beq.n	958 <usart_write_buffer_job+0x8>
	return _usart_write_buffer(module, tx_data, length);
     964:	4b01      	ldr	r3, [pc, #4]	; (96c <usart_write_buffer_job+0x1c>)
     966:	4798      	blx	r3
     968:	0003      	movs	r3, r0
     96a:	e7f5      	b.n	958 <usart_write_buffer_job+0x8>
     96c:	000008fd 	.word	0x000008fd

00000970 <_usart_interrupt_handler>:
 * \param[in]  instance  ID of the SERCOM instance calling the interrupt
 *                       handler.
 */
void _usart_interrupt_handler(
		uint8_t instance)
{
     970:	b5f8      	push	{r3, r4, r5, r6, r7, lr}
	uint16_t callback_status;
	uint8_t error_code;


	/* Get device instance from the look-up table */
	struct usart_module *module
     972:	0080      	lsls	r0, r0, #2
     974:	4b62      	ldr	r3, [pc, #392]	; (b00 <_usart_interrupt_handler+0x190>)
     976:	58c5      	ldr	r5, [r0, r3]
		= (struct usart_module *)_sercom_instances[instance];

	/* Pointer to the hardware module instance */
	SercomUsart *const usart_hw
		= &(module->hw->USART);
     978:	682c      	ldr	r4, [r5, #0]
	return (usart_hw->SYNCBUSY.reg);
     97a:	69e3      	ldr	r3, [r4, #28]
	while (usart_is_syncing(module)) {
     97c:	2b00      	cmp	r3, #0
     97e:	d1fc      	bne.n	97a <_usart_interrupt_handler+0xa>

	/* Wait for the synchronization to complete */
	_usart_wait_for_sync(module);

	/* Read and mask interrupt flag register */
	interrupt_status = usart_hw->INTFLAG.reg;
     980:	7e23      	ldrb	r3, [r4, #24]
	interrupt_status &= usart_hw->INTENSET.reg;
     982:	7da6      	ldrb	r6, [r4, #22]
     984:	401e      	ands	r6, r3
	callback_status = module->callback_reg_mask &
     986:	2330      	movs	r3, #48	; 0x30
     988:	5ceb      	ldrb	r3, [r5, r3]
     98a:	2231      	movs	r2, #49	; 0x31
     98c:	5caf      	ldrb	r7, [r5, r2]
     98e:	401f      	ands	r7, r3
			module->callback_enable_mask;

	/* Check if a DATA READY interrupt has occurred,
	 * and if there is more to transfer */
	if (interrupt_status & SERCOM_USART_INTFLAG_DRE) {
     990:	07f3      	lsls	r3, r6, #31
     992:	d522      	bpl.n	9da <_usart_interrupt_handler+0x6a>
		if (module->remaining_tx_buffer_length) {
     994:	8deb      	ldrh	r3, [r5, #46]	; 0x2e
     996:	b29b      	uxth	r3, r3
     998:	2b00      	cmp	r3, #0
     99a:	d01c      	beq.n	9d6 <_usart_interrupt_handler+0x66>
			/* Write value will be at least 8-bits long */
			uint16_t data_to_send = *(module->tx_buffer_ptr);
     99c:	6aaa      	ldr	r2, [r5, #40]	; 0x28
     99e:	7813      	ldrb	r3, [r2, #0]
     9a0:	b2db      	uxtb	r3, r3
			/* Increment 8-bit pointer */
			(module->tx_buffer_ptr)++;
     9a2:	1c51      	adds	r1, r2, #1
     9a4:	62a9      	str	r1, [r5, #40]	; 0x28

			if (module->character_size == USART_CHARACTER_SIZE_9BIT) {
     9a6:	7969      	ldrb	r1, [r5, #5]
     9a8:	2901      	cmp	r1, #1
     9aa:	d00e      	beq.n	9ca <_usart_interrupt_handler+0x5a>
			uint16_t data_to_send = *(module->tx_buffer_ptr);
     9ac:	b29b      	uxth	r3, r3
				data_to_send |= (*(module->tx_buffer_ptr) << 8);
				/* Increment 8-bit pointer */
				(module->tx_buffer_ptr)++;
			}
			/* Write the data to send */
			usart_hw->DATA.reg = (data_to_send & SERCOM_USART_DATA_MASK);
     9ae:	05db      	lsls	r3, r3, #23
     9b0:	0ddb      	lsrs	r3, r3, #23
     9b2:	8523      	strh	r3, [r4, #40]	; 0x28

			if (--(module->remaining_tx_buffer_length) == 0) {
     9b4:	8deb      	ldrh	r3, [r5, #46]	; 0x2e
     9b6:	3b01      	subs	r3, #1
     9b8:	b29b      	uxth	r3, r3
     9ba:	85eb      	strh	r3, [r5, #46]	; 0x2e
     9bc:	2b00      	cmp	r3, #0
     9be:	d10c      	bne.n	9da <_usart_interrupt_handler+0x6a>
				/* Disable the Data Register Empty Interrupt */
				usart_hw->INTENCLR.reg = SERCOM_USART_INTFLAG_DRE;
     9c0:	3301      	adds	r3, #1
     9c2:	7523      	strb	r3, [r4, #20]
				/* Enable Transmission Complete interrupt */
				usart_hw->INTENSET.reg = SERCOM_USART_INTFLAG_TXC;
     9c4:	3301      	adds	r3, #1
     9c6:	75a3      	strb	r3, [r4, #22]
     9c8:	e007      	b.n	9da <_usart_interrupt_handler+0x6a>
				data_to_send |= (*(module->tx_buffer_ptr) << 8);
     9ca:	7851      	ldrb	r1, [r2, #1]
     9cc:	0209      	lsls	r1, r1, #8
     9ce:	430b      	orrs	r3, r1
				(module->tx_buffer_ptr)++;
     9d0:	3202      	adds	r2, #2
     9d2:	62aa      	str	r2, [r5, #40]	; 0x28
     9d4:	e7eb      	b.n	9ae <_usart_interrupt_handler+0x3e>

			}
		} else {
			usart_hw->INTENCLR.reg = SERCOM_USART_INTFLAG_DRE;
     9d6:	2301      	movs	r3, #1
     9d8:	7523      	strb	r3, [r4, #20]
		}
	}

	/* Check if the Transmission Complete interrupt has occurred and
	 * that the transmit buffer is empty */
	if (interrupt_status & SERCOM_USART_INTFLAG_TXC) {
     9da:	07b3      	lsls	r3, r6, #30
     9dc:	d506      	bpl.n	9ec <_usart_interrupt_handler+0x7c>

		/* Disable TX Complete Interrupt, and set STATUS_OK */
		usart_hw->INTENCLR.reg = SERCOM_USART_INTFLAG_TXC;
     9de:	2302      	movs	r3, #2
     9e0:	7523      	strb	r3, [r4, #20]
		module->tx_status = STATUS_OK;
     9e2:	2200      	movs	r2, #0
     9e4:	3331      	adds	r3, #49	; 0x31
     9e6:	54ea      	strb	r2, [r5, r3]

		/* Run callback if registered and enabled */
		if (callback_status & (1 << USART_CALLBACK_BUFFER_TRANSMITTED)) {
     9e8:	07fb      	lsls	r3, r7, #31
     9ea:	d41a      	bmi.n	a22 <_usart_interrupt_handler+0xb2>
		}
	}

	/* Check if the Receive Complete interrupt has occurred, and that
	 * there's more data to receive */
	if (interrupt_status & SERCOM_USART_INTFLAG_RXC) {
     9ec:	0773      	lsls	r3, r6, #29
     9ee:	d565      	bpl.n	abc <_usart_interrupt_handler+0x14c>

		if (module->remaining_rx_buffer_length) {
     9f0:	8dab      	ldrh	r3, [r5, #44]	; 0x2c
     9f2:	b29b      	uxth	r3, r3
     9f4:	2b00      	cmp	r3, #0
     9f6:	d05f      	beq.n	ab8 <_usart_interrupt_handler+0x148>
			/* Read out the status code and mask away all but the 4 LSBs*/
			error_code = (uint8_t)(usart_hw->STATUS.reg & SERCOM_USART_STATUS_MASK);
     9f8:	8b63      	ldrh	r3, [r4, #26]
     9fa:	b2db      	uxtb	r3, r3
#if !SAMD20
			/* CTS status should not be considered as an error */
			if(error_code & SERCOM_USART_STATUS_CTS) {
     9fc:	071a      	lsls	r2, r3, #28
     9fe:	d414      	bmi.n	a2a <_usart_interrupt_handler+0xba>
			error_code = (uint8_t)(usart_hw->STATUS.reg & SERCOM_USART_STATUS_MASK);
     a00:	223f      	movs	r2, #63	; 0x3f
     a02:	4013      	ands	r3, r2
			if(error_code & SERCOM_USART_STATUS_TXE) {
				error_code &= ~SERCOM_USART_STATUS_TXE;
			}
#endif
			/* Check if an error has occurred during the receiving */
			if (error_code) {
     a04:	2b00      	cmp	r3, #0
     a06:	d034      	beq.n	a72 <_usart_interrupt_handler+0x102>
				/* Check which error occurred */
				if (error_code & SERCOM_USART_STATUS_FERR) {
     a08:	079a      	lsls	r2, r3, #30
     a0a:	d511      	bpl.n	a30 <_usart_interrupt_handler+0xc0>
					/* Store the error code and clear flag by writing 1 to it */
					module->rx_status = STATUS_ERR_BAD_FORMAT;
     a0c:	221a      	movs	r2, #26
     a0e:	2332      	movs	r3, #50	; 0x32
     a10:	54ea      	strb	r2, [r5, r3]
					usart_hw->STATUS.reg = SERCOM_USART_STATUS_FERR;
     a12:	3b30      	subs	r3, #48	; 0x30
     a14:	8363      	strh	r3, [r4, #26]
					usart_hw->STATUS.reg = SERCOM_USART_STATUS_COLL;
				}
#endif

				/* Run callback if registered and enabled */
				if (callback_status
     a16:	077b      	lsls	r3, r7, #29
     a18:	d550      	bpl.n	abc <_usart_interrupt_handler+0x14c>
						& (1 << USART_CALLBACK_ERROR)) {
					(*(module->callback[USART_CALLBACK_ERROR]))(module);
     a1a:	0028      	movs	r0, r5
     a1c:	696b      	ldr	r3, [r5, #20]
     a1e:	4798      	blx	r3
     a20:	e04c      	b.n	abc <_usart_interrupt_handler+0x14c>
			(*(module->callback[USART_CALLBACK_BUFFER_TRANSMITTED]))(module);
     a22:	0028      	movs	r0, r5
     a24:	68eb      	ldr	r3, [r5, #12]
     a26:	4798      	blx	r3
     a28:	e7e0      	b.n	9ec <_usart_interrupt_handler+0x7c>
				error_code &= ~SERCOM_USART_STATUS_CTS;
     a2a:	2237      	movs	r2, #55	; 0x37
     a2c:	4013      	ands	r3, r2
     a2e:	e7e9      	b.n	a04 <_usart_interrupt_handler+0x94>
				} else if (error_code & SERCOM_USART_STATUS_BUFOVF) {
     a30:	075a      	lsls	r2, r3, #29
     a32:	d505      	bpl.n	a40 <_usart_interrupt_handler+0xd0>
					module->rx_status = STATUS_ERR_OVERFLOW;
     a34:	221e      	movs	r2, #30
     a36:	2332      	movs	r3, #50	; 0x32
     a38:	54ea      	strb	r2, [r5, r3]
					usart_hw->STATUS.reg = SERCOM_USART_STATUS_BUFOVF;
     a3a:	3b2e      	subs	r3, #46	; 0x2e
     a3c:	8363      	strh	r3, [r4, #26]
     a3e:	e7ea      	b.n	a16 <_usart_interrupt_handler+0xa6>
				} else if (error_code & SERCOM_USART_STATUS_PERR) {
     a40:	07da      	lsls	r2, r3, #31
     a42:	d505      	bpl.n	a50 <_usart_interrupt_handler+0xe0>
					module->rx_status = STATUS_ERR_BAD_DATA;
     a44:	2213      	movs	r2, #19
     a46:	2332      	movs	r3, #50	; 0x32
     a48:	54ea      	strb	r2, [r5, r3]
					usart_hw->STATUS.reg = SERCOM_USART_STATUS_PERR;
     a4a:	3b31      	subs	r3, #49	; 0x31
     a4c:	8363      	strh	r3, [r4, #26]
     a4e:	e7e2      	b.n	a16 <_usart_interrupt_handler+0xa6>
				else if (error_code & SERCOM_USART_STATUS_ISF) {
     a50:	06da      	lsls	r2, r3, #27
     a52:	d505      	bpl.n	a60 <_usart_interrupt_handler+0xf0>
					module->rx_status = STATUS_ERR_PROTOCOL;
     a54:	2242      	movs	r2, #66	; 0x42
     a56:	2332      	movs	r3, #50	; 0x32
     a58:	54ea      	strb	r2, [r5, r3]
					usart_hw->STATUS.reg = SERCOM_USART_STATUS_ISF;
     a5a:	3b22      	subs	r3, #34	; 0x22
     a5c:	8363      	strh	r3, [r4, #26]
     a5e:	e7da      	b.n	a16 <_usart_interrupt_handler+0xa6>
				else if (error_code & SERCOM_USART_STATUS_COLL) {
     a60:	2220      	movs	r2, #32
     a62:	421a      	tst	r2, r3
     a64:	d0d7      	beq.n	a16 <_usart_interrupt_handler+0xa6>
					module->rx_status = STATUS_ERR_PACKET_COLLISION;
     a66:	3221      	adds	r2, #33	; 0x21
     a68:	2332      	movs	r3, #50	; 0x32
     a6a:	54ea      	strb	r2, [r5, r3]
					usart_hw->STATUS.reg = SERCOM_USART_STATUS_COLL;
     a6c:	3b12      	subs	r3, #18
     a6e:	8363      	strh	r3, [r4, #26]
     a70:	e7d1      	b.n	a16 <_usart_interrupt_handler+0xa6>

			} else {

				/* Read current packet from DATA register,
				 * increment buffer pointer and decrement buffer length */
				uint16_t received_data = (usart_hw->DATA.reg & SERCOM_USART_DATA_MASK);
     a72:	8d23      	ldrh	r3, [r4, #40]	; 0x28
     a74:	05db      	lsls	r3, r3, #23
     a76:	0ddb      	lsrs	r3, r3, #23

				/* Read value will be at least 8-bits long */
				*(module->rx_buffer_ptr) = received_data;
     a78:	b2da      	uxtb	r2, r3
     a7a:	6a69      	ldr	r1, [r5, #36]	; 0x24
     a7c:	700a      	strb	r2, [r1, #0]
				/* Increment 8-bit pointer */
				module->rx_buffer_ptr += 1;
     a7e:	6a6a      	ldr	r2, [r5, #36]	; 0x24
     a80:	1c51      	adds	r1, r2, #1
     a82:	6269      	str	r1, [r5, #36]	; 0x24

				if (module->character_size == USART_CHARACTER_SIZE_9BIT) {
     a84:	7969      	ldrb	r1, [r5, #5]
     a86:	2901      	cmp	r1, #1
     a88:	d010      	beq.n	aac <_usart_interrupt_handler+0x13c>
					/* Increment 8-bit pointer */
					module->rx_buffer_ptr += 1;
				}

				/* Check if the last character have been received */
				if(--(module->remaining_rx_buffer_length) == 0) {
     a8a:	8dab      	ldrh	r3, [r5, #44]	; 0x2c
     a8c:	3b01      	subs	r3, #1
     a8e:	b29b      	uxth	r3, r3
     a90:	85ab      	strh	r3, [r5, #44]	; 0x2c
     a92:	2b00      	cmp	r3, #0
     a94:	d112      	bne.n	abc <_usart_interrupt_handler+0x14c>
					/* Disable RX Complete Interrupt,
					 * and set STATUS_OK */
					usart_hw->INTENCLR.reg = SERCOM_USART_INTFLAG_RXC;
     a96:	3304      	adds	r3, #4
     a98:	7523      	strb	r3, [r4, #20]
					module->rx_status = STATUS_OK;
     a9a:	2200      	movs	r2, #0
     a9c:	332e      	adds	r3, #46	; 0x2e
     a9e:	54ea      	strb	r2, [r5, r3]

					/* Run callback if registered and enabled */
					if (callback_status
     aa0:	07bb      	lsls	r3, r7, #30
     aa2:	d50b      	bpl.n	abc <_usart_interrupt_handler+0x14c>
							& (1 << USART_CALLBACK_BUFFER_RECEIVED)) {
						(*(module->callback[USART_CALLBACK_BUFFER_RECEIVED]))(module);
     aa4:	0028      	movs	r0, r5
     aa6:	692b      	ldr	r3, [r5, #16]
     aa8:	4798      	blx	r3
     aaa:	e007      	b.n	abc <_usart_interrupt_handler+0x14c>
					*(module->rx_buffer_ptr) = (received_data >> 8);
     aac:	0a1b      	lsrs	r3, r3, #8
     aae:	7053      	strb	r3, [r2, #1]
					module->rx_buffer_ptr += 1;
     ab0:	6a6b      	ldr	r3, [r5, #36]	; 0x24
     ab2:	3301      	adds	r3, #1
     ab4:	626b      	str	r3, [r5, #36]	; 0x24
     ab6:	e7e8      	b.n	a8a <_usart_interrupt_handler+0x11a>
					}
				}
			}
		} else {
			/* This should not happen. Disable Receive Complete interrupt. */
			usart_hw->INTENCLR.reg = SERCOM_USART_INTFLAG_RXC;
     ab8:	2304      	movs	r3, #4
     aba:	7523      	strb	r3, [r4, #20]
		}
	}

#ifdef FEATURE_USART_HARDWARE_FLOW_CONTROL
	if (interrupt_status & SERCOM_USART_INTFLAG_CTSIC) {
     abc:	06f3      	lsls	r3, r6, #27
     abe:	d504      	bpl.n	aca <_usart_interrupt_handler+0x15a>
		/* Disable interrupts */
		usart_hw->INTENCLR.reg = SERCOM_USART_INTENCLR_CTSIC;
     ac0:	2310      	movs	r3, #16
     ac2:	7523      	strb	r3, [r4, #20]
		/* Clear interrupt flag */
		usart_hw->INTFLAG.reg = SERCOM_USART_INTFLAG_CTSIC;
     ac4:	7623      	strb	r3, [r4, #24]

		/* Run callback if registered and enabled */
		if (callback_status & (1 << USART_CALLBACK_CTS_INPUT_CHANGE)) {
     ac6:	06fb      	lsls	r3, r7, #27
     ac8:	d40e      	bmi.n	ae8 <_usart_interrupt_handler+0x178>
		}
	}
#endif

#ifdef FEATURE_USART_LIN_SLAVE
	if (interrupt_status & SERCOM_USART_INTFLAG_RXBRK) {
     aca:	06b3      	lsls	r3, r6, #26
     acc:	d504      	bpl.n	ad8 <_usart_interrupt_handler+0x168>
		/* Disable interrupts */
		usart_hw->INTENCLR.reg = SERCOM_USART_INTENCLR_RXBRK;
     ace:	2320      	movs	r3, #32
     ad0:	7523      	strb	r3, [r4, #20]
		/* Clear interrupt flag */
		usart_hw->INTFLAG.reg = SERCOM_USART_INTFLAG_RXBRK;
     ad2:	7623      	strb	r3, [r4, #24]

		/* Run callback if registered and enabled */
		if (callback_status & (1 << USART_CALLBACK_BREAK_RECEIVED)) {
     ad4:	073b      	lsls	r3, r7, #28
     ad6:	d40b      	bmi.n	af0 <_usart_interrupt_handler+0x180>
		}
	}
#endif

#ifdef FEATURE_USART_START_FRAME_DECTION
	if (interrupt_status & SERCOM_USART_INTFLAG_RXS) {
     ad8:	0733      	lsls	r3, r6, #28
     ada:	d504      	bpl.n	ae6 <_usart_interrupt_handler+0x176>
		/* Disable interrupts */
		usart_hw->INTENCLR.reg = SERCOM_USART_INTENCLR_RXS;
     adc:	2308      	movs	r3, #8
     ade:	7523      	strb	r3, [r4, #20]
		/* Clear interrupt flag */
		usart_hw->INTFLAG.reg = SERCOM_USART_INTFLAG_RXS;
     ae0:	7623      	strb	r3, [r4, #24]

		/* Run callback if registered and enabled */
		if (callback_status & (1 << USART_CALLBACK_START_RECEIVED)) {
     ae2:	06bb      	lsls	r3, r7, #26
     ae4:	d408      	bmi.n	af8 <_usart_interrupt_handler+0x188>
			(*(module->callback[USART_CALLBACK_START_RECEIVED]))(module);
		}
	}
#endif
}
     ae6:	bdf8      	pop	{r3, r4, r5, r6, r7, pc}
			(*(module->callback[USART_CALLBACK_CTS_INPUT_CHANGE]))(module);
     ae8:	0028      	movs	r0, r5
     aea:	69eb      	ldr	r3, [r5, #28]
     aec:	4798      	blx	r3
     aee:	e7ec      	b.n	aca <_usart_interrupt_handler+0x15a>
			(*(module->callback[USART_CALLBACK_BREAK_RECEIVED]))(module);
     af0:	0028      	movs	r0, r5
     af2:	69ab      	ldr	r3, [r5, #24]
     af4:	4798      	blx	r3
     af6:	e7ef      	b.n	ad8 <_usart_interrupt_handler+0x168>
			(*(module->callback[USART_CALLBACK_START_RECEIVED]))(module);
     af8:	6a2b      	ldr	r3, [r5, #32]
     afa:	0028      	movs	r0, r5
     afc:	4798      	blx	r3
}
     afe:	e7f2      	b.n	ae6 <_usart_interrupt_handler+0x176>
     b00:	200000d8 	.word	0x200000d8

00000b04 <_sercom_default_handler>:
 */
static void _sercom_default_handler(
		const uint8_t instance)
{
	Assert(false);
}
     b04:	4770      	bx	lr
	...

00000b08 <_sercom_set_handler>:
 * \param[in]  interrupt_handler  Pointer to instance callback handler.
 */
void _sercom_set_handler(
		const uint8_t instance,
		const sercom_handler_t interrupt_handler)
{
     b08:	b5f0      	push	{r4, r5, r6, r7, lr}
	/* Initialize handlers with default handler and device instances with 0 */
	if (_handler_table_initialized == false) {
     b0a:	4b0a      	ldr	r3, [pc, #40]	; (b34 <_sercom_set_handler+0x2c>)
     b0c:	781b      	ldrb	r3, [r3, #0]
     b0e:	2b00      	cmp	r3, #0
     b10:	d10c      	bne.n	b2c <_sercom_set_handler+0x24>
		for (uint32_t i = 0; i < SERCOM_INST_NUM; i++) {
			_sercom_interrupt_handlers[i] = &_sercom_default_handler;
     b12:	4f09      	ldr	r7, [pc, #36]	; (b38 <_sercom_set_handler+0x30>)
     b14:	4e09      	ldr	r6, [pc, #36]	; (b3c <_sercom_set_handler+0x34>)
			_sercom_instances[i] = NULL;
     b16:	4d0a      	ldr	r5, [pc, #40]	; (b40 <_sercom_set_handler+0x38>)
     b18:	2400      	movs	r4, #0
			_sercom_interrupt_handlers[i] = &_sercom_default_handler;
     b1a:	51de      	str	r6, [r3, r7]
			_sercom_instances[i] = NULL;
     b1c:	195a      	adds	r2, r3, r5
     b1e:	6014      	str	r4, [r2, #0]
     b20:	3304      	adds	r3, #4
		for (uint32_t i = 0; i < SERCOM_INST_NUM; i++) {
     b22:	2b18      	cmp	r3, #24
     b24:	d1f9      	bne.n	b1a <_sercom_set_handler+0x12>
		}

		_handler_table_initialized = true;
     b26:	2201      	movs	r2, #1
     b28:	4b02      	ldr	r3, [pc, #8]	; (b34 <_sercom_set_handler+0x2c>)
     b2a:	701a      	strb	r2, [r3, #0]
	}

	/* Save interrupt handler */
	_sercom_interrupt_handlers[instance] = interrupt_handler;
     b2c:	0080      	lsls	r0, r0, #2
     b2e:	4b02      	ldr	r3, [pc, #8]	; (b38 <_sercom_set_handler+0x30>)
     b30:	50c1      	str	r1, [r0, r3]
}
     b32:	bdf0      	pop	{r4, r5, r6, r7, pc}
     b34:	20000086 	.word	0x20000086
     b38:	20000088 	.word	0x20000088
     b3c:	00000b05 	.word	0x00000b05
     b40:	200000d8 	.word	0x200000d8

00000b44 <_sercom_get_interrupt_vector>:
 * \retval SYSTEM_INTERRUPT_MODULE_SERCOM6
 * \retval SYSTEM_INTERRUPT_MODULE_SERCOM7
 */
enum system_interrupt_vector _sercom_get_interrupt_vector(
		Sercom *const sercom_instance)
{
     b44:	b500      	push	{lr}
     b46:	b083      	sub	sp, #12
	const uint8_t sercom_int_vectors[SERCOM_INST_NUM] =
     b48:	2309      	movs	r3, #9
     b4a:	466a      	mov	r2, sp
     b4c:	7013      	strb	r3, [r2, #0]
     b4e:	3301      	adds	r3, #1
     b50:	7053      	strb	r3, [r2, #1]
     b52:	3301      	adds	r3, #1
     b54:	7093      	strb	r3, [r2, #2]
     b56:	3301      	adds	r3, #1
     b58:	70d3      	strb	r3, [r2, #3]
     b5a:	3301      	adds	r3, #1
     b5c:	7113      	strb	r3, [r2, #4]
     b5e:	3301      	adds	r3, #1
     b60:	7153      	strb	r3, [r2, #5]
		{
			MREPEAT(SERCOM_INST_NUM, _SERCOM_INTERRUPT_VECT_NUM, ~)
		};

	/* Retrieve the index of the SERCOM being requested */
	uint8_t instance_index = _sercom_get_sercom_inst_index(sercom_instance);
     b62:	4b03      	ldr	r3, [pc, #12]	; (b70 <_sercom_get_interrupt_vector+0x2c>)
     b64:	4798      	blx	r3

	/* Get the vector number from the lookup table for the requested SERCOM */
	return (enum system_interrupt_vector)sercom_int_vectors[instance_index];
     b66:	466b      	mov	r3, sp
     b68:	5618      	ldrsb	r0, [r3, r0]
}
     b6a:	b003      	add	sp, #12
     b6c:	bd00      	pop	{pc}
     b6e:	46c0      	nop			; (mov r8, r8)
     b70:	00000451 	.word	0x00000451

00000b74 <SERCOM0_Handler>:

/** Auto-generate a set of interrupt handlers for each SERCOM in the device */
MREPEAT(SERCOM_INST_NUM, _SERCOM_INTERRUPT_HANDLER, ~)
     b74:	b510      	push	{r4, lr}
     b76:	4b02      	ldr	r3, [pc, #8]	; (b80 <SERCOM0_Handler+0xc>)
     b78:	681b      	ldr	r3, [r3, #0]
     b7a:	2000      	movs	r0, #0
     b7c:	4798      	blx	r3
     b7e:	bd10      	pop	{r4, pc}
     b80:	20000088 	.word	0x20000088

00000b84 <SERCOM1_Handler>:
     b84:	b510      	push	{r4, lr}
     b86:	4b02      	ldr	r3, [pc, #8]	; (b90 <SERCOM1_Handler+0xc>)
     b88:	685b      	ldr	r3, [r3, #4]
     b8a:	2001      	movs	r0, #1
     b8c:	4798      	blx	r3
     b8e:	bd10      	pop	{r4, pc}
     b90:	20000088 	.word	0x20000088

00000b94 <SERCOM2_Handler>:
     b94:	b510      	push	{r4, lr}
     b96:	4b02      	ldr	r3, [pc, #8]	; (ba0 <SERCOM2_Handler+0xc>)
     b98:	689b      	ldr	r3, [r3, #8]
     b9a:	2002      	movs	r0, #2
     b9c:	4798      	blx	r3
     b9e:	bd10      	pop	{r4, pc}
     ba0:	20000088 	.word	0x20000088

00000ba4 <SERCOM3_Handler>:
     ba4:	b510      	push	{r4, lr}
     ba6:	4b02      	ldr	r3, [pc, #8]	; (bb0 <SERCOM3_Handler+0xc>)
     ba8:	68db      	ldr	r3, [r3, #12]
     baa:	2003      	movs	r0, #3
     bac:	4798      	blx	r3
     bae:	bd10      	pop	{r4, pc}
     bb0:	20000088 	.word	0x20000088

00000bb4 <SERCOM4_Handler>:
     bb4:	b510      	push	{r4, lr}
     bb6:	4b02      	ldr	r3, [pc, #8]	; (bc0 <SERCOM4_Handler+0xc>)
     bb8:	691b      	ldr	r3, [r3, #16]
     bba:	2004      	movs	r0, #4
     bbc:	4798      	blx	r3
     bbe:	bd10      	pop	{r4, pc}
     bc0:	20000088 	.word	0x20000088

00000bc4 <SERCOM5_Handler>:
     bc4:	b510      	push	{r4, lr}
     bc6:	4b02      	ldr	r3, [pc, #8]	; (bd0 <SERCOM5_Handler+0xc>)
     bc8:	695b      	ldr	r3, [r3, #20]
     bca:	2005      	movs	r0, #5
     bcc:	4798      	blx	r3
     bce:	bd10      	pop	{r4, pc}
     bd0:	20000088 	.word	0x20000088

00000bd4 <cpu_irq_enter_critical>:
volatile bool g_interrupt_enabled = true;
#endif

void cpu_irq_enter_critical(void)
{
	if (cpu_irq_critical_section_counter == 0) {
     bd4:	4b0c      	ldr	r3, [pc, #48]	; (c08 <cpu_irq_enter_critical+0x34>)
     bd6:	681b      	ldr	r3, [r3, #0]
     bd8:	2b00      	cmp	r3, #0
     bda:	d106      	bne.n	bea <cpu_irq_enter_critical+0x16>
 */
__attribute__( ( always_inline ) ) __STATIC_INLINE uint32_t __get_PRIMASK(void)
{
  uint32_t result;

  __ASM volatile ("MRS %0, primask" : "=r" (result) );
     bdc:	f3ef 8310 	mrs	r3, PRIMASK
		if (cpu_irq_is_enabled()) {
     be0:	2b00      	cmp	r3, #0
     be2:	d007      	beq.n	bf4 <cpu_irq_enter_critical+0x20>
			cpu_irq_disable();
			cpu_irq_prev_interrupt_state = true;
		} else {
			/* Make sure the to save the prev state as false */
			cpu_irq_prev_interrupt_state = false;
     be4:	2200      	movs	r2, #0
     be6:	4b09      	ldr	r3, [pc, #36]	; (c0c <cpu_irq_enter_critical+0x38>)
     be8:	701a      	strb	r2, [r3, #0]
		}

	}

	cpu_irq_critical_section_counter++;
     bea:	4a07      	ldr	r2, [pc, #28]	; (c08 <cpu_irq_enter_critical+0x34>)
     bec:	6813      	ldr	r3, [r2, #0]
     bee:	3301      	adds	r3, #1
     bf0:	6013      	str	r3, [r2, #0]
}
     bf2:	4770      	bx	lr
  __ASM volatile ("cpsid i" : : : "memory");
     bf4:	b672      	cpsid	i
    This function ensures the apparent order of the explicit memory operations before
    and after the instruction, without ensuring their completion.
 */
__attribute__( ( always_inline ) ) __STATIC_INLINE void __DMB(void)
{
  __ASM volatile ("dmb");
     bf6:	f3bf 8f5f 	dmb	sy
			cpu_irq_disable();
     bfa:	2200      	movs	r2, #0
     bfc:	4b04      	ldr	r3, [pc, #16]	; (c10 <cpu_irq_enter_critical+0x3c>)
     bfe:	701a      	strb	r2, [r3, #0]
			cpu_irq_prev_interrupt_state = true;
     c00:	3201      	adds	r2, #1
     c02:	4b02      	ldr	r3, [pc, #8]	; (c0c <cpu_irq_enter_critical+0x38>)
     c04:	701a      	strb	r2, [r3, #0]
     c06:	e7f0      	b.n	bea <cpu_irq_enter_critical+0x16>
     c08:	200000a0 	.word	0x200000a0
     c0c:	200000a4 	.word	0x200000a4
     c10:	20000000 	.word	0x20000000

00000c14 <cpu_irq_leave_critical>:
void cpu_irq_leave_critical(void)
{
	/* Check if the user is trying to leave a critical section when not in a critical section */
	Assert(cpu_irq_critical_section_counter > 0);

	cpu_irq_critical_section_counter--;
     c14:	4b08      	ldr	r3, [pc, #32]	; (c38 <cpu_irq_leave_critical+0x24>)
     c16:	681a      	ldr	r2, [r3, #0]
     c18:	3a01      	subs	r2, #1
     c1a:	601a      	str	r2, [r3, #0]

	/* Only enable global interrupts when the counter reaches 0 and the state of the global interrupt flag
	   was enabled when entering critical state */
	if ((cpu_irq_critical_section_counter == 0) && (cpu_irq_prev_interrupt_state)) {
     c1c:	681b      	ldr	r3, [r3, #0]
     c1e:	2b00      	cmp	r3, #0
     c20:	d109      	bne.n	c36 <cpu_irq_leave_critical+0x22>
     c22:	4b06      	ldr	r3, [pc, #24]	; (c3c <cpu_irq_leave_critical+0x28>)
     c24:	781b      	ldrb	r3, [r3, #0]
     c26:	2b00      	cmp	r3, #0
     c28:	d005      	beq.n	c36 <cpu_irq_leave_critical+0x22>
		cpu_irq_enable();
     c2a:	2201      	movs	r2, #1
     c2c:	4b04      	ldr	r3, [pc, #16]	; (c40 <cpu_irq_leave_critical+0x2c>)
     c2e:	701a      	strb	r2, [r3, #0]
     c30:	f3bf 8f5f 	dmb	sy
  __ASM volatile ("cpsie i" : : : "memory");
     c34:	b662      	cpsie	i
	}
}
     c36:	4770      	bx	lr
     c38:	200000a0 	.word	0x200000a0
     c3c:	200000a4 	.word	0x200000a4
     c40:	20000000 	.word	0x20000000

00000c44 <system_board_init>:
void board_init(void);
#  pragma weak board_init=system_board_init
#endif

void system_board_init(void)
{
     c44:	b5f0      	push	{r4, r5, r6, r7, lr}
     c46:	b083      	sub	sp, #12
	/* Sanity check arguments */
	Assert(config);

	/* Default configuration values */
	config->direction  = PORT_PIN_DIR_INPUT;
	config->input_pull = PORT_PIN_PULL_UP;
     c48:	ac01      	add	r4, sp, #4
     c4a:	2501      	movs	r5, #1
     c4c:	7065      	strb	r5, [r4, #1]
	config->powersave  = false;
     c4e:	2700      	movs	r7, #0
     c50:	70a7      	strb	r7, [r4, #2]
	struct port_config pin_conf;
	port_get_config_defaults(&pin_conf);

	/* Configure LEDs as outputs, turn them off */
	pin_conf.direction  = PORT_PIN_DIR_OUTPUT;
     c52:	7025      	strb	r5, [r4, #0]
	port_pin_set_config(LED_0_PIN, &pin_conf);
     c54:	0021      	movs	r1, r4
     c56:	2017      	movs	r0, #23
     c58:	4e06      	ldr	r6, [pc, #24]	; (c74 <system_board_init+0x30>)
     c5a:	47b0      	blx	r6
	PortGroup *const port_base = port_get_group_from_gpio_pin(gpio_pin);
	uint32_t pin_mask  = (1UL << (gpio_pin % 32));

	/* Set the pin to high or low atomically based on the requested level */
	if (level) {
		port_base->OUTSET.reg = pin_mask;
     c5c:	2280      	movs	r2, #128	; 0x80
     c5e:	0412      	lsls	r2, r2, #16
     c60:	4b05      	ldr	r3, [pc, #20]	; (c78 <system_board_init+0x34>)
     c62:	619a      	str	r2, [r3, #24]
	port_pin_set_output_level(LED_0_PIN, LED_0_INACTIVE);

	/* Set buttons as inputs */
	pin_conf.direction  = PORT_PIN_DIR_INPUT;
     c64:	7027      	strb	r7, [r4, #0]
	pin_conf.input_pull = PORT_PIN_PULL_UP;
     c66:	7065      	strb	r5, [r4, #1]
	port_pin_set_config(BUTTON_0_PIN, &pin_conf);
     c68:	0021      	movs	r1, r4
     c6a:	2037      	movs	r0, #55	; 0x37
     c6c:	47b0      	blx	r6
}
     c6e:	b003      	add	sp, #12
     c70:	bdf0      	pop	{r4, r5, r6, r7, pc}
     c72:	46c0      	nop			; (mov r8, r8)
     c74:	00000c7d 	.word	0x00000c7d
     c78:	41004400 	.word	0x41004400

00000c7c <port_pin_set_config>:
 *  \param[in] config    Configuration settings for the pin
 */
void port_pin_set_config(
		const uint8_t gpio_pin,
		const struct port_config *const config)
{
     c7c:	b500      	push	{lr}
     c7e:	b083      	sub	sp, #12
	config->mux_position = SYSTEM_PINMUX_GPIO;
     c80:	ab01      	add	r3, sp, #4
     c82:	2280      	movs	r2, #128	; 0x80
     c84:	701a      	strb	r2, [r3, #0]

	struct system_pinmux_config pinmux_config;
	system_pinmux_get_config_defaults(&pinmux_config);

	pinmux_config.mux_position = SYSTEM_PINMUX_GPIO;
	pinmux_config.direction    = (enum system_pinmux_pin_dir)config->direction;
     c86:	780a      	ldrb	r2, [r1, #0]
     c88:	705a      	strb	r2, [r3, #1]
	pinmux_config.input_pull   = (enum system_pinmux_pin_pull)config->input_pull;
     c8a:	784a      	ldrb	r2, [r1, #1]
     c8c:	709a      	strb	r2, [r3, #2]
	pinmux_config.powersave    = config->powersave;
     c8e:	788a      	ldrb	r2, [r1, #2]
     c90:	70da      	strb	r2, [r3, #3]

	system_pinmux_pin_set_config(gpio_pin, &pinmux_config);
     c92:	0019      	movs	r1, r3
     c94:	4b01      	ldr	r3, [pc, #4]	; (c9c <port_pin_set_config+0x20>)
     c96:	4798      	blx	r3
}
     c98:	b003      	add	sp, #12
     c9a:	bd00      	pop	{pc}
     c9c:	000013dd 	.word	0x000013dd

00000ca0 <system_clock_source_get_hz>:
 *
 * \returns Frequency of the given clock source, in Hz.
 */
uint32_t system_clock_source_get_hz(
		const enum system_clock_source clock_source)
{
     ca0:	b510      	push	{r4, lr}
	switch (clock_source) {
     ca2:	2808      	cmp	r0, #8
     ca4:	d803      	bhi.n	cae <system_clock_source_get_hz+0xe>
     ca6:	0080      	lsls	r0, r0, #2
     ca8:	4b1b      	ldr	r3, [pc, #108]	; (d18 <system_clock_source_get_hz+0x78>)
     caa:	581b      	ldr	r3, [r3, r0]
     cac:	469f      	mov	pc, r3

		return _system_clock_inst.dpll.frequency;
#endif

	default:
		return 0;
     cae:	2000      	movs	r0, #0
     cb0:	e030      	b.n	d14 <system_clock_source_get_hz+0x74>
		return _system_clock_inst.xosc.frequency;
     cb2:	4b1a      	ldr	r3, [pc, #104]	; (d1c <system_clock_source_get_hz+0x7c>)
     cb4:	6918      	ldr	r0, [r3, #16]
     cb6:	e02d      	b.n	d14 <system_clock_source_get_hz+0x74>
		return 8000000UL >> SYSCTRL->OSC8M.bit.PRESC;
     cb8:	4b19      	ldr	r3, [pc, #100]	; (d20 <system_clock_source_get_hz+0x80>)
     cba:	6a1b      	ldr	r3, [r3, #32]
     cbc:	059b      	lsls	r3, r3, #22
     cbe:	0f9b      	lsrs	r3, r3, #30
     cc0:	4818      	ldr	r0, [pc, #96]	; (d24 <system_clock_source_get_hz+0x84>)
     cc2:	40d8      	lsrs	r0, r3
     cc4:	e026      	b.n	d14 <system_clock_source_get_hz+0x74>
		return _system_clock_inst.xosc32k.frequency;
     cc6:	4b15      	ldr	r3, [pc, #84]	; (d1c <system_clock_source_get_hz+0x7c>)
     cc8:	6958      	ldr	r0, [r3, #20]
     cca:	e023      	b.n	d14 <system_clock_source_get_hz+0x74>
		if (!(_system_clock_inst.dfll.control & SYSCTRL_DFLLCTRL_ENABLE))
     ccc:	4b13      	ldr	r3, [pc, #76]	; (d1c <system_clock_source_get_hz+0x7c>)
     cce:	681b      	ldr	r3, [r3, #0]
			return 0;
     cd0:	2000      	movs	r0, #0
		if (!(_system_clock_inst.dfll.control & SYSCTRL_DFLLCTRL_ENABLE))
     cd2:	079b      	lsls	r3, r3, #30
     cd4:	d51e      	bpl.n	d14 <system_clock_source_get_hz+0x74>
	while (!(SYSCTRL->PCLKSR.reg & SYSCTRL_PCLKSR_DFLLRDY)) {
     cd6:	4912      	ldr	r1, [pc, #72]	; (d20 <system_clock_source_get_hz+0x80>)
     cd8:	2210      	movs	r2, #16
     cda:	68cb      	ldr	r3, [r1, #12]
     cdc:	421a      	tst	r2, r3
     cde:	d0fc      	beq.n	cda <system_clock_source_get_hz+0x3a>
		if (_system_clock_inst.dfll.control & SYSCTRL_DFLLCTRL_MODE) {
     ce0:	4b0e      	ldr	r3, [pc, #56]	; (d1c <system_clock_source_get_hz+0x7c>)
     ce2:	681b      	ldr	r3, [r3, #0]
     ce4:	075b      	lsls	r3, r3, #29
     ce6:	d401      	bmi.n	cec <system_clock_source_get_hz+0x4c>
		return 48000000UL;
     ce8:	480f      	ldr	r0, [pc, #60]	; (d28 <system_clock_source_get_hz+0x88>)
     cea:	e013      	b.n	d14 <system_clock_source_get_hz+0x74>
			return system_gclk_chan_get_hz(SYSCTRL_GCLK_ID_DFLL48) *
     cec:	2000      	movs	r0, #0
     cee:	4b0f      	ldr	r3, [pc, #60]	; (d2c <system_clock_source_get_hz+0x8c>)
     cf0:	4798      	blx	r3
					(_system_clock_inst.dfll.mul & 0xffff);
     cf2:	4b0a      	ldr	r3, [pc, #40]	; (d1c <system_clock_source_get_hz+0x7c>)
     cf4:	689b      	ldr	r3, [r3, #8]
     cf6:	041b      	lsls	r3, r3, #16
     cf8:	0c1b      	lsrs	r3, r3, #16
			return system_gclk_chan_get_hz(SYSCTRL_GCLK_ID_DFLL48) *
     cfa:	4358      	muls	r0, r3
     cfc:	e00a      	b.n	d14 <system_clock_source_get_hz+0x74>
		if (!(SYSCTRL->DPLLSTATUS.reg & SYSCTRL_DPLLSTATUS_ENABLE)) {
     cfe:	2350      	movs	r3, #80	; 0x50
     d00:	4a07      	ldr	r2, [pc, #28]	; (d20 <system_clock_source_get_hz+0x80>)
     d02:	5cd3      	ldrb	r3, [r2, r3]
			return 0;
     d04:	2000      	movs	r0, #0
		if (!(SYSCTRL->DPLLSTATUS.reg & SYSCTRL_DPLLSTATUS_ENABLE)) {
     d06:	075b      	lsls	r3, r3, #29
     d08:	d504      	bpl.n	d14 <system_clock_source_get_hz+0x74>
		return _system_clock_inst.dpll.frequency;
     d0a:	4b04      	ldr	r3, [pc, #16]	; (d1c <system_clock_source_get_hz+0x7c>)
     d0c:	68d8      	ldr	r0, [r3, #12]
     d0e:	e001      	b.n	d14 <system_clock_source_get_hz+0x74>
		return 32768UL;
     d10:	2080      	movs	r0, #128	; 0x80
     d12:	0200      	lsls	r0, r0, #8
	}
}
     d14:	bd10      	pop	{r4, pc}
     d16:	46c0      	nop			; (mov r8, r8)
     d18:	00002908 	.word	0x00002908
     d1c:	200000a8 	.word	0x200000a8
     d20:	40000800 	.word	0x40000800
     d24:	007a1200 	.word	0x007a1200
     d28:	02dc6c00 	.word	0x02dc6c00
     d2c:	00001301 	.word	0x00001301

00000d30 <system_clock_source_osc8m_set_config>:
 *
 * \param[in] config  OSC8M configuration structure containing the new config
 */
void system_clock_source_osc8m_set_config(
		struct system_clock_source_osc8m_config *const config)
{
     d30:	b570      	push	{r4, r5, r6, lr}
	SYSCTRL_OSC8M_Type temp = SYSCTRL->OSC8M;
     d32:	490c      	ldr	r1, [pc, #48]	; (d64 <system_clock_source_osc8m_set_config+0x34>)
     d34:	6a0b      	ldr	r3, [r1, #32]

	/* Use temporary struct to reduce register access */
	temp.bit.PRESC    = config->prescaler;
     d36:	7804      	ldrb	r4, [r0, #0]
	temp.bit.ONDEMAND = config->on_demand;
     d38:	7885      	ldrb	r5, [r0, #2]
	temp.bit.RUNSTDBY = config->run_in_standby;

	SYSCTRL->OSC8M = temp;
     d3a:	7840      	ldrb	r0, [r0, #1]
     d3c:	2201      	movs	r2, #1
     d3e:	4010      	ands	r0, r2
     d40:	0180      	lsls	r0, r0, #6
     d42:	2640      	movs	r6, #64	; 0x40
     d44:	43b3      	bics	r3, r6
     d46:	4303      	orrs	r3, r0
     d48:	402a      	ands	r2, r5
     d4a:	01d2      	lsls	r2, r2, #7
     d4c:	2080      	movs	r0, #128	; 0x80
     d4e:	4383      	bics	r3, r0
     d50:	4313      	orrs	r3, r2
     d52:	2203      	movs	r2, #3
     d54:	4022      	ands	r2, r4
     d56:	0212      	lsls	r2, r2, #8
     d58:	4803      	ldr	r0, [pc, #12]	; (d68 <system_clock_source_osc8m_set_config+0x38>)
     d5a:	4003      	ands	r3, r0
     d5c:	4313      	orrs	r3, r2
     d5e:	620b      	str	r3, [r1, #32]
}
     d60:	bd70      	pop	{r4, r5, r6, pc}
     d62:	46c0      	nop			; (mov r8, r8)
     d64:	40000800 	.word	0x40000800
     d68:	fffffcff 	.word	0xfffffcff

00000d6c <system_clock_source_xosc32k_set_config>:
 *
 * \param[in] config  XOSC32K configuration structure containing the new config
 */
void system_clock_source_xosc32k_set_config(
		struct system_clock_source_xosc32k_config *const config)
{
     d6c:	b5f0      	push	{r4, r5, r6, r7, lr}
     d6e:	46de      	mov	lr, fp
     d70:	4657      	mov	r7, sl
     d72:	464e      	mov	r6, r9
     d74:	4645      	mov	r5, r8
     d76:	b5e0      	push	{r5, r6, r7, lr}
     d78:	0001      	movs	r1, r0
	SYSCTRL_XOSC32K_Type temp = SYSCTRL->XOSC32K;
     d7a:	4b26      	ldr	r3, [pc, #152]	; (e14 <system_clock_source_xosc32k_set_config+0xa8>)
     d7c:	469b      	mov	fp, r3
     d7e:	8a9b      	ldrh	r3, [r3, #20]

	temp.bit.STARTUP = config->startup_time;
     d80:	7845      	ldrb	r5, [r0, #1]

	if (config->external_clock == SYSTEM_CLOCK_EXTERNAL_CRYSTAL) {
     d82:	7800      	ldrb	r0, [r0, #0]
     d84:	4242      	negs	r2, r0
     d86:	4142      	adcs	r2, r0
     d88:	4691      	mov	r9, r2
		temp.bit.XTALEN = 1;
	} else {
		temp.bit.XTALEN = 0;
	}

	temp.bit.AAMPEN = config->auto_gain_control;
     d8a:	7888      	ldrb	r0, [r1, #2]
	temp.bit.EN1K = config->enable_1khz_output;
     d8c:	78ca      	ldrb	r2, [r1, #3]
     d8e:	4694      	mov	ip, r2
	temp.bit.EN32K = config->enable_32khz_output;
     d90:	790a      	ldrb	r2, [r1, #4]
     d92:	4690      	mov	r8, r2

	temp.bit.ONDEMAND = config->on_demand;
     d94:	7b4e      	ldrb	r6, [r1, #13]
	temp.bit.RUNSTDBY = config->run_in_standby;
     d96:	7b0f      	ldrb	r7, [r1, #12]
	temp.bit.WRTLOCK  = config->write_once;
     d98:	7b8c      	ldrb	r4, [r1, #14]

	/* Cache the new frequency in case the user needs to check the current
	 * operating frequency later */
	_system_clock_inst.xosc32k.frequency = config->frequency;
     d9a:	688a      	ldr	r2, [r1, #8]
     d9c:	491e      	ldr	r1, [pc, #120]	; (e18 <system_clock_source_xosc32k_set_config+0xac>)
     d9e:	614a      	str	r2, [r1, #20]

	SYSCTRL->XOSC32K = temp;
     da0:	2101      	movs	r1, #1
     da2:	464a      	mov	r2, r9
     da4:	0092      	lsls	r2, r2, #2
     da6:	4691      	mov	r9, r2
     da8:	2204      	movs	r2, #4
     daa:	4393      	bics	r3, r2
     dac:	464a      	mov	r2, r9
     dae:	4313      	orrs	r3, r2
     db0:	4642      	mov	r2, r8
     db2:	400a      	ands	r2, r1
     db4:	00d2      	lsls	r2, r2, #3
     db6:	4690      	mov	r8, r2
     db8:	2208      	movs	r2, #8
     dba:	4393      	bics	r3, r2
     dbc:	4642      	mov	r2, r8
     dbe:	4313      	orrs	r3, r2
     dc0:	4662      	mov	r2, ip
     dc2:	400a      	ands	r2, r1
     dc4:	0112      	lsls	r2, r2, #4
     dc6:	4694      	mov	ip, r2
     dc8:	2210      	movs	r2, #16
     dca:	4393      	bics	r3, r2
     dcc:	4662      	mov	r2, ip
     dce:	4313      	orrs	r3, r2
     dd0:	4008      	ands	r0, r1
     dd2:	0140      	lsls	r0, r0, #5
     dd4:	2220      	movs	r2, #32
     dd6:	4393      	bics	r3, r2
     dd8:	4303      	orrs	r3, r0
     dda:	400f      	ands	r7, r1
     ddc:	01bf      	lsls	r7, r7, #6
     dde:	2040      	movs	r0, #64	; 0x40
     de0:	4383      	bics	r3, r0
     de2:	433b      	orrs	r3, r7
     de4:	400e      	ands	r6, r1
     de6:	01f6      	lsls	r6, r6, #7
     de8:	3040      	adds	r0, #64	; 0x40
     dea:	4383      	bics	r3, r0
     dec:	4333      	orrs	r3, r6
     dee:	3879      	subs	r0, #121	; 0x79
     df0:	4005      	ands	r5, r0
     df2:	022d      	lsls	r5, r5, #8
     df4:	4809      	ldr	r0, [pc, #36]	; (e1c <system_clock_source_xosc32k_set_config+0xb0>)
     df6:	4003      	ands	r3, r0
     df8:	432b      	orrs	r3, r5
     dfa:	4021      	ands	r1, r4
     dfc:	0309      	lsls	r1, r1, #12
     dfe:	4808      	ldr	r0, [pc, #32]	; (e20 <system_clock_source_xosc32k_set_config+0xb4>)
     e00:	4003      	ands	r3, r0
     e02:	430b      	orrs	r3, r1
     e04:	465a      	mov	r2, fp
     e06:	8293      	strh	r3, [r2, #20]
}
     e08:	bc3c      	pop	{r2, r3, r4, r5}
     e0a:	4690      	mov	r8, r2
     e0c:	4699      	mov	r9, r3
     e0e:	46a2      	mov	sl, r4
     e10:	46ab      	mov	fp, r5
     e12:	bdf0      	pop	{r4, r5, r6, r7, pc}
     e14:	40000800 	.word	0x40000800
     e18:	200000a8 	.word	0x200000a8
     e1c:	fffff8ff 	.word	0xfffff8ff
     e20:	ffffefff 	.word	0xffffefff

00000e24 <system_clock_source_dfll_set_config>:
 *
 * \param[in] config  DFLL configuration structure containing the new config
 */
void system_clock_source_dfll_set_config(
		struct system_clock_source_dfll_config *const config)
{
     e24:	b510      	push	{r4, lr}
	_system_clock_inst.dfll.val =
			SYSCTRL_DFLLVAL_COARSE(config->coarse_value) |
     e26:	7a03      	ldrb	r3, [r0, #8]
     e28:	069b      	lsls	r3, r3, #26
     e2a:	0c1b      	lsrs	r3, r3, #16
			SYSCTRL_DFLLVAL_FINE(config->fine_value);
     e2c:	8942      	ldrh	r2, [r0, #10]
     e2e:	0592      	lsls	r2, r2, #22
     e30:	0d92      	lsrs	r2, r2, #22
			SYSCTRL_DFLLVAL_COARSE(config->coarse_value) |
     e32:	4313      	orrs	r3, r2
	_system_clock_inst.dfll.val =
     e34:	4918      	ldr	r1, [pc, #96]	; (e98 <system_clock_source_dfll_set_config+0x74>)
     e36:	604b      	str	r3, [r1, #4]

	_system_clock_inst.dfll.control =
			(uint32_t)config->wakeup_lock     |
     e38:	7983      	ldrb	r3, [r0, #6]
     e3a:	79c2      	ldrb	r2, [r0, #7]
     e3c:	4313      	orrs	r3, r2
			(uint32_t)config->stable_tracking |
			(uint32_t)config->quick_lock      |
     e3e:	8842      	ldrh	r2, [r0, #2]
     e40:	8884      	ldrh	r4, [r0, #4]
     e42:	4322      	orrs	r2, r4
     e44:	4313      	orrs	r3, r2
			(uint32_t)config->chill_cycle     |
			((uint32_t)config->on_demand << SYSCTRL_DFLLCTRL_ONDEMAND_Pos);
     e46:	7842      	ldrb	r2, [r0, #1]
     e48:	01d2      	lsls	r2, r2, #7
			(uint32_t)config->chill_cycle     |
     e4a:	4313      	orrs	r3, r2
	_system_clock_inst.dfll.control =
     e4c:	600b      	str	r3, [r1, #0]

	if (config->loop_mode == SYSTEM_CLOCK_DFLL_LOOP_MODE_CLOSED) {
     e4e:	7803      	ldrb	r3, [r0, #0]
     e50:	2b04      	cmp	r3, #4
     e52:	d011      	beq.n	e78 <system_clock_source_dfll_set_config+0x54>
				SYSCTRL_DFLLMUL_MUL(config->multiply_factor);

		/* Enable the closed loop mode */
		_system_clock_inst.dfll.control |= config->loop_mode;
	}
	if (config->loop_mode == SYSTEM_CLOCK_DFLL_LOOP_MODE_USB_RECOVERY) {
     e54:	2b20      	cmp	r3, #32
     e56:	d10e      	bne.n	e76 <system_clock_source_dfll_set_config+0x52>

		_system_clock_inst.dfll.mul =
				SYSCTRL_DFLLMUL_CSTEP(config->coarse_max_step) |
     e58:	7b03      	ldrb	r3, [r0, #12]
     e5a:	069b      	lsls	r3, r3, #26
				SYSCTRL_DFLLMUL_FSTEP(config->fine_max_step)   |
				SYSCTRL_DFLLMUL_MUL(config->multiply_factor);
     e5c:	8a02      	ldrh	r2, [r0, #16]
				SYSCTRL_DFLLMUL_FSTEP(config->fine_max_step)   |
     e5e:	4313      	orrs	r3, r2
     e60:	89c2      	ldrh	r2, [r0, #14]
     e62:	0412      	lsls	r2, r2, #16
     e64:	490d      	ldr	r1, [pc, #52]	; (e9c <system_clock_source_dfll_set_config+0x78>)
     e66:	400a      	ands	r2, r1
     e68:	4313      	orrs	r3, r2
		_system_clock_inst.dfll.mul =
     e6a:	4a0b      	ldr	r2, [pc, #44]	; (e98 <system_clock_source_dfll_set_config+0x74>)
     e6c:	6093      	str	r3, [r2, #8]

		/* Enable the USB recovery mode */
		_system_clock_inst.dfll.control |= config->loop_mode |
     e6e:	6811      	ldr	r1, [r2, #0]
     e70:	4b0b      	ldr	r3, [pc, #44]	; (ea0 <system_clock_source_dfll_set_config+0x7c>)
     e72:	430b      	orrs	r3, r1
     e74:	6013      	str	r3, [r2, #0]
				SYSCTRL_DFLLCTRL_MODE | SYSCTRL_DFLLCTRL_BPLCKC;
	}
}
     e76:	bd10      	pop	{r4, pc}
				SYSCTRL_DFLLMUL_CSTEP(config->coarse_max_step) |
     e78:	7b03      	ldrb	r3, [r0, #12]
     e7a:	069b      	lsls	r3, r3, #26
				SYSCTRL_DFLLMUL_MUL(config->multiply_factor);
     e7c:	8a02      	ldrh	r2, [r0, #16]
				SYSCTRL_DFLLMUL_FSTEP(config->fine_max_step)   |
     e7e:	4313      	orrs	r3, r2
     e80:	89c2      	ldrh	r2, [r0, #14]
     e82:	0412      	lsls	r2, r2, #16
     e84:	4905      	ldr	r1, [pc, #20]	; (e9c <system_clock_source_dfll_set_config+0x78>)
     e86:	400a      	ands	r2, r1
     e88:	4313      	orrs	r3, r2
		_system_clock_inst.dfll.mul =
     e8a:	4a03      	ldr	r2, [pc, #12]	; (e98 <system_clock_source_dfll_set_config+0x74>)
     e8c:	6093      	str	r3, [r2, #8]
		_system_clock_inst.dfll.control |= config->loop_mode;
     e8e:	6813      	ldr	r3, [r2, #0]
     e90:	2104      	movs	r1, #4
     e92:	430b      	orrs	r3, r1
     e94:	6013      	str	r3, [r2, #0]
     e96:	e7ee      	b.n	e76 <system_clock_source_dfll_set_config+0x52>
     e98:	200000a8 	.word	0x200000a8
     e9c:	03ff0000 	.word	0x03ff0000
     ea0:	00000424 	.word	0x00000424

00000ea4 <system_clock_source_enable>:
 *                                 device
 */
enum status_code system_clock_source_enable(
		const enum system_clock_source clock_source)
{
	switch (clock_source) {
     ea4:	2808      	cmp	r0, #8
     ea6:	d803      	bhi.n	eb0 <system_clock_source_enable+0xc>
     ea8:	0080      	lsls	r0, r0, #2
     eaa:	4b25      	ldr	r3, [pc, #148]	; (f40 <system_clock_source_enable+0x9c>)
     eac:	581b      	ldr	r3, [r3, r0]
     eae:	469f      	mov	pc, r3
		/* Always enabled */
		return STATUS_OK;

	default:
		Assert(false);
		return STATUS_ERR_INVALID_ARG;
     eb0:	2017      	movs	r0, #23
     eb2:	e044      	b.n	f3e <system_clock_source_enable+0x9a>
		SYSCTRL->OSC8M.reg |= SYSCTRL_OSC8M_ENABLE;
     eb4:	4a23      	ldr	r2, [pc, #140]	; (f44 <system_clock_source_enable+0xa0>)
     eb6:	6a13      	ldr	r3, [r2, #32]
     eb8:	2102      	movs	r1, #2
     eba:	430b      	orrs	r3, r1
     ebc:	6213      	str	r3, [r2, #32]
		return STATUS_OK;
     ebe:	2000      	movs	r0, #0
     ec0:	e03d      	b.n	f3e <system_clock_source_enable+0x9a>
		SYSCTRL->OSC32K.reg |= SYSCTRL_OSC32K_ENABLE;
     ec2:	4a20      	ldr	r2, [pc, #128]	; (f44 <system_clock_source_enable+0xa0>)
     ec4:	6993      	ldr	r3, [r2, #24]
     ec6:	2102      	movs	r1, #2
     ec8:	430b      	orrs	r3, r1
     eca:	6193      	str	r3, [r2, #24]
	}

	return STATUS_OK;
     ecc:	2000      	movs	r0, #0
		break;
     ece:	e036      	b.n	f3e <system_clock_source_enable+0x9a>
		SYSCTRL->XOSC.reg |= SYSCTRL_XOSC_ENABLE;
     ed0:	4a1c      	ldr	r2, [pc, #112]	; (f44 <system_clock_source_enable+0xa0>)
     ed2:	8a13      	ldrh	r3, [r2, #16]
     ed4:	2102      	movs	r1, #2
     ed6:	430b      	orrs	r3, r1
     ed8:	8213      	strh	r3, [r2, #16]
	return STATUS_OK;
     eda:	2000      	movs	r0, #0
		break;
     edc:	e02f      	b.n	f3e <system_clock_source_enable+0x9a>
		SYSCTRL->XOSC32K.reg |= SYSCTRL_XOSC32K_ENABLE;
     ede:	4a19      	ldr	r2, [pc, #100]	; (f44 <system_clock_source_enable+0xa0>)
     ee0:	8a93      	ldrh	r3, [r2, #20]
     ee2:	2102      	movs	r1, #2
     ee4:	430b      	orrs	r3, r1
     ee6:	8293      	strh	r3, [r2, #20]
	return STATUS_OK;
     ee8:	2000      	movs	r0, #0
		break;
     eea:	e028      	b.n	f3e <system_clock_source_enable+0x9a>
		_system_clock_inst.dfll.control |= SYSCTRL_DFLLCTRL_ENABLE;
     eec:	4916      	ldr	r1, [pc, #88]	; (f48 <system_clock_source_enable+0xa4>)
     eee:	680b      	ldr	r3, [r1, #0]
     ef0:	2202      	movs	r2, #2
     ef2:	4313      	orrs	r3, r2
     ef4:	600b      	str	r3, [r1, #0]
	SYSCTRL->DFLLCTRL.reg = SYSCTRL_DFLLCTRL_ENABLE;
     ef6:	4b13      	ldr	r3, [pc, #76]	; (f44 <system_clock_source_enable+0xa0>)
     ef8:	849a      	strh	r2, [r3, #36]	; 0x24
	while (!(SYSCTRL->PCLKSR.reg & SYSCTRL_PCLKSR_DFLLRDY)) {
     efa:	0019      	movs	r1, r3
     efc:	320e      	adds	r2, #14
     efe:	68cb      	ldr	r3, [r1, #12]
     f00:	421a      	tst	r2, r3
     f02:	d0fc      	beq.n	efe <system_clock_source_enable+0x5a>
	SYSCTRL->DFLLMUL.reg = _system_clock_inst.dfll.mul;
     f04:	4a10      	ldr	r2, [pc, #64]	; (f48 <system_clock_source_enable+0xa4>)
     f06:	6891      	ldr	r1, [r2, #8]
     f08:	4b0e      	ldr	r3, [pc, #56]	; (f44 <system_clock_source_enable+0xa0>)
     f0a:	62d9      	str	r1, [r3, #44]	; 0x2c
	SYSCTRL->DFLLVAL.reg = _system_clock_inst.dfll.val;
     f0c:	6852      	ldr	r2, [r2, #4]
     f0e:	629a      	str	r2, [r3, #40]	; 0x28
	SYSCTRL->DFLLCTRL.reg = 0;
     f10:	2200      	movs	r2, #0
     f12:	849a      	strh	r2, [r3, #36]	; 0x24
	while (!(SYSCTRL->PCLKSR.reg & SYSCTRL_PCLKSR_DFLLRDY)) {
     f14:	0019      	movs	r1, r3
     f16:	3210      	adds	r2, #16
     f18:	68cb      	ldr	r3, [r1, #12]
     f1a:	421a      	tst	r2, r3
     f1c:	d0fc      	beq.n	f18 <system_clock_source_enable+0x74>
	SYSCTRL->DFLLCTRL.reg = _system_clock_inst.dfll.control;
     f1e:	4b0a      	ldr	r3, [pc, #40]	; (f48 <system_clock_source_enable+0xa4>)
     f20:	681b      	ldr	r3, [r3, #0]
     f22:	b29b      	uxth	r3, r3
     f24:	4a07      	ldr	r2, [pc, #28]	; (f44 <system_clock_source_enable+0xa0>)
     f26:	8493      	strh	r3, [r2, #36]	; 0x24
	return STATUS_OK;
     f28:	2000      	movs	r0, #0
     f2a:	e008      	b.n	f3e <system_clock_source_enable+0x9a>
		SYSCTRL->DPLLCTRLA.reg |= SYSCTRL_DPLLCTRLA_ENABLE;
     f2c:	4905      	ldr	r1, [pc, #20]	; (f44 <system_clock_source_enable+0xa0>)
     f2e:	2244      	movs	r2, #68	; 0x44
     f30:	5c8b      	ldrb	r3, [r1, r2]
     f32:	2002      	movs	r0, #2
     f34:	4303      	orrs	r3, r0
     f36:	548b      	strb	r3, [r1, r2]
	return STATUS_OK;
     f38:	2000      	movs	r0, #0
		break;
     f3a:	e000      	b.n	f3e <system_clock_source_enable+0x9a>
		return STATUS_OK;
     f3c:	2000      	movs	r0, #0
}
     f3e:	4770      	bx	lr
     f40:	0000292c 	.word	0x0000292c
     f44:	40000800 	.word	0x40000800
     f48:	200000a8 	.word	0x200000a8

00000f4c <system_clock_init>:
 * \note OSC8M is always enabled and if user selects other clocks for GCLK generators,
 * the OSC8M default enable can be disabled after system_clock_init. Make sure the
 * clock switch successfully before disabling OSC8M.
 */
void system_clock_init(void)
{
     f4c:	b5f0      	push	{r4, r5, r6, r7, lr}
     f4e:	b08f      	sub	sp, #60	; 0x3c
	/* Various bits in the INTFLAG register can be set to one at startup.
	   This will ensure that these bits are cleared */
	SYSCTRL->INTFLAG.reg = SYSCTRL_INTFLAG_BOD33RDY | SYSCTRL_INTFLAG_BOD33DET |
     f50:	22c2      	movs	r2, #194	; 0xc2
     f52:	00d2      	lsls	r2, r2, #3
     f54:	4b47      	ldr	r3, [pc, #284]	; (1074 <system_clock_init+0x128>)
     f56:	609a      	str	r2, [r3, #8]
static inline void system_flash_set_waitstates(uint8_t wait_states)
{
	Assert(NVMCTRL_CTRLB_RWS((uint32_t)wait_states) ==
			((uint32_t)wait_states << NVMCTRL_CTRLB_RWS_Pos));

	NVMCTRL->CTRLB.bit.RWS = wait_states;
     f58:	4a47      	ldr	r2, [pc, #284]	; (1078 <system_clock_init+0x12c>)
     f5a:	6853      	ldr	r3, [r2, #4]
     f5c:	211e      	movs	r1, #30
     f5e:	438b      	bics	r3, r1
     f60:	391a      	subs	r1, #26
     f62:	430b      	orrs	r3, r1
     f64:	6053      	str	r3, [r2, #4]
	gclk_conf.source_generator = GCLK_GENERATOR_2;
     f66:	2202      	movs	r2, #2
     f68:	ab01      	add	r3, sp, #4
     f6a:	701a      	strb	r2, [r3, #0]
	for (gclk_id = 0; gclk_id < GCLK_NUM; gclk_id++) {
     f6c:	2400      	movs	r4, #0
		system_gclk_chan_set_config(gclk_id, &gclk_conf);
     f6e:	4d43      	ldr	r5, [pc, #268]	; (107c <system_clock_init+0x130>)
     f70:	b2e0      	uxtb	r0, r4
     f72:	a901      	add	r1, sp, #4
     f74:	47a8      	blx	r5
	for (gclk_id = 0; gclk_id < GCLK_NUM; gclk_id++) {
     f76:	3401      	adds	r4, #1
     f78:	2c25      	cmp	r4, #37	; 0x25
     f7a:	d1f9      	bne.n	f70 <system_clock_init+0x24>
	config->external_clock      = SYSTEM_CLOCK_EXTERNAL_CRYSTAL;
     f7c:	a80a      	add	r0, sp, #40	; 0x28
     f7e:	2300      	movs	r3, #0
     f80:	7003      	strb	r3, [r0, #0]
	config->auto_gain_control   = false;
     f82:	7083      	strb	r3, [r0, #2]
	config->frequency           = 32768UL;
     f84:	2280      	movs	r2, #128	; 0x80
     f86:	0212      	lsls	r2, r2, #8
     f88:	6082      	str	r2, [r0, #8]
	config->enable_1khz_output  = false;
     f8a:	70c3      	strb	r3, [r0, #3]
	config->enable_32khz_output = true;
     f8c:	2201      	movs	r2, #1
     f8e:	7102      	strb	r2, [r0, #4]
	config->run_in_standby      = false;
     f90:	7303      	strb	r3, [r0, #12]
	config->write_once          = false;
     f92:	7383      	strb	r3, [r0, #14]
	struct system_clock_source_xosc32k_config xosc32k_conf;
	system_clock_source_xosc32k_get_config_defaults(&xosc32k_conf);

	xosc32k_conf.frequency           = 32768UL;
	xosc32k_conf.external_clock      = CONF_CLOCK_XOSC32K_EXTERNAL_CRYSTAL;
	xosc32k_conf.startup_time        = CONF_CLOCK_XOSC32K_STARTUP_TIME;
     f94:	3202      	adds	r2, #2
     f96:	7042      	strb	r2, [r0, #1]
	xosc32k_conf.auto_gain_control   = CONF_CLOCK_XOSC32K_AUTO_AMPLITUDE_CONTROL;
	xosc32k_conf.enable_1khz_output  = CONF_CLOCK_XOSC32K_ENABLE_1KHZ_OUPUT;
	xosc32k_conf.enable_32khz_output = CONF_CLOCK_XOSC32K_ENABLE_32KHZ_OUTPUT;
	xosc32k_conf.on_demand           = false;
     f98:	7343      	strb	r3, [r0, #13]
	xosc32k_conf.run_in_standby      = CONF_CLOCK_XOSC32K_RUN_IN_STANDBY;

	system_clock_source_xosc32k_set_config(&xosc32k_conf);
     f9a:	4b39      	ldr	r3, [pc, #228]	; (1080 <system_clock_init+0x134>)
     f9c:	4798      	blx	r3
	system_clock_source_enable(SYSTEM_CLOCK_SOURCE_XOSC32K);
     f9e:	2005      	movs	r0, #5
     fa0:	4b38      	ldr	r3, [pc, #224]	; (1084 <system_clock_init+0x138>)
     fa2:	4798      	blx	r3
	return ((SYSCTRL->PCLKSR.reg & mask) == mask);
     fa4:	4933      	ldr	r1, [pc, #204]	; (1074 <system_clock_init+0x128>)
     fa6:	2202      	movs	r2, #2
     fa8:	68cb      	ldr	r3, [r1, #12]
	while(!system_clock_source_is_ready(SYSTEM_CLOCK_SOURCE_XOSC32K));
     faa:	421a      	tst	r2, r3
     fac:	d0fc      	beq.n	fa8 <system_clock_init+0x5c>
	if (CONF_CLOCK_XOSC32K_ON_DEMAND) {
		SYSCTRL->XOSC32K.bit.ONDEMAND = 1;
     fae:	4a31      	ldr	r2, [pc, #196]	; (1074 <system_clock_init+0x128>)
     fb0:	8a93      	ldrh	r3, [r2, #20]
     fb2:	2180      	movs	r1, #128	; 0x80
     fb4:	430b      	orrs	r3, r1
     fb6:	8293      	strh	r3, [r2, #20]
	config->quick_lock      = SYSTEM_CLOCK_DFLL_QUICK_LOCK_ENABLE;
     fb8:	ab05      	add	r3, sp, #20
     fba:	2100      	movs	r1, #0
     fbc:	2200      	movs	r2, #0
     fbe:	8059      	strh	r1, [r3, #2]
	config->chill_cycle     = SYSTEM_CLOCK_DFLL_CHILL_CYCLE_ENABLE;
     fc0:	8099      	strh	r1, [r3, #4]
	config->wakeup_lock     = SYSTEM_CLOCK_DFLL_WAKEUP_LOCK_KEEP;
     fc2:	719a      	strb	r2, [r3, #6]
	config->stable_tracking = SYSTEM_CLOCK_DFLL_STABLE_TRACKING_TRACK_AFTER_LOCK;
     fc4:	71da      	strb	r2, [r3, #7]
	config->fine_value      = 0xff / 4; /* Midpoint */
     fc6:	313f      	adds	r1, #63	; 0x3f
     fc8:	8159      	strh	r1, [r3, #10]
	/* DFLL Config (Open and Closed Loop) */
#if CONF_CLOCK_DFLL_ENABLE == true
	struct system_clock_source_dfll_config dfll_conf;
	system_clock_source_dfll_get_config_defaults(&dfll_conf);

	dfll_conf.loop_mode      = CONF_CLOCK_DFLL_LOOP_MODE;
     fca:	393b      	subs	r1, #59	; 0x3b
     fcc:	7019      	strb	r1, [r3, #0]
	dfll_conf.on_demand      = false;
     fce:	705a      	strb	r2, [r3, #1]
	/* Using DFLL48M COARSE CAL value from NVM Software Calibration Area Mapping 
	   in DFLL.COARSE helps to output a frequency close to 48 MHz.*/
#define NVM_DFLL_COARSE_POS    58 /* DFLL48M Coarse calibration value bit position.*/
#define NVM_DFLL_COARSE_SIZE   6  /* DFLL48M Coarse calibration value bit size.*/

	uint32_t coarse =( *((uint32_t *)(NVMCTRL_OTP4)
     fd0:	4b2d      	ldr	r3, [pc, #180]	; (1088 <system_clock_init+0x13c>)
     fd2:	681b      	ldr	r3, [r3, #0]
     fd4:	0e9b      	lsrs	r3, r3, #26
			+ (NVM_DFLL_COARSE_POS / 32))
		>> (NVM_DFLL_COARSE_POS % 32))
		& ((1 << NVM_DFLL_COARSE_SIZE) - 1);
	/* In some revision chip, the coarse calibration value is not correct. */
	if (coarse == 0x3f) {
     fd6:	2b3f      	cmp	r3, #63	; 0x3f
     fd8:	d04a      	beq.n	1070 <system_clock_init+0x124>
		coarse = 0x1f;
	}
	dfll_conf.coarse_value = coarse;
     fda:	a805      	add	r0, sp, #20
     fdc:	7203      	strb	r3, [r0, #8]
#  else
	dfll_conf.chill_cycle = SYSTEM_CLOCK_DFLL_CHILL_CYCLE_DISABLE;
#  endif

	if (CONF_CLOCK_DFLL_LOOP_MODE == SYSTEM_CLOCK_DFLL_LOOP_MODE_CLOSED) {
		dfll_conf.multiply_factor = CONF_CLOCK_DFLL_MULTIPLY_FACTOR;
     fde:	4b2b      	ldr	r3, [pc, #172]	; (108c <system_clock_init+0x140>)
     fe0:	8203      	strh	r3, [r0, #16]
	}

	dfll_conf.coarse_max_step = CONF_CLOCK_DFLL_MAX_COARSE_STEP_SIZE;
     fe2:	2307      	movs	r3, #7
     fe4:	7303      	strb	r3, [r0, #12]
	dfll_conf.fine_max_step   = CONF_CLOCK_DFLL_MAX_FINE_STEP_SIZE;
     fe6:	3338      	adds	r3, #56	; 0x38
     fe8:	81c3      	strh	r3, [r0, #14]
		dfll_conf.chill_cycle = SYSTEM_CLOCK_DFLL_CHILL_CYCLE_DISABLE;

		dfll_conf.multiply_factor = 48000;
	}

	system_clock_source_dfll_set_config(&dfll_conf);
     fea:	4b29      	ldr	r3, [pc, #164]	; (1090 <system_clock_init+0x144>)
     fec:	4798      	blx	r3
	config->run_in_standby  = false;
     fee:	a804      	add	r0, sp, #16
     ff0:	2500      	movs	r5, #0
     ff2:	7045      	strb	r5, [r0, #1]
	config->on_demand       = true;
     ff4:	2601      	movs	r6, #1
     ff6:	7086      	strb	r6, [r0, #2]

	/* OSC8M */
	struct system_clock_source_osc8m_config osc8m_conf;
	system_clock_source_osc8m_get_config_defaults(&osc8m_conf);

	osc8m_conf.prescaler       = CONF_CLOCK_OSC8M_PRESCALER;
     ff8:	7005      	strb	r5, [r0, #0]
	osc8m_conf.on_demand       = CONF_CLOCK_OSC8M_ON_DEMAND;
	osc8m_conf.run_in_standby  = CONF_CLOCK_OSC8M_RUN_IN_STANDBY;

	system_clock_source_osc8m_set_config(&osc8m_conf);
     ffa:	4b26      	ldr	r3, [pc, #152]	; (1094 <system_clock_init+0x148>)
     ffc:	4798      	blx	r3
	system_clock_source_enable(SYSTEM_CLOCK_SOURCE_OSC8M);
     ffe:	2006      	movs	r0, #6
    1000:	4f20      	ldr	r7, [pc, #128]	; (1084 <system_clock_init+0x138>)
    1002:	47b8      	blx	r7


	/* GCLK */
#if CONF_CLOCK_CONFIGURE_GCLK == true
	system_gclk_init();
    1004:	4b24      	ldr	r3, [pc, #144]	; (1098 <system_clock_init+0x14c>)
    1006:	4798      	blx	r3
{
	/* Sanity check arguments */
	Assert(config);

	/* Default configuration values */
	config->division_factor    = 1;
    1008:	ac01      	add	r4, sp, #4
    100a:	9602      	str	r6, [sp, #8]
	config->high_when_disabled = false;
    100c:	7065      	strb	r5, [r4, #1]
#elif (SAMC20) || (SAMC21)
	config->source_clock       = GCLK_SOURCE_OSC48M;
#else
	config->source_clock       = GCLK_SOURCE_OSC8M;
#endif
	config->run_in_standby     = false;
    100e:	7225      	strb	r5, [r4, #8]
	config->output_enable      = false;
    1010:	7265      	strb	r5, [r4, #9]

	/* Configure all GCLK generators except for the main generator, which
	 * is configured later after all other clock systems are set up */
	MREPEAT(GCLK_GEN_NUM, _CONF_CLOCK_GCLK_CONFIG_NONMAIN, ~);
    1012:	2305      	movs	r3, #5
    1014:	7023      	strb	r3, [r4, #0]
    1016:	0021      	movs	r1, r4
    1018:	2001      	movs	r0, #1
    101a:	4b20      	ldr	r3, [pc, #128]	; (109c <system_clock_init+0x150>)
    101c:	4798      	blx	r3
    101e:	2001      	movs	r0, #1
    1020:	4b1f      	ldr	r3, [pc, #124]	; (10a0 <system_clock_init+0x154>)
    1022:	4798      	blx	r3
	/* Enable DFLL reference clock if in closed loop mode */
	if (CONF_CLOCK_DFLL_LOOP_MODE == SYSTEM_CLOCK_DFLL_LOOP_MODE_CLOSED) {
		struct system_gclk_chan_config dfll_gclk_chan_conf;

		system_gclk_chan_get_config_defaults(&dfll_gclk_chan_conf);
		dfll_gclk_chan_conf.source_generator = CONF_CLOCK_DFLL_SOURCE_GCLK_GENERATOR;
    1024:	7026      	strb	r6, [r4, #0]
		system_gclk_chan_set_config(SYSCTRL_GCLK_ID_DFLL48, &dfll_gclk_chan_conf);
    1026:	0021      	movs	r1, r4
    1028:	2000      	movs	r0, #0
    102a:	4b14      	ldr	r3, [pc, #80]	; (107c <system_clock_init+0x130>)
    102c:	4798      	blx	r3
		system_gclk_chan_enable(SYSCTRL_GCLK_ID_DFLL48);
    102e:	2000      	movs	r0, #0
    1030:	4b1c      	ldr	r3, [pc, #112]	; (10a4 <system_clock_init+0x158>)
    1032:	4798      	blx	r3
#endif


	/* DFLL Enable (Open and Closed Loop) */
#if CONF_CLOCK_DFLL_ENABLE == true
	system_clock_source_enable(SYSTEM_CLOCK_SOURCE_DFLL);
    1034:	2007      	movs	r0, #7
    1036:	47b8      	blx	r7
	return ((SYSCTRL->PCLKSR.reg & mask) == mask);
    1038:	490e      	ldr	r1, [pc, #56]	; (1074 <system_clock_init+0x128>)
    103a:	22d0      	movs	r2, #208	; 0xd0
    103c:	68cb      	ldr	r3, [r1, #12]
    103e:	4013      	ands	r3, r2
	while(!system_clock_source_is_ready(SYSTEM_CLOCK_SOURCE_DFLL));
    1040:	2bd0      	cmp	r3, #208	; 0xd0
    1042:	d1fb      	bne.n	103c <system_clock_init+0xf0>
	PM->CPUSEL.reg = (uint32_t)divider;
    1044:	4a18      	ldr	r2, [pc, #96]	; (10a8 <system_clock_init+0x15c>)
    1046:	2300      	movs	r3, #0
    1048:	7213      	strb	r3, [r2, #8]
			PM->APBASEL.reg = (uint32_t)divider;
    104a:	7253      	strb	r3, [r2, #9]
			PM->APBBSEL.reg = (uint32_t)divider;
    104c:	7293      	strb	r3, [r2, #10]
			PM->APBCSEL.reg = (uint32_t)divider;
    104e:	72d3      	strb	r3, [r2, #11]
	config->division_factor    = 1;
    1050:	a901      	add	r1, sp, #4
    1052:	2201      	movs	r2, #1
    1054:	604a      	str	r2, [r1, #4]
	config->high_when_disabled = false;
    1056:	704b      	strb	r3, [r1, #1]
	config->run_in_standby     = false;
    1058:	720b      	strb	r3, [r1, #8]
	config->output_enable      = false;
    105a:	724b      	strb	r3, [r1, #9]
	system_apb_clock_set_divider(SYSTEM_CLOCK_APB_APBC, CONF_CLOCK_APBC_DIVIDER);

	/* GCLK 0 */
#if CONF_CLOCK_CONFIGURE_GCLK == true
	/* Configure the main GCLK last as it might depend on other generators */
	_CONF_CLOCK_GCLK_CONFIG(0, ~);
    105c:	3307      	adds	r3, #7
    105e:	700b      	strb	r3, [r1, #0]
    1060:	2000      	movs	r0, #0
    1062:	4b0e      	ldr	r3, [pc, #56]	; (109c <system_clock_init+0x150>)
    1064:	4798      	blx	r3
    1066:	2000      	movs	r0, #0
    1068:	4b0d      	ldr	r3, [pc, #52]	; (10a0 <system_clock_init+0x154>)
    106a:	4798      	blx	r3
#endif
}
    106c:	b00f      	add	sp, #60	; 0x3c
    106e:	bdf0      	pop	{r4, r5, r6, r7, pc}
		coarse = 0x1f;
    1070:	3b20      	subs	r3, #32
    1072:	e7b2      	b.n	fda <system_clock_init+0x8e>
    1074:	40000800 	.word	0x40000800
    1078:	41004000 	.word	0x41004000
    107c:	000012e5 	.word	0x000012e5
    1080:	00000d6d 	.word	0x00000d6d
    1084:	00000ea5 	.word	0x00000ea5
    1088:	00806024 	.word	0x00806024
    108c:	000005b9 	.word	0x000005b9
    1090:	00000e25 	.word	0x00000e25
    1094:	00000d31 	.word	0x00000d31
    1098:	000010ad 	.word	0x000010ad
    109c:	000010d1 	.word	0x000010d1
    10a0:	00001189 	.word	0x00001189
    10a4:	00001259 	.word	0x00001259
    10a8:	40000400 	.word	0x40000400

000010ac <system_gclk_init>:
			PM->APBAMASK.reg |= mask;
    10ac:	4a06      	ldr	r2, [pc, #24]	; (10c8 <system_gclk_init+0x1c>)
    10ae:	6993      	ldr	r3, [r2, #24]
    10b0:	2108      	movs	r1, #8
    10b2:	430b      	orrs	r3, r1
    10b4:	6193      	str	r3, [r2, #24]
{
	/* Turn on the digital interface clock */
	system_apb_clock_set_mask(SYSTEM_CLOCK_APB_APBA, PM_APBAMASK_GCLK);

	/* Software reset the module to ensure it is re-initialized correctly */
	GCLK->CTRL.reg = GCLK_CTRL_SWRST;
    10b6:	2201      	movs	r2, #1
    10b8:	4b04      	ldr	r3, [pc, #16]	; (10cc <system_gclk_init+0x20>)
    10ba:	701a      	strb	r2, [r3, #0]
	while (GCLK->CTRL.reg & GCLK_CTRL_SWRST) {
    10bc:	0019      	movs	r1, r3
    10be:	780b      	ldrb	r3, [r1, #0]
    10c0:	4213      	tst	r3, r2
    10c2:	d1fc      	bne.n	10be <system_gclk_init+0x12>
		/* Wait for reset to complete */
	}
}
    10c4:	4770      	bx	lr
    10c6:	46c0      	nop			; (mov r8, r8)
    10c8:	40000400 	.word	0x40000400
    10cc:	40000c00 	.word	0x40000c00

000010d0 <system_gclk_gen_set_config>:
 * \param[in] config     Configuration settings for the generator
 */
void system_gclk_gen_set_config(
		const uint8_t generator,
		struct system_gclk_gen_config *const config)
{
    10d0:	b570      	push	{r4, r5, r6, lr}
    10d2:	0006      	movs	r6, r0
	/* Sanity check arguments */
	Assert(config);

	/* Cache new register configurations to minimize sync requirements. */
	uint32_t new_genctrl_config = (generator << GCLK_GENCTRL_ID_Pos);
    10d4:	0004      	movs	r4, r0
	uint32_t new_gendiv_config  = (generator << GCLK_GENDIV_ID_Pos);

	/* Select the requested source clock for the generator */
	new_genctrl_config |= config->source_clock << GCLK_GENCTRL_SRC_Pos;
    10d6:	780d      	ldrb	r5, [r1, #0]
    10d8:	022d      	lsls	r5, r5, #8
    10da:	4305      	orrs	r5, r0

	/* Configure the clock to be either high or low when disabled */
	if (config->high_when_disabled) {
    10dc:	784b      	ldrb	r3, [r1, #1]
    10de:	2b00      	cmp	r3, #0
    10e0:	d002      	beq.n	10e8 <system_gclk_gen_set_config+0x18>
		new_genctrl_config |= GCLK_GENCTRL_OOV;
    10e2:	2380      	movs	r3, #128	; 0x80
    10e4:	02db      	lsls	r3, r3, #11
    10e6:	431d      	orrs	r5, r3
	}

	/* Configure if the clock output to I/O pin should be enabled. */
	if (config->output_enable) {
    10e8:	7a4b      	ldrb	r3, [r1, #9]
    10ea:	2b00      	cmp	r3, #0
    10ec:	d002      	beq.n	10f4 <system_gclk_gen_set_config+0x24>
		new_genctrl_config |= GCLK_GENCTRL_OE;
    10ee:	2380      	movs	r3, #128	; 0x80
    10f0:	031b      	lsls	r3, r3, #12
    10f2:	431d      	orrs	r5, r3
	}

	/* Set division factor */
	if (config->division_factor > 1) {
    10f4:	6848      	ldr	r0, [r1, #4]
    10f6:	2801      	cmp	r0, #1
    10f8:	d910      	bls.n	111c <system_gclk_gen_set_config+0x4c>
		/* Check if division is a power of two */
		if (((config->division_factor & (config->division_factor - 1)) == 0)) {
    10fa:	1e43      	subs	r3, r0, #1
    10fc:	4218      	tst	r0, r3
    10fe:	d134      	bne.n	116a <system_gclk_gen_set_config+0x9a>
			 * register */

			uint32_t div2_count = 0;

			uint32_t mask;
			for (mask = (1UL << 1); mask < config->division_factor;
    1100:	2802      	cmp	r0, #2
    1102:	d930      	bls.n	1166 <system_gclk_gen_set_config+0x96>
    1104:	2302      	movs	r3, #2
    1106:	2200      	movs	r2, #0
						mask <<= 1) {
				div2_count++;
    1108:	3201      	adds	r2, #1
						mask <<= 1) {
    110a:	005b      	lsls	r3, r3, #1
			for (mask = (1UL << 1); mask < config->division_factor;
    110c:	4298      	cmp	r0, r3
    110e:	d8fb      	bhi.n	1108 <system_gclk_gen_set_config+0x38>
			}

			/* Set binary divider power of 2 division factor */
			new_gendiv_config  |= div2_count << GCLK_GENDIV_DIV_Pos;
    1110:	0212      	lsls	r2, r2, #8
    1112:	4332      	orrs	r2, r6
    1114:	0014      	movs	r4, r2
			new_genctrl_config |= GCLK_GENCTRL_DIVSEL;
    1116:	2380      	movs	r3, #128	; 0x80
    1118:	035b      	lsls	r3, r3, #13
    111a:	431d      	orrs	r5, r3
		}

	}

	/* Enable or disable the clock in standby mode */
	if (config->run_in_standby) {
    111c:	7a0b      	ldrb	r3, [r1, #8]
    111e:	2b00      	cmp	r3, #0
    1120:	d002      	beq.n	1128 <system_gclk_gen_set_config+0x58>
		new_genctrl_config |= GCLK_GENCTRL_RUNSTDBY;
    1122:	2380      	movs	r3, #128	; 0x80
    1124:	039b      	lsls	r3, r3, #14
    1126:	431d      	orrs	r5, r3
	if (GCLK->STATUS.reg & GCLK_STATUS_SYNCBUSY){
    1128:	4a13      	ldr	r2, [pc, #76]	; (1178 <system_gclk_gen_set_config+0xa8>)
    112a:	7853      	ldrb	r3, [r2, #1]
	}

	while (system_gclk_is_syncing()) {
    112c:	b25b      	sxtb	r3, r3
    112e:	2b00      	cmp	r3, #0
    1130:	dbfb      	blt.n	112a <system_gclk_gen_set_config+0x5a>
	cpu_irq_enter_critical();
    1132:	4b12      	ldr	r3, [pc, #72]	; (117c <system_gclk_gen_set_config+0xac>)
    1134:	4798      	blx	r3
	};

	system_interrupt_enter_critical_section();

	/* Select the correct generator */
	*((uint8_t*)&GCLK->GENDIV.reg) = generator;
    1136:	4b12      	ldr	r3, [pc, #72]	; (1180 <system_gclk_gen_set_config+0xb0>)
    1138:	701e      	strb	r6, [r3, #0]
	if (GCLK->STATUS.reg & GCLK_STATUS_SYNCBUSY){
    113a:	4a0f      	ldr	r2, [pc, #60]	; (1178 <system_gclk_gen_set_config+0xa8>)
    113c:	7853      	ldrb	r3, [r2, #1]

	/* Write the new generator configuration */
	while (system_gclk_is_syncing()) {
    113e:	b25b      	sxtb	r3, r3
    1140:	2b00      	cmp	r3, #0
    1142:	dbfb      	blt.n	113c <system_gclk_gen_set_config+0x6c>
		/* Wait for synchronization */
	};
	GCLK->GENDIV.reg  = new_gendiv_config;
    1144:	4b0c      	ldr	r3, [pc, #48]	; (1178 <system_gclk_gen_set_config+0xa8>)
    1146:	609c      	str	r4, [r3, #8]
	if (GCLK->STATUS.reg & GCLK_STATUS_SYNCBUSY){
    1148:	001a      	movs	r2, r3
    114a:	7853      	ldrb	r3, [r2, #1]

	while (system_gclk_is_syncing()) {
    114c:	b25b      	sxtb	r3, r3
    114e:	2b00      	cmp	r3, #0
    1150:	dbfb      	blt.n	114a <system_gclk_gen_set_config+0x7a>
		/* Wait for synchronization */
	};
	GCLK->GENCTRL.reg = new_genctrl_config | (GCLK->GENCTRL.reg & GCLK_GENCTRL_GENEN);
    1152:	4a09      	ldr	r2, [pc, #36]	; (1178 <system_gclk_gen_set_config+0xa8>)
    1154:	6853      	ldr	r3, [r2, #4]
    1156:	2180      	movs	r1, #128	; 0x80
    1158:	0249      	lsls	r1, r1, #9
    115a:	400b      	ands	r3, r1
    115c:	431d      	orrs	r5, r3
    115e:	6055      	str	r5, [r2, #4]
	cpu_irq_leave_critical();
    1160:	4b08      	ldr	r3, [pc, #32]	; (1184 <system_gclk_gen_set_config+0xb4>)
    1162:	4798      	blx	r3

	system_interrupt_leave_critical_section();
}
    1164:	bd70      	pop	{r4, r5, r6, pc}
			for (mask = (1UL << 1); mask < config->division_factor;
    1166:	2200      	movs	r2, #0
    1168:	e7d2      	b.n	1110 <system_gclk_gen_set_config+0x40>
					(config->division_factor) << GCLK_GENDIV_DIV_Pos;
    116a:	0204      	lsls	r4, r0, #8
			new_gendiv_config  |=
    116c:	4334      	orrs	r4, r6
			new_genctrl_config |= GCLK_GENCTRL_IDC;
    116e:	2380      	movs	r3, #128	; 0x80
    1170:	029b      	lsls	r3, r3, #10
    1172:	431d      	orrs	r5, r3
    1174:	e7d2      	b.n	111c <system_gclk_gen_set_config+0x4c>
    1176:	46c0      	nop			; (mov r8, r8)
    1178:	40000c00 	.word	0x40000c00
    117c:	00000bd5 	.word	0x00000bd5
    1180:	40000c08 	.word	0x40000c08
    1184:	00000c15 	.word	0x00000c15

00001188 <system_gclk_gen_enable>:
 *
 * \param[in] generator  Generic Clock Generator index to enable
 */
void system_gclk_gen_enable(
		const uint8_t generator)
{
    1188:	b510      	push	{r4, lr}
    118a:	0004      	movs	r4, r0
	if (GCLK->STATUS.reg & GCLK_STATUS_SYNCBUSY){
    118c:	4a0b      	ldr	r2, [pc, #44]	; (11bc <system_gclk_gen_enable+0x34>)
    118e:	7853      	ldrb	r3, [r2, #1]
	while (system_gclk_is_syncing()) {
    1190:	b25b      	sxtb	r3, r3
    1192:	2b00      	cmp	r3, #0
    1194:	dbfb      	blt.n	118e <system_gclk_gen_enable+0x6>
	cpu_irq_enter_critical();
    1196:	4b0a      	ldr	r3, [pc, #40]	; (11c0 <system_gclk_gen_enable+0x38>)
    1198:	4798      	blx	r3
	};

	system_interrupt_enter_critical_section();

	/* Select the requested generator */
	*((uint8_t*)&GCLK->GENCTRL.reg) = generator;
    119a:	4b0a      	ldr	r3, [pc, #40]	; (11c4 <system_gclk_gen_enable+0x3c>)
    119c:	701c      	strb	r4, [r3, #0]
	if (GCLK->STATUS.reg & GCLK_STATUS_SYNCBUSY){
    119e:	4a07      	ldr	r2, [pc, #28]	; (11bc <system_gclk_gen_enable+0x34>)
    11a0:	7853      	ldrb	r3, [r2, #1]
	while (system_gclk_is_syncing()) {
    11a2:	b25b      	sxtb	r3, r3
    11a4:	2b00      	cmp	r3, #0
    11a6:	dbfb      	blt.n	11a0 <system_gclk_gen_enable+0x18>
		/* Wait for synchronization */
	};

	/* Enable generator */
	GCLK->GENCTRL.reg |= GCLK_GENCTRL_GENEN;
    11a8:	4a04      	ldr	r2, [pc, #16]	; (11bc <system_gclk_gen_enable+0x34>)
    11aa:	6851      	ldr	r1, [r2, #4]
    11ac:	2380      	movs	r3, #128	; 0x80
    11ae:	025b      	lsls	r3, r3, #9
    11b0:	430b      	orrs	r3, r1
    11b2:	6053      	str	r3, [r2, #4]
	cpu_irq_leave_critical();
    11b4:	4b04      	ldr	r3, [pc, #16]	; (11c8 <system_gclk_gen_enable+0x40>)
    11b6:	4798      	blx	r3

	system_interrupt_leave_critical_section();
}
    11b8:	bd10      	pop	{r4, pc}
    11ba:	46c0      	nop			; (mov r8, r8)
    11bc:	40000c00 	.word	0x40000c00
    11c0:	00000bd5 	.word	0x00000bd5
    11c4:	40000c04 	.word	0x40000c04
    11c8:	00000c15 	.word	0x00000c15

000011cc <system_gclk_gen_get_hz>:
 *
 * \return The frequency of the generic clock generator, in Hz.
 */
uint32_t system_gclk_gen_get_hz(
		const uint8_t generator)
{
    11cc:	b570      	push	{r4, r5, r6, lr}
    11ce:	0004      	movs	r4, r0
	if (GCLK->STATUS.reg & GCLK_STATUS_SYNCBUSY){
    11d0:	4a1a      	ldr	r2, [pc, #104]	; (123c <system_gclk_gen_get_hz+0x70>)
    11d2:	7853      	ldrb	r3, [r2, #1]
	while (system_gclk_is_syncing()) {
    11d4:	b25b      	sxtb	r3, r3
    11d6:	2b00      	cmp	r3, #0
    11d8:	dbfb      	blt.n	11d2 <system_gclk_gen_get_hz+0x6>
	cpu_irq_enter_critical();
    11da:	4b19      	ldr	r3, [pc, #100]	; (1240 <system_gclk_gen_get_hz+0x74>)
    11dc:	4798      	blx	r3
	};

	system_interrupt_enter_critical_section();

	/* Select the appropriate generator */
	*((uint8_t*)&GCLK->GENCTRL.reg) = generator;
    11de:	4b19      	ldr	r3, [pc, #100]	; (1244 <system_gclk_gen_get_hz+0x78>)
    11e0:	701c      	strb	r4, [r3, #0]
	if (GCLK->STATUS.reg & GCLK_STATUS_SYNCBUSY){
    11e2:	4a16      	ldr	r2, [pc, #88]	; (123c <system_gclk_gen_get_hz+0x70>)
    11e4:	7853      	ldrb	r3, [r2, #1]
	while (system_gclk_is_syncing()) {
    11e6:	b25b      	sxtb	r3, r3
    11e8:	2b00      	cmp	r3, #0
    11ea:	dbfb      	blt.n	11e4 <system_gclk_gen_get_hz+0x18>
		/* Wait for synchronization */
	};

	/* Get the frequency of the source connected to the GCLK generator */
	uint32_t gen_input_hz = system_clock_source_get_hz(
			(enum system_clock_source)GCLK->GENCTRL.bit.SRC);
    11ec:	4e13      	ldr	r6, [pc, #76]	; (123c <system_gclk_gen_get_hz+0x70>)
    11ee:	6870      	ldr	r0, [r6, #4]
    11f0:	04c0      	lsls	r0, r0, #19
    11f2:	0ec0      	lsrs	r0, r0, #27
	uint32_t gen_input_hz = system_clock_source_get_hz(
    11f4:	4b14      	ldr	r3, [pc, #80]	; (1248 <system_gclk_gen_get_hz+0x7c>)
    11f6:	4798      	blx	r3
    11f8:	0005      	movs	r5, r0

	*((uint8_t*)&GCLK->GENCTRL.reg) = generator;
    11fa:	4b12      	ldr	r3, [pc, #72]	; (1244 <system_gclk_gen_get_hz+0x78>)
    11fc:	701c      	strb	r4, [r3, #0]

	uint8_t divsel = GCLK->GENCTRL.bit.DIVSEL;
    11fe:	6876      	ldr	r6, [r6, #4]
    1200:	02f6      	lsls	r6, r6, #11
    1202:	0ff6      	lsrs	r6, r6, #31

	/* Select the appropriate generator division register */
	*((uint8_t*)&GCLK->GENDIV.reg) = generator;
    1204:	4b11      	ldr	r3, [pc, #68]	; (124c <system_gclk_gen_get_hz+0x80>)
    1206:	701c      	strb	r4, [r3, #0]
	if (GCLK->STATUS.reg & GCLK_STATUS_SYNCBUSY){
    1208:	4a0c      	ldr	r2, [pc, #48]	; (123c <system_gclk_gen_get_hz+0x70>)
    120a:	7853      	ldrb	r3, [r2, #1]
	while (system_gclk_is_syncing()) {
    120c:	b25b      	sxtb	r3, r3
    120e:	2b00      	cmp	r3, #0
    1210:	dbfb      	blt.n	120a <system_gclk_gen_get_hz+0x3e>
		/* Wait for synchronization */
	};

	uint32_t divider = GCLK->GENDIV.bit.DIV;
    1212:	4b0a      	ldr	r3, [pc, #40]	; (123c <system_gclk_gen_get_hz+0x70>)
    1214:	689c      	ldr	r4, [r3, #8]
    1216:	0224      	lsls	r4, r4, #8
    1218:	0c24      	lsrs	r4, r4, #16
	cpu_irq_leave_critical();
    121a:	4b0d      	ldr	r3, [pc, #52]	; (1250 <system_gclk_gen_get_hz+0x84>)
    121c:	4798      	blx	r3

	system_interrupt_leave_critical_section();

	/* Check if the generator is using fractional or binary division */
	if (!divsel && divider > 1) {
    121e:	2e00      	cmp	r6, #0
    1220:	d107      	bne.n	1232 <system_gclk_gen_get_hz+0x66>
    1222:	2c01      	cmp	r4, #1
    1224:	d907      	bls.n	1236 <system_gclk_gen_get_hz+0x6a>
		gen_input_hz /= divider;
    1226:	0021      	movs	r1, r4
    1228:	0028      	movs	r0, r5
    122a:	4b0a      	ldr	r3, [pc, #40]	; (1254 <system_gclk_gen_get_hz+0x88>)
    122c:	4798      	blx	r3
    122e:	0005      	movs	r5, r0
    1230:	e001      	b.n	1236 <system_gclk_gen_get_hz+0x6a>
	} else if (divsel) {
		gen_input_hz >>= (divider+1);
    1232:	3401      	adds	r4, #1
    1234:	40e5      	lsrs	r5, r4
	}

	return gen_input_hz;
}
    1236:	0028      	movs	r0, r5
    1238:	bd70      	pop	{r4, r5, r6, pc}
    123a:	46c0      	nop			; (mov r8, r8)
    123c:	40000c00 	.word	0x40000c00
    1240:	00000bd5 	.word	0x00000bd5
    1244:	40000c04 	.word	0x40000c04
    1248:	00000ca1 	.word	0x00000ca1
    124c:	40000c08 	.word	0x40000c08
    1250:	00000c15 	.word	0x00000c15
    1254:	00001749 	.word	0x00001749

00001258 <system_gclk_chan_enable>:
 *
 * \param[in] channel   Generic Clock channel to enable
 */
void system_gclk_chan_enable(
		const uint8_t channel)
{
    1258:	b510      	push	{r4, lr}
    125a:	0004      	movs	r4, r0
	cpu_irq_enter_critical();
    125c:	4b06      	ldr	r3, [pc, #24]	; (1278 <system_gclk_chan_enable+0x20>)
    125e:	4798      	blx	r3
	system_interrupt_enter_critical_section();

	/* Select the requested generator channel */
	*((uint8_t*)&GCLK->CLKCTRL.reg) = channel;
    1260:	4b06      	ldr	r3, [pc, #24]	; (127c <system_gclk_chan_enable+0x24>)
    1262:	701c      	strb	r4, [r3, #0]

	/* Enable the generic clock */
	GCLK->CLKCTRL.reg |= GCLK_CLKCTRL_CLKEN;
    1264:	4a06      	ldr	r2, [pc, #24]	; (1280 <system_gclk_chan_enable+0x28>)
    1266:	8853      	ldrh	r3, [r2, #2]
    1268:	2180      	movs	r1, #128	; 0x80
    126a:	01c9      	lsls	r1, r1, #7
    126c:	430b      	orrs	r3, r1
    126e:	8053      	strh	r3, [r2, #2]
	cpu_irq_leave_critical();
    1270:	4b04      	ldr	r3, [pc, #16]	; (1284 <system_gclk_chan_enable+0x2c>)
    1272:	4798      	blx	r3

	system_interrupt_leave_critical_section();
}
    1274:	bd10      	pop	{r4, pc}
    1276:	46c0      	nop			; (mov r8, r8)
    1278:	00000bd5 	.word	0x00000bd5
    127c:	40000c02 	.word	0x40000c02
    1280:	40000c00 	.word	0x40000c00
    1284:	00000c15 	.word	0x00000c15

00001288 <system_gclk_chan_disable>:
 *
 * \param[in] channel  Generic Clock channel to disable
 */
void system_gclk_chan_disable(
		const uint8_t channel)
{
    1288:	b510      	push	{r4, lr}
    128a:	0004      	movs	r4, r0
	cpu_irq_enter_critical();
    128c:	4b0f      	ldr	r3, [pc, #60]	; (12cc <system_gclk_chan_disable+0x44>)
    128e:	4798      	blx	r3
	system_interrupt_enter_critical_section();

	/* Select the requested generator channel */
	*((uint8_t*)&GCLK->CLKCTRL.reg) = channel;
    1290:	4b0f      	ldr	r3, [pc, #60]	; (12d0 <system_gclk_chan_disable+0x48>)
    1292:	701c      	strb	r4, [r3, #0]

	/* Sanity check WRTLOCK */
	Assert(!GCLK->CLKCTRL.bit.WRTLOCK);

	/* Switch to known-working source so that the channel can be disabled */
	uint32_t prev_gen_id = GCLK->CLKCTRL.bit.GEN;
    1294:	4a0f      	ldr	r2, [pc, #60]	; (12d4 <system_gclk_chan_disable+0x4c>)
    1296:	8853      	ldrh	r3, [r2, #2]
    1298:	051b      	lsls	r3, r3, #20
    129a:	0f18      	lsrs	r0, r3, #28
	GCLK->CLKCTRL.bit.GEN = 0;
    129c:	8853      	ldrh	r3, [r2, #2]
    129e:	490e      	ldr	r1, [pc, #56]	; (12d8 <system_gclk_chan_disable+0x50>)
    12a0:	400b      	ands	r3, r1
    12a2:	8053      	strh	r3, [r2, #2]

	/* Disable the generic clock */
	GCLK->CLKCTRL.reg &= ~GCLK_CLKCTRL_CLKEN;
    12a4:	8853      	ldrh	r3, [r2, #2]
    12a6:	490d      	ldr	r1, [pc, #52]	; (12dc <system_gclk_chan_disable+0x54>)
    12a8:	400b      	ands	r3, r1
    12aa:	8053      	strh	r3, [r2, #2]
	while (GCLK->CLKCTRL.reg & GCLK_CLKCTRL_CLKEN) {
    12ac:	0011      	movs	r1, r2
    12ae:	2280      	movs	r2, #128	; 0x80
    12b0:	01d2      	lsls	r2, r2, #7
    12b2:	884b      	ldrh	r3, [r1, #2]
    12b4:	4213      	tst	r3, r2
    12b6:	d1fc      	bne.n	12b2 <system_gclk_chan_disable+0x2a>
		/* Wait for clock to become disabled */
	}

	/* Restore previous configured clock generator */
	GCLK->CLKCTRL.bit.GEN = prev_gen_id;
    12b8:	4906      	ldr	r1, [pc, #24]	; (12d4 <system_gclk_chan_disable+0x4c>)
    12ba:	884a      	ldrh	r2, [r1, #2]
    12bc:	0203      	lsls	r3, r0, #8
    12be:	4806      	ldr	r0, [pc, #24]	; (12d8 <system_gclk_chan_disable+0x50>)
    12c0:	4002      	ands	r2, r0
    12c2:	4313      	orrs	r3, r2
    12c4:	804b      	strh	r3, [r1, #2]
	cpu_irq_leave_critical();
    12c6:	4b06      	ldr	r3, [pc, #24]	; (12e0 <system_gclk_chan_disable+0x58>)
    12c8:	4798      	blx	r3

	system_interrupt_leave_critical_section();
}
    12ca:	bd10      	pop	{r4, pc}
    12cc:	00000bd5 	.word	0x00000bd5
    12d0:	40000c02 	.word	0x40000c02
    12d4:	40000c00 	.word	0x40000c00
    12d8:	fffff0ff 	.word	0xfffff0ff
    12dc:	ffffbfff 	.word	0xffffbfff
    12e0:	00000c15 	.word	0x00000c15

000012e4 <system_gclk_chan_set_config>:
{
    12e4:	b510      	push	{r4, lr}
	new_clkctrl_config |= config->source_generator << GCLK_CLKCTRL_GEN_Pos;
    12e6:	780c      	ldrb	r4, [r1, #0]
    12e8:	0224      	lsls	r4, r4, #8
    12ea:	4304      	orrs	r4, r0
	system_gclk_chan_disable(channel);
    12ec:	4b02      	ldr	r3, [pc, #8]	; (12f8 <system_gclk_chan_set_config+0x14>)
    12ee:	4798      	blx	r3
	GCLK->CLKCTRL.reg = new_clkctrl_config;
    12f0:	b2a4      	uxth	r4, r4
    12f2:	4b02      	ldr	r3, [pc, #8]	; (12fc <system_gclk_chan_set_config+0x18>)
    12f4:	805c      	strh	r4, [r3, #2]
}
    12f6:	bd10      	pop	{r4, pc}
    12f8:	00001289 	.word	0x00001289
    12fc:	40000c00 	.word	0x40000c00

00001300 <system_gclk_chan_get_hz>:
 *
 * \return The frequency of the generic clock channel, in Hz.
 */
uint32_t system_gclk_chan_get_hz(
		const uint8_t channel)
{
    1300:	b510      	push	{r4, lr}
    1302:	0004      	movs	r4, r0
	cpu_irq_enter_critical();
    1304:	4b06      	ldr	r3, [pc, #24]	; (1320 <system_gclk_chan_get_hz+0x20>)
    1306:	4798      	blx	r3
	uint8_t gen_id;

	system_interrupt_enter_critical_section();

	/* Select the requested generic clock channel */
	*((uint8_t*)&GCLK->CLKCTRL.reg) = channel;
    1308:	4b06      	ldr	r3, [pc, #24]	; (1324 <system_gclk_chan_get_hz+0x24>)
    130a:	701c      	strb	r4, [r3, #0]
	gen_id = GCLK->CLKCTRL.bit.GEN;
    130c:	4b06      	ldr	r3, [pc, #24]	; (1328 <system_gclk_chan_get_hz+0x28>)
    130e:	885c      	ldrh	r4, [r3, #2]
    1310:	0524      	lsls	r4, r4, #20
    1312:	0f24      	lsrs	r4, r4, #28
	cpu_irq_leave_critical();
    1314:	4b05      	ldr	r3, [pc, #20]	; (132c <system_gclk_chan_get_hz+0x2c>)
    1316:	4798      	blx	r3

	system_interrupt_leave_critical_section();

	/* Return the clock speed of the associated GCLK generator */
	return system_gclk_gen_get_hz(gen_id);
    1318:	0020      	movs	r0, r4
    131a:	4b05      	ldr	r3, [pc, #20]	; (1330 <system_gclk_chan_get_hz+0x30>)
    131c:	4798      	blx	r3
}
    131e:	bd10      	pop	{r4, pc}
    1320:	00000bd5 	.word	0x00000bd5
    1324:	40000c02 	.word	0x40000c02
    1328:	40000c00 	.word	0x40000c00
    132c:	00000c15 	.word	0x00000c15
    1330:	000011cd 	.word	0x000011cd

00001334 <_system_pinmux_config>:
 */
static void _system_pinmux_config(
		PortGroup *const port,
		const uint32_t pin_mask,
		const struct system_pinmux_config *const config)
{
    1334:	b530      	push	{r4, r5, lr}

	/* Track the configuration bits into a temporary variable before writing */
	uint32_t pin_cfg = 0;

	/* Enabled powersave mode, don't create configuration */
	if (!config->powersave) {
    1336:	78d3      	ldrb	r3, [r2, #3]
    1338:	2b00      	cmp	r3, #0
    133a:	d135      	bne.n	13a8 <_system_pinmux_config+0x74>
		/* Enable the pin peripheral MUX flag if non-GPIO selected (pinmux will
		 * be written later) and store the new MUX mask */
		if (config->mux_position != SYSTEM_PINMUX_GPIO) {
    133c:	7813      	ldrb	r3, [r2, #0]
    133e:	2b80      	cmp	r3, #128	; 0x80
    1340:	d029      	beq.n	1396 <_system_pinmux_config+0x62>
			pin_cfg |= PORT_WRCONFIG_PMUXEN;
			pin_cfg |= (config->mux_position << PORT_WRCONFIG_PMUX_Pos);
    1342:	061b      	lsls	r3, r3, #24
    1344:	2480      	movs	r4, #128	; 0x80
    1346:	0264      	lsls	r4, r4, #9
    1348:	4323      	orrs	r3, r4
		}

		/* Check if the user has requested that the input buffer be enabled */
		if ((config->direction == SYSTEM_PINMUX_PIN_DIR_INPUT) ||
    134a:	7854      	ldrb	r4, [r2, #1]
    134c:	2502      	movs	r5, #2
    134e:	43ac      	bics	r4, r5
    1350:	d106      	bne.n	1360 <_system_pinmux_config+0x2c>
				(config->direction == SYSTEM_PINMUX_PIN_DIR_OUTPUT_WITH_READBACK)) {
			/* Enable input buffer flag */
			pin_cfg |= PORT_WRCONFIG_INEN;

			/* Enable pull-up/pull-down control flag if requested */
			if (config->input_pull != SYSTEM_PINMUX_PIN_PULL_NONE) {
    1352:	7894      	ldrb	r4, [r2, #2]
    1354:	2c00      	cmp	r4, #0
    1356:	d120      	bne.n	139a <_system_pinmux_config+0x66>
			pin_cfg |= PORT_WRCONFIG_INEN;
    1358:	2480      	movs	r4, #128	; 0x80
    135a:	02a4      	lsls	r4, r4, #10
    135c:	4323      	orrs	r3, r4
				pin_cfg |= PORT_WRCONFIG_PULLEN;
			}

			/* Clear the port DIR bits to disable the output buffer */
			port->DIRCLR.reg = pin_mask;
    135e:	6041      	str	r1, [r0, #4]
		}

		/* Check if the user has requested that the output buffer be enabled */
		if ((config->direction == SYSTEM_PINMUX_PIN_DIR_OUTPUT) ||
    1360:	7854      	ldrb	r4, [r2, #1]
    1362:	3c01      	subs	r4, #1
    1364:	2c01      	cmp	r4, #1
    1366:	d91c      	bls.n	13a2 <_system_pinmux_config+0x6e>
		port->DIRCLR.reg = pin_mask;
	}

	/* The Write Configuration register (WRCONFIG) requires the
	 * pins to to grouped into two 16-bit half-words - split them out here */
	uint32_t lower_pin_mask = (pin_mask & 0xFFFF);
    1368:	040d      	lsls	r5, r1, #16
    136a:	0c2d      	lsrs	r5, r5, #16

	/* Configure the lower 16-bits of the port to the desired configuration,
	 * including the pin peripheral multiplexer just in case it is enabled */
	port->WRCONFIG.reg
		= (lower_pin_mask << PORT_WRCONFIG_PINMASK_Pos) |
			pin_cfg | PORT_WRCONFIG_WRPMUX | PORT_WRCONFIG_WRPINCFG;
    136c:	24a0      	movs	r4, #160	; 0xa0
    136e:	05e4      	lsls	r4, r4, #23
    1370:	432c      	orrs	r4, r5
    1372:	431c      	orrs	r4, r3
		= (lower_pin_mask << PORT_WRCONFIG_PINMASK_Pos) |
    1374:	6284      	str	r4, [r0, #40]	; 0x28
	uint32_t upper_pin_mask = (pin_mask >> 16);
    1376:	0c0d      	lsrs	r5, r1, #16

	/* Configure the upper 16-bits of the port to the desired configuration,
	 * including the pin peripheral multiplexer just in case it is enabled */
	port->WRCONFIG.reg
		= (upper_pin_mask << PORT_WRCONFIG_PINMASK_Pos) |
			pin_cfg | PORT_WRCONFIG_WRPMUX | PORT_WRCONFIG_WRPINCFG |
    1378:	24d0      	movs	r4, #208	; 0xd0
    137a:	0624      	lsls	r4, r4, #24
    137c:	432c      	orrs	r4, r5
    137e:	431c      	orrs	r4, r3
		= (upper_pin_mask << PORT_WRCONFIG_PINMASK_Pos) |
    1380:	6284      	str	r4, [r0, #40]	; 0x28
			PORT_WRCONFIG_HWSEL;

	if(!config->powersave) {
    1382:	78d4      	ldrb	r4, [r2, #3]
    1384:	2c00      	cmp	r4, #0
    1386:	d122      	bne.n	13ce <_system_pinmux_config+0x9a>
		/* Set the pull-up state once the port pins are configured if one was
		 * requested and it does not violate the valid set of port
		 * configurations */
		if (pin_cfg & PORT_WRCONFIG_PULLEN) {
    1388:	035b      	lsls	r3, r3, #13
    138a:	d51c      	bpl.n	13c6 <_system_pinmux_config+0x92>
			/* Set the OUT register bits to enable the pull-up if requested,
			 * clear to enable pull-down */
			if (config->input_pull == SYSTEM_PINMUX_PIN_PULL_UP) {
    138c:	7893      	ldrb	r3, [r2, #2]
    138e:	2b01      	cmp	r3, #1
    1390:	d01e      	beq.n	13d0 <_system_pinmux_config+0x9c>
				port->OUTSET.reg = pin_mask;
			} else {
				port->OUTCLR.reg = pin_mask;
    1392:	6141      	str	r1, [r0, #20]
    1394:	e017      	b.n	13c6 <_system_pinmux_config+0x92>
	uint32_t pin_cfg = 0;
    1396:	2300      	movs	r3, #0
    1398:	e7d7      	b.n	134a <_system_pinmux_config+0x16>
				pin_cfg |= PORT_WRCONFIG_PULLEN;
    139a:	24c0      	movs	r4, #192	; 0xc0
    139c:	02e4      	lsls	r4, r4, #11
    139e:	4323      	orrs	r3, r4
    13a0:	e7dd      	b.n	135e <_system_pinmux_config+0x2a>
			pin_cfg &= ~PORT_WRCONFIG_PULLEN;
    13a2:	4c0d      	ldr	r4, [pc, #52]	; (13d8 <_system_pinmux_config+0xa4>)
    13a4:	4023      	ands	r3, r4
    13a6:	e7df      	b.n	1368 <_system_pinmux_config+0x34>
		port->DIRCLR.reg = pin_mask;
    13a8:	6041      	str	r1, [r0, #4]
	uint32_t lower_pin_mask = (pin_mask & 0xFFFF);
    13aa:	040c      	lsls	r4, r1, #16
    13ac:	0c24      	lsrs	r4, r4, #16
			pin_cfg | PORT_WRCONFIG_WRPMUX | PORT_WRCONFIG_WRPINCFG;
    13ae:	23a0      	movs	r3, #160	; 0xa0
    13b0:	05db      	lsls	r3, r3, #23
    13b2:	4323      	orrs	r3, r4
		= (lower_pin_mask << PORT_WRCONFIG_PINMASK_Pos) |
    13b4:	6283      	str	r3, [r0, #40]	; 0x28
	uint32_t upper_pin_mask = (pin_mask >> 16);
    13b6:	0c0c      	lsrs	r4, r1, #16
			pin_cfg | PORT_WRCONFIG_WRPMUX | PORT_WRCONFIG_WRPINCFG |
    13b8:	23d0      	movs	r3, #208	; 0xd0
    13ba:	061b      	lsls	r3, r3, #24
    13bc:	4323      	orrs	r3, r4
		= (upper_pin_mask << PORT_WRCONFIG_PINMASK_Pos) |
    13be:	6283      	str	r3, [r0, #40]	; 0x28
	if(!config->powersave) {
    13c0:	78d3      	ldrb	r3, [r2, #3]
    13c2:	2b00      	cmp	r3, #0
    13c4:	d103      	bne.n	13ce <_system_pinmux_config+0x9a>
			}
		}

		/* Check if the user has requested that the output buffer be enabled */
		if ((config->direction == SYSTEM_PINMUX_PIN_DIR_OUTPUT) ||
    13c6:	7853      	ldrb	r3, [r2, #1]
    13c8:	3b01      	subs	r3, #1
    13ca:	2b01      	cmp	r3, #1
    13cc:	d902      	bls.n	13d4 <_system_pinmux_config+0xa0>
				(config->direction == SYSTEM_PINMUX_PIN_DIR_OUTPUT_WITH_READBACK)) {
			/* Set the port DIR bits to enable the output buffer */
			port->DIRSET.reg = pin_mask;
		}
	}
}
    13ce:	bd30      	pop	{r4, r5, pc}
				port->OUTSET.reg = pin_mask;
    13d0:	6181      	str	r1, [r0, #24]
    13d2:	e7f8      	b.n	13c6 <_system_pinmux_config+0x92>
			port->DIRSET.reg = pin_mask;
    13d4:	6081      	str	r1, [r0, #8]
}
    13d6:	e7fa      	b.n	13ce <_system_pinmux_config+0x9a>
    13d8:	fffbffff 	.word	0xfffbffff

000013dc <system_pinmux_pin_set_config>:
 * \param[in] config    Configuration settings for the pin
 */
void system_pinmux_pin_set_config(
		const uint8_t gpio_pin,
		const struct system_pinmux_config *const config)
{
    13dc:	b510      	push	{r4, lr}
    13de:	000a      	movs	r2, r1
	uint8_t group_index = (gpio_pin / 32);

	/* Array of available ports */
	Port *const ports[PORT_INST_NUM] = PORT_INSTS;

	if (port_index < PORT_INST_NUM) {
    13e0:	09c1      	lsrs	r1, r0, #7
		return &(ports[port_index]->Group[group_index]);
	} else {
		Assert(false);
		return NULL;
    13e2:	2300      	movs	r3, #0
	if (port_index < PORT_INST_NUM) {
    13e4:	2900      	cmp	r1, #0
    13e6:	d104      	bne.n	13f2 <system_pinmux_pin_set_config+0x16>
		return &(ports[port_index]->Group[group_index]);
    13e8:	0943      	lsrs	r3, r0, #5
    13ea:	01db      	lsls	r3, r3, #7
    13ec:	4905      	ldr	r1, [pc, #20]	; (1404 <system_pinmux_pin_set_config+0x28>)
    13ee:	468c      	mov	ip, r1
    13f0:	4463      	add	r3, ip
	PortGroup *const port = system_pinmux_get_group_from_gpio_pin(gpio_pin);
	uint32_t pin_mask = (1UL << (gpio_pin % 32));
    13f2:	241f      	movs	r4, #31
    13f4:	4020      	ands	r0, r4
    13f6:	2101      	movs	r1, #1
    13f8:	4081      	lsls	r1, r0

	_system_pinmux_config(port, pin_mask, config);
    13fa:	0018      	movs	r0, r3
    13fc:	4b02      	ldr	r3, [pc, #8]	; (1408 <system_pinmux_pin_set_config+0x2c>)
    13fe:	4798      	blx	r3
}
    1400:	bd10      	pop	{r4, pc}
    1402:	46c0      	nop			; (mov r8, r8)
    1404:	41004400 	.word	0x41004400
    1408:	00001335 	.word	0x00001335

0000140c <_system_dummy_init>:
 */
void _system_dummy_init(void);
void _system_dummy_init(void)
{
	return;
}
    140c:	4770      	bx	lr
	...

00001410 <system_init>:
 *  - Board hardware initialization (via the Board module)
 *  - Event system driver initialization (via the EVSYS module)
 *  - External Interrupt driver initialization (via the EXTINT module)
 */
void system_init(void)
{
    1410:	b510      	push	{r4, lr}
	/* Configure GCLK and clock sources according to conf_clocks.h */
	system_clock_init();
    1412:	4b05      	ldr	r3, [pc, #20]	; (1428 <system_init+0x18>)
    1414:	4798      	blx	r3

	/* Initialize board hardware */
	system_board_init();
    1416:	4b05      	ldr	r3, [pc, #20]	; (142c <system_init+0x1c>)
    1418:	4798      	blx	r3

	/* Initialize EVSYS hardware */
	_system_events_init();
    141a:	4b05      	ldr	r3, [pc, #20]	; (1430 <system_init+0x20>)
    141c:	4798      	blx	r3

	/* Initialize External hardware */
	_system_extint_init();
    141e:	4b05      	ldr	r3, [pc, #20]	; (1434 <system_init+0x24>)
    1420:	4798      	blx	r3
	
	/* Initialize DIVAS hardware */
	_system_divas_init();
    1422:	4b05      	ldr	r3, [pc, #20]	; (1438 <system_init+0x28>)
    1424:	4798      	blx	r3
}
    1426:	bd10      	pop	{r4, pc}
    1428:	00000f4d 	.word	0x00000f4d
    142c:	00000c45 	.word	0x00000c45
    1430:	0000140d 	.word	0x0000140d
    1434:	0000140d 	.word	0x0000140d
    1438:	0000140d 	.word	0x0000140d

0000143c <Dummy_Handler>:

/**
 * \brief Default interrupt handler for unused IRQs.
 */
void Dummy_Handler(void)
{
    143c:	e7fe      	b.n	143c <Dummy_Handler>
	...

00001440 <Reset_Handler>:
{
    1440:	b5f8      	push	{r3, r4, r5, r6, r7, lr}
        if (pSrc != pDest) {
    1442:	4a2a      	ldr	r2, [pc, #168]	; (14ec <Reset_Handler+0xac>)
    1444:	4b2a      	ldr	r3, [pc, #168]	; (14f0 <Reset_Handler+0xb0>)
    1446:	429a      	cmp	r2, r3
    1448:	d011      	beq.n	146e <Reset_Handler+0x2e>
                for (; pDest < &_erelocate;) {
    144a:	001a      	movs	r2, r3
    144c:	4b29      	ldr	r3, [pc, #164]	; (14f4 <Reset_Handler+0xb4>)
    144e:	429a      	cmp	r2, r3
    1450:	d20d      	bcs.n	146e <Reset_Handler+0x2e>
    1452:	4a29      	ldr	r2, [pc, #164]	; (14f8 <Reset_Handler+0xb8>)
    1454:	3303      	adds	r3, #3
    1456:	1a9b      	subs	r3, r3, r2
    1458:	089b      	lsrs	r3, r3, #2
    145a:	3301      	adds	r3, #1
    145c:	009b      	lsls	r3, r3, #2
    145e:	2200      	movs	r2, #0
                        *pDest++ = *pSrc++;
    1460:	4823      	ldr	r0, [pc, #140]	; (14f0 <Reset_Handler+0xb0>)
    1462:	4922      	ldr	r1, [pc, #136]	; (14ec <Reset_Handler+0xac>)
    1464:	588c      	ldr	r4, [r1, r2]
    1466:	5084      	str	r4, [r0, r2]
    1468:	3204      	adds	r2, #4
                for (; pDest < &_erelocate;) {
    146a:	429a      	cmp	r2, r3
    146c:	d1fa      	bne.n	1464 <Reset_Handler+0x24>
        for (pDest = &_szero; pDest < &_ezero;) {
    146e:	4a23      	ldr	r2, [pc, #140]	; (14fc <Reset_Handler+0xbc>)
    1470:	4b23      	ldr	r3, [pc, #140]	; (1500 <Reset_Handler+0xc0>)
    1472:	429a      	cmp	r2, r3
    1474:	d20a      	bcs.n	148c <Reset_Handler+0x4c>
    1476:	43d3      	mvns	r3, r2
    1478:	4921      	ldr	r1, [pc, #132]	; (1500 <Reset_Handler+0xc0>)
    147a:	185b      	adds	r3, r3, r1
    147c:	2103      	movs	r1, #3
    147e:	438b      	bics	r3, r1
    1480:	3304      	adds	r3, #4
    1482:	189b      	adds	r3, r3, r2
                *pDest++ = 0;
    1484:	2100      	movs	r1, #0
    1486:	c202      	stmia	r2!, {r1}
        for (pDest = &_szero; pDest < &_ezero;) {
    1488:	4293      	cmp	r3, r2
    148a:	d1fc      	bne.n	1486 <Reset_Handler+0x46>
        SCB->VTOR = ((uint32_t) pSrc & SCB_VTOR_TBLOFF_Msk);
    148c:	4a1d      	ldr	r2, [pc, #116]	; (1504 <Reset_Handler+0xc4>)
    148e:	21ff      	movs	r1, #255	; 0xff
    1490:	4b1d      	ldr	r3, [pc, #116]	; (1508 <Reset_Handler+0xc8>)
    1492:	438b      	bics	r3, r1
    1494:	6093      	str	r3, [r2, #8]
        SBMATRIX->SFR[SBMATRIX_SLAVE_HMCRAMC0].reg = 2;
    1496:	39fd      	subs	r1, #253	; 0xfd
    1498:	2390      	movs	r3, #144	; 0x90
    149a:	005b      	lsls	r3, r3, #1
    149c:	4a1b      	ldr	r2, [pc, #108]	; (150c <Reset_Handler+0xcc>)
    149e:	50d1      	str	r1, [r2, r3]
        USB->DEVICE.QOSCTRL.bit.CQOS = 2;
    14a0:	4a1b      	ldr	r2, [pc, #108]	; (1510 <Reset_Handler+0xd0>)
    14a2:	78d3      	ldrb	r3, [r2, #3]
    14a4:	2503      	movs	r5, #3
    14a6:	43ab      	bics	r3, r5
    14a8:	2402      	movs	r4, #2
    14aa:	4323      	orrs	r3, r4
    14ac:	70d3      	strb	r3, [r2, #3]
        USB->DEVICE.QOSCTRL.bit.DQOS = 2;
    14ae:	78d3      	ldrb	r3, [r2, #3]
    14b0:	270c      	movs	r7, #12
    14b2:	43bb      	bics	r3, r7
    14b4:	2608      	movs	r6, #8
    14b6:	4333      	orrs	r3, r6
    14b8:	70d3      	strb	r3, [r2, #3]
        DMAC->QOSCTRL.bit.DQOS = 2;
    14ba:	4b16      	ldr	r3, [pc, #88]	; (1514 <Reset_Handler+0xd4>)
    14bc:	7b98      	ldrb	r0, [r3, #14]
    14be:	2230      	movs	r2, #48	; 0x30
    14c0:	4390      	bics	r0, r2
    14c2:	2220      	movs	r2, #32
    14c4:	4310      	orrs	r0, r2
    14c6:	7398      	strb	r0, [r3, #14]
        DMAC->QOSCTRL.bit.FQOS = 2;
    14c8:	7b99      	ldrb	r1, [r3, #14]
    14ca:	43b9      	bics	r1, r7
    14cc:	4331      	orrs	r1, r6
    14ce:	7399      	strb	r1, [r3, #14]
        DMAC->QOSCTRL.bit.WRBQOS = 2;
    14d0:	7b9a      	ldrb	r2, [r3, #14]
    14d2:	43aa      	bics	r2, r5
    14d4:	4322      	orrs	r2, r4
    14d6:	739a      	strb	r2, [r3, #14]
        NVMCTRL->CTRLB.bit.MANW = 1;
    14d8:	4a0f      	ldr	r2, [pc, #60]	; (1518 <Reset_Handler+0xd8>)
    14da:	6853      	ldr	r3, [r2, #4]
    14dc:	2180      	movs	r1, #128	; 0x80
    14de:	430b      	orrs	r3, r1
    14e0:	6053      	str	r3, [r2, #4]
        __libc_init_array();
    14e2:	4b0e      	ldr	r3, [pc, #56]	; (151c <Reset_Handler+0xdc>)
    14e4:	4798      	blx	r3
        main();
    14e6:	4b0e      	ldr	r3, [pc, #56]	; (1520 <Reset_Handler+0xe0>)
    14e8:	4798      	blx	r3
    14ea:	e7fe      	b.n	14ea <Reset_Handler+0xaa>
    14ec:	00002a18 	.word	0x00002a18
    14f0:	20000000 	.word	0x20000000
    14f4:	20000068 	.word	0x20000068
    14f8:	20000004 	.word	0x20000004
    14fc:	20000068 	.word	0x20000068
    1500:	20000130 	.word	0x20000130
    1504:	e000ed00 	.word	0xe000ed00
    1508:	00000000 	.word	0x00000000
    150c:	41007000 	.word	0x41007000
    1510:	41005000 	.word	0x41005000
    1514:	41004800 	.word	0x41004800
    1518:	41004000 	.word	0x41004000
    151c:	000018b5 	.word	0x000018b5
    1520:	000016f9 	.word	0x000016f9

00001524 <_sbrk>:
extern void _exit(int status);
extern void _kill(int pid, int sig);
extern int _getpid(void);

extern caddr_t _sbrk(int incr)
{
    1524:	0003      	movs	r3, r0
	static unsigned char *heap = NULL;
	unsigned char *prev_heap;

	if (heap == NULL) {
    1526:	4a06      	ldr	r2, [pc, #24]	; (1540 <_sbrk+0x1c>)
    1528:	6812      	ldr	r2, [r2, #0]
    152a:	2a00      	cmp	r2, #0
    152c:	d004      	beq.n	1538 <_sbrk+0x14>
		heap = (unsigned char *)&_end;
	}
	prev_heap = heap;
    152e:	4a04      	ldr	r2, [pc, #16]	; (1540 <_sbrk+0x1c>)
    1530:	6810      	ldr	r0, [r2, #0]

	heap += incr;
    1532:	18c3      	adds	r3, r0, r3
    1534:	6013      	str	r3, [r2, #0]

	return (caddr_t) prev_heap;
}
    1536:	4770      	bx	lr
		heap = (unsigned char *)&_end;
    1538:	4902      	ldr	r1, [pc, #8]	; (1544 <_sbrk+0x20>)
    153a:	4a01      	ldr	r2, [pc, #4]	; (1540 <_sbrk+0x1c>)
    153c:	6011      	str	r1, [r2, #0]
    153e:	e7f6      	b.n	152e <_sbrk+0xa>
    1540:	200000c0 	.word	0x200000c0
    1544:	20002130 	.word	0x20002130

00001548 <_close>:
}

extern int _close(int file)
{
	return -1;
}
    1548:	2001      	movs	r0, #1
    154a:	4240      	negs	r0, r0
    154c:	4770      	bx	lr

0000154e <_fstat>:

extern int _fstat(int file, struct stat *st)
{
	st->st_mode = S_IFCHR;
    154e:	2380      	movs	r3, #128	; 0x80
    1550:	019b      	lsls	r3, r3, #6
    1552:	604b      	str	r3, [r1, #4]

	return 0;
}
    1554:	2000      	movs	r0, #0
    1556:	4770      	bx	lr

00001558 <_isatty>:

extern int _isatty(int file)
{
	return 1;
}
    1558:	2001      	movs	r0, #1
    155a:	4770      	bx	lr

0000155c <_lseek>:

extern int _lseek(int file, int ptr, int dir)
{
	return 0;
}
    155c:	2000      	movs	r0, #0
    155e:	4770      	bx	lr

00001560 <usart_write_callback>:
{
	PortGroup *const port_base = port_get_group_from_gpio_pin(gpio_pin);
	uint32_t pin_mask  = (1UL << (gpio_pin % 32));

	/* Toggle pin output level */
	port_base->OUTTGL.reg = pin_mask;
    1560:	2280      	movs	r2, #128	; 0x80
    1562:	0412      	lsls	r2, r2, #16
    1564:	4b01      	ldr	r3, [pc, #4]	; (156c <usart_write_callback+0xc>)
    1566:	61da      	str	r2, [r3, #28]
}

void usart_write_callback(const struct usart_module *const usart_module)
{
	port_pin_toggle_output_level(LED_0_PIN);
}
    1568:	4770      	bx	lr
    156a:	46c0      	nop			; (mov r8, r8)
    156c:	41004400 	.word	0x41004400

00001570 <usart_serial_getchar>:
 * \param[out]    c       Destination for the read character.
 */
static inline void usart_serial_getchar(
		struct usart_module *const module,
		uint8_t *c)
{
    1570:	b570      	push	{r4, r5, r6, lr}
    1572:	b082      	sub	sp, #8
    1574:	0005      	movs	r5, r0
    1576:	000e      	movs	r6, r1
	uint16_t temp = 0;
    1578:	2200      	movs	r2, #0
    157a:	466b      	mov	r3, sp
    157c:	80da      	strh	r2, [r3, #6]

	while(STATUS_OK != usart_read_wait(module, &temp));
    157e:	4c06      	ldr	r4, [pc, #24]	; (1598 <usart_serial_getchar+0x28>)
    1580:	466b      	mov	r3, sp
    1582:	1d99      	adds	r1, r3, #6
    1584:	0028      	movs	r0, r5
    1586:	47a0      	blx	r4
    1588:	2800      	cmp	r0, #0
    158a:	d1f9      	bne.n	1580 <usart_serial_getchar+0x10>

	*c = temp;
    158c:	466b      	mov	r3, sp
    158e:	3306      	adds	r3, #6
    1590:	881b      	ldrh	r3, [r3, #0]
    1592:	7033      	strb	r3, [r6, #0]
}
    1594:	b002      	add	sp, #8
    1596:	bd70      	pop	{r4, r5, r6, pc}
    1598:	0000088d 	.word	0x0000088d

0000159c <usart_serial_putchar>:
{
    159c:	b570      	push	{r4, r5, r6, lr}
    159e:	0005      	movs	r5, r0
	while(STATUS_OK !=usart_write_wait(module, c));
    15a0:	b28c      	uxth	r4, r1
    15a2:	4e03      	ldr	r6, [pc, #12]	; (15b0 <usart_serial_putchar+0x14>)
    15a4:	0021      	movs	r1, r4
    15a6:	0028      	movs	r0, r5
    15a8:	47b0      	blx	r6
    15aa:	2800      	cmp	r0, #0
    15ac:	d1fa      	bne.n	15a4 <usart_serial_putchar+0x8>
}
    15ae:	bd70      	pop	{r4, r5, r6, pc}
    15b0:	00000861 	.word	0x00000861

000015b4 <usart_read_callback>:
{
    15b4:	b510      	push	{r4, lr}
	usart_write_buffer_job(&usart_instance,
    15b6:	2205      	movs	r2, #5
    15b8:	4902      	ldr	r1, [pc, #8]	; (15c4 <usart_read_callback+0x10>)
    15ba:	4803      	ldr	r0, [pc, #12]	; (15c8 <usart_read_callback+0x14>)
    15bc:	4b03      	ldr	r3, [pc, #12]	; (15cc <usart_read_callback+0x18>)
    15be:	4798      	blx	r3
}
    15c0:	bd10      	pop	{r4, pc}
    15c2:	46c0      	nop			; (mov r8, r8)
    15c4:	20000124 	.word	0x20000124
    15c8:	200000f0 	.word	0x200000f0
    15cc:	00000951 	.word	0x00000951

000015d0 <configure_usart>:
{
    15d0:	b5f0      	push	{r4, r5, r6, r7, lr}
    15d2:	b091      	sub	sp, #68	; 0x44
{
	/* Sanity check arguments */
	Assert(config);

	/* Set default config in the config struct */
	config->data_order       = USART_DATAORDER_LSB;
    15d4:	2380      	movs	r3, #128	; 0x80
    15d6:	05db      	lsls	r3, r3, #23
    15d8:	9300      	str	r3, [sp, #0]
	config->transfer_mode    = USART_TRANSFER_ASYNCHRONOUSLY;
    15da:	2300      	movs	r3, #0
    15dc:	9301      	str	r3, [sp, #4]
	config->parity           = USART_PARITY_NONE;
    15de:	22ff      	movs	r2, #255	; 0xff
    15e0:	4669      	mov	r1, sp
    15e2:	810a      	strh	r2, [r1, #8]
	config->stopbits         = USART_STOPBITS_1;
    15e4:	2200      	movs	r2, #0
    15e6:	728b      	strb	r3, [r1, #10]
	config->character_size   = USART_CHARACTER_SIZE_8BIT;
    15e8:	72cb      	strb	r3, [r1, #11]
	config->baudrate         = 9600;
	config->receiver_enable  = true;
    15ea:	2401      	movs	r4, #1
    15ec:	2124      	movs	r1, #36	; 0x24
    15ee:	4668      	mov	r0, sp
    15f0:	5444      	strb	r4, [r0, r1]
	config->transmitter_enable = true;
    15f2:	3101      	adds	r1, #1
    15f4:	5444      	strb	r4, [r0, r1]
	config->clock_polarity_inverted = false;
    15f6:	3101      	adds	r1, #1
    15f8:	5443      	strb	r3, [r0, r1]
	config->use_external_clock = false;
    15fa:	3101      	adds	r1, #1
    15fc:	5443      	strb	r3, [r0, r1]
	config->ext_clock_freq   = 0;
    15fe:	930a      	str	r3, [sp, #40]	; 0x28
	config->mux_setting      = USART_RX_1_TX_2_XCK_3;
	config->run_in_standby   = false;
    1600:	3105      	adds	r1, #5
    1602:	5443      	strb	r3, [r0, r1]
	config->generator_source = GCLK_GENERATOR_0;
    1604:	3101      	adds	r1, #1
    1606:	5443      	strb	r3, [r0, r1]
	config->pinmux_pad0      = PINMUX_DEFAULT;
	config->pinmux_pad1      = PINMUX_DEFAULT;
	config->pinmux_pad2      = PINMUX_DEFAULT;
	config->pinmux_pad3      = PINMUX_DEFAULT;
#ifdef FEATURE_USART_OVER_SAMPLE
	config->sample_adjustment     = USART_SAMPLE_ADJUSTMENT_7_8_9;
    1608:	9305      	str	r3, [sp, #20]
	config->sample_rate           = USART_SAMPLE_RATE_16X_ARITHMETIC;
    160a:	8203      	strh	r3, [r0, #16]
#endif
#ifdef FEATURE_USART_LIN_SLAVE
	config->lin_slave_enable      = false;
    160c:	76c3      	strb	r3, [r0, #27]
	config->lin_header_delay = LIN_MASTER_HEADER_DELAY_0;
	config->lin_break_length = LIN_MASTER_BREAK_LENGTH_13_BIT;
#endif

#ifdef FEATURE_USART_IMMEDIATE_BUFFER_OVERFLOW_NOTIFICATION
	config->immediate_buffer_overflow_notification  = false;
    160e:	7602      	strb	r2, [r0, #24]
#endif
#ifdef FEATURE_USART_START_FRAME_DECTION
	config->start_frame_detection_enable            = false;
    1610:	7702      	strb	r2, [r0, #28]
#endif
#ifdef FEATURE_USART_IRDA
	config->encoding_format_enable                  = false;
    1612:	7642      	strb	r2, [r0, #25]
	config->receive_pulse_length                    = 19;
    1614:	2313      	movs	r3, #19
    1616:	7683      	strb	r3, [r0, #26]
	config->iso7816_config.inhibit_nack             = ISO7816_INHIBIT_NACK_DISABLE;
	config->iso7816_config.successive_recv_nack     = ISO7816_SUCCESSIVE_RECV_NACK_DISABLE;
	config->iso7816_config.max_iterations           = 7;
#endif
#ifdef FEATURE_USART_COLLISION_DECTION
	config->collision_detection_enable              = false;
    1618:	7742      	strb	r2, [r0, #29]
	config_usart.baudrate    = 115200;
    161a:	23e1      	movs	r3, #225	; 0xe1
    161c:	025b      	lsls	r3, r3, #9
    161e:	9308      	str	r3, [sp, #32]
	config_usart.mux_setting = USART_RX_3_TX_2_XCK_3;
    1620:	23c4      	movs	r3, #196	; 0xc4
    1622:	039b      	lsls	r3, r3, #14
    1624:	9303      	str	r3, [sp, #12]
	config_usart.pinmux_pad0 = PINMUX_UNUSED;
    1626:	2301      	movs	r3, #1
    1628:	425b      	negs	r3, r3
    162a:	930c      	str	r3, [sp, #48]	; 0x30
	config_usart.pinmux_pad1 = PINMUX_UNUSED;
    162c:	930d      	str	r3, [sp, #52]	; 0x34
	config_usart.pinmux_pad2 = PINMUX_PA20D_SERCOM3_PAD2;
    162e:	4b17      	ldr	r3, [pc, #92]	; (168c <configure_usart+0xbc>)
    1630:	930e      	str	r3, [sp, #56]	; 0x38
	config_usart.pinmux_pad3 = PINMUX_PA21D_SERCOM3_PAD3;
    1632:	4b17      	ldr	r3, [pc, #92]	; (1690 <configure_usart+0xc0>)
    1634:	930f      	str	r3, [sp, #60]	; 0x3c
static inline void stdio_serial_init(
		struct usart_module *const module,
		usart_inst_t const hw,
		const struct usart_config *const config)
{
	stdio_base = (void *)module;
    1636:	4d17      	ldr	r5, [pc, #92]	; (1694 <configure_usart+0xc4>)
    1638:	4b17      	ldr	r3, [pc, #92]	; (1698 <configure_usart+0xc8>)
    163a:	601d      	str	r5, [r3, #0]
	ptr_put = (int (*)(void volatile*,char))&usart_serial_putchar;
    163c:	4a17      	ldr	r2, [pc, #92]	; (169c <configure_usart+0xcc>)
    163e:	4b18      	ldr	r3, [pc, #96]	; (16a0 <configure_usart+0xd0>)
    1640:	601a      	str	r2, [r3, #0]
	ptr_get = (void (*)(void volatile*,char*))&usart_serial_getchar;
    1642:	4a18      	ldr	r2, [pc, #96]	; (16a4 <configure_usart+0xd4>)
    1644:	4b18      	ldr	r3, [pc, #96]	; (16a8 <configure_usart+0xd8>)
    1646:	601a      	str	r2, [r3, #0]
	if (usart_init(module, hw, config) == STATUS_OK) {
    1648:	466a      	mov	r2, sp
    164a:	4918      	ldr	r1, [pc, #96]	; (16ac <configure_usart+0xdc>)
    164c:	0028      	movs	r0, r5
    164e:	4b18      	ldr	r3, [pc, #96]	; (16b0 <configure_usart+0xe0>)
    1650:	4798      	blx	r3

	usart_serial_init(module, hw, config);
# if defined(__GNUC__)
	// Specify that stdout and stdin should not be buffered.
	setbuf(stdout, NULL);
    1652:	4f18      	ldr	r7, [pc, #96]	; (16b4 <configure_usart+0xe4>)
    1654:	683b      	ldr	r3, [r7, #0]
    1656:	6898      	ldr	r0, [r3, #8]
    1658:	2100      	movs	r1, #0
    165a:	4e17      	ldr	r6, [pc, #92]	; (16b8 <configure_usart+0xe8>)
    165c:	47b0      	blx	r6
	setbuf(stdin, NULL);
    165e:	683b      	ldr	r3, [r7, #0]
    1660:	6858      	ldr	r0, [r3, #4]
    1662:	2100      	movs	r1, #0
    1664:	47b0      	blx	r6
	/* Sanity check arguments */
	Assert(module);
	Assert(module->hw);

	/* Get a pointer to the hardware module instance */
	SercomUsart *const usart_hw = &(module->hw->USART);
    1666:	682e      	ldr	r6, [r5, #0]

#if USART_CALLBACK_MODE == true
	/* Enable Global interrupt for module */
	system_interrupt_enable(_sercom_get_interrupt_vector(module->hw));
    1668:	0030      	movs	r0, r6
    166a:	4b14      	ldr	r3, [pc, #80]	; (16bc <configure_usart+0xec>)
    166c:	4798      	blx	r3
 * \param[in] vector Interrupt vector to enable
 */
static inline void system_interrupt_enable(
		const enum system_interrupt_vector vector)
{
	NVIC->ISER[0] = (uint32_t)(1 << ((uint32_t)vector & 0x0000001f));
    166e:	231f      	movs	r3, #31
    1670:	4018      	ands	r0, r3
    1672:	4084      	lsls	r4, r0
    1674:	4b12      	ldr	r3, [pc, #72]	; (16c0 <configure_usart+0xf0>)
    1676:	601c      	str	r4, [r3, #0]
	SercomUsart *const usart_hw = &(module->hw->USART);
    1678:	682a      	ldr	r2, [r5, #0]
	return (usart_hw->SYNCBUSY.reg);
    167a:	69d3      	ldr	r3, [r2, #28]
	while (usart_is_syncing(module)) {
    167c:	2b00      	cmp	r3, #0
    167e:	d1fc      	bne.n	167a <configure_usart+0xaa>

	/* Wait until synchronization is complete */
	_usart_wait_for_sync(module);

	/* Enable USART module */
	usart_hw->CTRLA.reg |= SERCOM_USART_CTRLA_ENABLE;
    1680:	6833      	ldr	r3, [r6, #0]
    1682:	2202      	movs	r2, #2
    1684:	4313      	orrs	r3, r2
    1686:	6033      	str	r3, [r6, #0]
}
    1688:	b011      	add	sp, #68	; 0x44
    168a:	bdf0      	pop	{r4, r5, r6, r7, pc}
    168c:	00140003 	.word	0x00140003
    1690:	00150003 	.word	0x00150003
    1694:	200000f0 	.word	0x200000f0
    1698:	200000d4 	.word	0x200000d4
    169c:	0000159d 	.word	0x0000159d
    16a0:	200000d0 	.word	0x200000d0
    16a4:	00001571 	.word	0x00001571
    16a8:	200000cc 	.word	0x200000cc
    16ac:	42001400 	.word	0x42001400
    16b0:	0000051d 	.word	0x0000051d
    16b4:	20000004 	.word	0x20000004
    16b8:	00001941 	.word	0x00001941
    16bc:	00000b45 	.word	0x00000b45
    16c0:	e000e100 	.word	0xe000e100

000016c4 <configure_usart_callbacks>:

void configure_usart_callbacks(void)
{
    16c4:	b570      	push	{r4, r5, r6, lr}
	usart_register_callback(&usart_instance,
    16c6:	4c08      	ldr	r4, [pc, #32]	; (16e8 <configure_usart_callbacks+0x24>)
    16c8:	2200      	movs	r2, #0
    16ca:	4908      	ldr	r1, [pc, #32]	; (16ec <configure_usart_callbacks+0x28>)
    16cc:	0020      	movs	r0, r4
    16ce:	4d08      	ldr	r5, [pc, #32]	; (16f0 <configure_usart_callbacks+0x2c>)
    16d0:	47a8      	blx	r5
	usart_write_callback, USART_CALLBACK_BUFFER_TRANSMITTED);
	usart_register_callback(&usart_instance,
    16d2:	2201      	movs	r2, #1
    16d4:	4907      	ldr	r1, [pc, #28]	; (16f4 <configure_usart_callbacks+0x30>)
    16d6:	0020      	movs	r0, r4
    16d8:	47a8      	blx	r5
{
	/* Sanity check arguments */
	Assert(module);

	/* Enable callback */
	module->callback_enable_mask |= (1 << callback_type);
    16da:	2231      	movs	r2, #49	; 0x31
    16dc:	5ca3      	ldrb	r3, [r4, r2]
    16de:	2103      	movs	r1, #3
    16e0:	430b      	orrs	r3, r1
    16e2:	54a3      	strb	r3, [r4, r2]
	usart_read_callback, USART_CALLBACK_BUFFER_RECEIVED);
	usart_enable_callback(&usart_instance, USART_CALLBACK_BUFFER_TRANSMITTED);
	usart_enable_callback(&usart_instance, USART_CALLBACK_BUFFER_RECEIVED);
}
    16e4:	bd70      	pop	{r4, r5, r6, pc}
    16e6:	46c0      	nop			; (mov r8, r8)
    16e8:	200000f0 	.word	0x200000f0
    16ec:	00001561 	.word	0x00001561
    16f0:	00000939 	.word	0x00000939
    16f4:	000015b5 	.word	0x000015b5

000016f8 <main>:


int main (void)
{
    16f8:	b530      	push	{r4, r5, lr}
    16fa:	b085      	sub	sp, #20
	system_init();
    16fc:	4b0c      	ldr	r3, [pc, #48]	; (1730 <main+0x38>)
    16fe:	4798      	blx	r3
	cpu_irq_enable();
    1700:	2201      	movs	r2, #1
    1702:	4b0c      	ldr	r3, [pc, #48]	; (1734 <main+0x3c>)
    1704:	701a      	strb	r2, [r3, #0]
    1706:	f3bf 8f5f 	dmb	sy
    170a:	b662      	cpsie	i
	system_interrupt_enable_global();
	configure_usart();
    170c:	4b0a      	ldr	r3, [pc, #40]	; (1738 <main+0x40>)
    170e:	4798      	blx	r3
	configure_usart_callbacks();
    1710:	4b0a      	ldr	r3, [pc, #40]	; (173c <main+0x44>)
    1712:	4798      	blx	r3
	
	
	
	uint8_t string[] = "Hello World!\r\n";
    1714:	4668      	mov	r0, sp
    1716:	4b0a      	ldr	r3, [pc, #40]	; (1740 <main+0x48>)
    1718:	466a      	mov	r2, sp
    171a:	cb32      	ldmia	r3!, {r1, r4, r5}
    171c:	c232      	stmia	r2!, {r1, r4, r5}
    171e:	8819      	ldrh	r1, [r3, #0]
    1720:	8011      	strh	r1, [r2, #0]
    1722:	789b      	ldrb	r3, [r3, #2]
    1724:	7093      	strb	r3, [r2, #2]
	printf(string);
    1726:	4b07      	ldr	r3, [pc, #28]	; (1744 <main+0x4c>)
    1728:	4798      	blx	r3
	//usart_write_buffer_wait(&usart_instance, string, sizeof(string));
	return 0;
}
    172a:	2000      	movs	r0, #0
    172c:	b005      	add	sp, #20
    172e:	bd30      	pop	{r4, r5, pc}
    1730:	00001411 	.word	0x00001411
    1734:	20000000 	.word	0x20000000
    1738:	000015d1 	.word	0x000015d1
    173c:	000016c5 	.word	0x000016c5
    1740:	00002950 	.word	0x00002950
    1744:	0000190d 	.word	0x0000190d

00001748 <__udivsi3>:
    1748:	2200      	movs	r2, #0
    174a:	0843      	lsrs	r3, r0, #1
    174c:	428b      	cmp	r3, r1
    174e:	d374      	bcc.n	183a <__udivsi3+0xf2>
    1750:	0903      	lsrs	r3, r0, #4
    1752:	428b      	cmp	r3, r1
    1754:	d35f      	bcc.n	1816 <__udivsi3+0xce>
    1756:	0a03      	lsrs	r3, r0, #8
    1758:	428b      	cmp	r3, r1
    175a:	d344      	bcc.n	17e6 <__udivsi3+0x9e>
    175c:	0b03      	lsrs	r3, r0, #12
    175e:	428b      	cmp	r3, r1
    1760:	d328      	bcc.n	17b4 <__udivsi3+0x6c>
    1762:	0c03      	lsrs	r3, r0, #16
    1764:	428b      	cmp	r3, r1
    1766:	d30d      	bcc.n	1784 <__udivsi3+0x3c>
    1768:	22ff      	movs	r2, #255	; 0xff
    176a:	0209      	lsls	r1, r1, #8
    176c:	ba12      	rev	r2, r2
    176e:	0c03      	lsrs	r3, r0, #16
    1770:	428b      	cmp	r3, r1
    1772:	d302      	bcc.n	177a <__udivsi3+0x32>
    1774:	1212      	asrs	r2, r2, #8
    1776:	0209      	lsls	r1, r1, #8
    1778:	d065      	beq.n	1846 <__udivsi3+0xfe>
    177a:	0b03      	lsrs	r3, r0, #12
    177c:	428b      	cmp	r3, r1
    177e:	d319      	bcc.n	17b4 <__udivsi3+0x6c>
    1780:	e000      	b.n	1784 <__udivsi3+0x3c>
    1782:	0a09      	lsrs	r1, r1, #8
    1784:	0bc3      	lsrs	r3, r0, #15
    1786:	428b      	cmp	r3, r1
    1788:	d301      	bcc.n	178e <__udivsi3+0x46>
    178a:	03cb      	lsls	r3, r1, #15
    178c:	1ac0      	subs	r0, r0, r3
    178e:	4152      	adcs	r2, r2
    1790:	0b83      	lsrs	r3, r0, #14
    1792:	428b      	cmp	r3, r1
    1794:	d301      	bcc.n	179a <__udivsi3+0x52>
    1796:	038b      	lsls	r3, r1, #14
    1798:	1ac0      	subs	r0, r0, r3
    179a:	4152      	adcs	r2, r2
    179c:	0b43      	lsrs	r3, r0, #13
    179e:	428b      	cmp	r3, r1
    17a0:	d301      	bcc.n	17a6 <__udivsi3+0x5e>
    17a2:	034b      	lsls	r3, r1, #13
    17a4:	1ac0      	subs	r0, r0, r3
    17a6:	4152      	adcs	r2, r2
    17a8:	0b03      	lsrs	r3, r0, #12
    17aa:	428b      	cmp	r3, r1
    17ac:	d301      	bcc.n	17b2 <__udivsi3+0x6a>
    17ae:	030b      	lsls	r3, r1, #12
    17b0:	1ac0      	subs	r0, r0, r3
    17b2:	4152      	adcs	r2, r2
    17b4:	0ac3      	lsrs	r3, r0, #11
    17b6:	428b      	cmp	r3, r1
    17b8:	d301      	bcc.n	17be <__udivsi3+0x76>
    17ba:	02cb      	lsls	r3, r1, #11
    17bc:	1ac0      	subs	r0, r0, r3
    17be:	4152      	adcs	r2, r2
    17c0:	0a83      	lsrs	r3, r0, #10
    17c2:	428b      	cmp	r3, r1
    17c4:	d301      	bcc.n	17ca <__udivsi3+0x82>
    17c6:	028b      	lsls	r3, r1, #10
    17c8:	1ac0      	subs	r0, r0, r3
    17ca:	4152      	adcs	r2, r2
    17cc:	0a43      	lsrs	r3, r0, #9
    17ce:	428b      	cmp	r3, r1
    17d0:	d301      	bcc.n	17d6 <__udivsi3+0x8e>
    17d2:	024b      	lsls	r3, r1, #9
    17d4:	1ac0      	subs	r0, r0, r3
    17d6:	4152      	adcs	r2, r2
    17d8:	0a03      	lsrs	r3, r0, #8
    17da:	428b      	cmp	r3, r1
    17dc:	d301      	bcc.n	17e2 <__udivsi3+0x9a>
    17de:	020b      	lsls	r3, r1, #8
    17e0:	1ac0      	subs	r0, r0, r3
    17e2:	4152      	adcs	r2, r2
    17e4:	d2cd      	bcs.n	1782 <__udivsi3+0x3a>
    17e6:	09c3      	lsrs	r3, r0, #7
    17e8:	428b      	cmp	r3, r1
    17ea:	d301      	bcc.n	17f0 <__udivsi3+0xa8>
    17ec:	01cb      	lsls	r3, r1, #7
    17ee:	1ac0      	subs	r0, r0, r3
    17f0:	4152      	adcs	r2, r2
    17f2:	0983      	lsrs	r3, r0, #6
    17f4:	428b      	cmp	r3, r1
    17f6:	d301      	bcc.n	17fc <__udivsi3+0xb4>
    17f8:	018b      	lsls	r3, r1, #6
    17fa:	1ac0      	subs	r0, r0, r3
    17fc:	4152      	adcs	r2, r2
    17fe:	0943      	lsrs	r3, r0, #5
    1800:	428b      	cmp	r3, r1
    1802:	d301      	bcc.n	1808 <__udivsi3+0xc0>
    1804:	014b      	lsls	r3, r1, #5
    1806:	1ac0      	subs	r0, r0, r3
    1808:	4152      	adcs	r2, r2
    180a:	0903      	lsrs	r3, r0, #4
    180c:	428b      	cmp	r3, r1
    180e:	d301      	bcc.n	1814 <__udivsi3+0xcc>
    1810:	010b      	lsls	r3, r1, #4
    1812:	1ac0      	subs	r0, r0, r3
    1814:	4152      	adcs	r2, r2
    1816:	08c3      	lsrs	r3, r0, #3
    1818:	428b      	cmp	r3, r1
    181a:	d301      	bcc.n	1820 <__udivsi3+0xd8>
    181c:	00cb      	lsls	r3, r1, #3
    181e:	1ac0      	subs	r0, r0, r3
    1820:	4152      	adcs	r2, r2
    1822:	0883      	lsrs	r3, r0, #2
    1824:	428b      	cmp	r3, r1
    1826:	d301      	bcc.n	182c <__udivsi3+0xe4>
    1828:	008b      	lsls	r3, r1, #2
    182a:	1ac0      	subs	r0, r0, r3
    182c:	4152      	adcs	r2, r2
    182e:	0843      	lsrs	r3, r0, #1
    1830:	428b      	cmp	r3, r1
    1832:	d301      	bcc.n	1838 <__udivsi3+0xf0>
    1834:	004b      	lsls	r3, r1, #1
    1836:	1ac0      	subs	r0, r0, r3
    1838:	4152      	adcs	r2, r2
    183a:	1a41      	subs	r1, r0, r1
    183c:	d200      	bcs.n	1840 <__udivsi3+0xf8>
    183e:	4601      	mov	r1, r0
    1840:	4152      	adcs	r2, r2
    1842:	4610      	mov	r0, r2
    1844:	4770      	bx	lr
    1846:	e7ff      	b.n	1848 <__udivsi3+0x100>
    1848:	b501      	push	{r0, lr}
    184a:	2000      	movs	r0, #0
    184c:	f000 f806 	bl	185c <__aeabi_idiv0>
    1850:	bd02      	pop	{r1, pc}
    1852:	46c0      	nop			; (mov r8, r8)

00001854 <__aeabi_uidivmod>:
    1854:	2900      	cmp	r1, #0
    1856:	d0f7      	beq.n	1848 <__udivsi3+0x100>
    1858:	e776      	b.n	1748 <__udivsi3>
    185a:	4770      	bx	lr

0000185c <__aeabi_idiv0>:
    185c:	4770      	bx	lr
    185e:	46c0      	nop			; (mov r8, r8)

00001860 <__aeabi_lmul>:
    1860:	b5f0      	push	{r4, r5, r6, r7, lr}
    1862:	46ce      	mov	lr, r9
    1864:	4647      	mov	r7, r8
    1866:	0415      	lsls	r5, r2, #16
    1868:	0c2d      	lsrs	r5, r5, #16
    186a:	002e      	movs	r6, r5
    186c:	b580      	push	{r7, lr}
    186e:	0407      	lsls	r7, r0, #16
    1870:	0c14      	lsrs	r4, r2, #16
    1872:	0c3f      	lsrs	r7, r7, #16
    1874:	4699      	mov	r9, r3
    1876:	0c03      	lsrs	r3, r0, #16
    1878:	437e      	muls	r6, r7
    187a:	435d      	muls	r5, r3
    187c:	4367      	muls	r7, r4
    187e:	4363      	muls	r3, r4
    1880:	197f      	adds	r7, r7, r5
    1882:	0c34      	lsrs	r4, r6, #16
    1884:	19e4      	adds	r4, r4, r7
    1886:	469c      	mov	ip, r3
    1888:	42a5      	cmp	r5, r4
    188a:	d903      	bls.n	1894 <__aeabi_lmul+0x34>
    188c:	2380      	movs	r3, #128	; 0x80
    188e:	025b      	lsls	r3, r3, #9
    1890:	4698      	mov	r8, r3
    1892:	44c4      	add	ip, r8
    1894:	464b      	mov	r3, r9
    1896:	4351      	muls	r1, r2
    1898:	4343      	muls	r3, r0
    189a:	0436      	lsls	r6, r6, #16
    189c:	0c36      	lsrs	r6, r6, #16
    189e:	0c25      	lsrs	r5, r4, #16
    18a0:	0424      	lsls	r4, r4, #16
    18a2:	4465      	add	r5, ip
    18a4:	19a4      	adds	r4, r4, r6
    18a6:	1859      	adds	r1, r3, r1
    18a8:	1949      	adds	r1, r1, r5
    18aa:	0020      	movs	r0, r4
    18ac:	bc0c      	pop	{r2, r3}
    18ae:	4690      	mov	r8, r2
    18b0:	4699      	mov	r9, r3
    18b2:	bdf0      	pop	{r4, r5, r6, r7, pc}

000018b4 <__libc_init_array>:
    18b4:	b570      	push	{r4, r5, r6, lr}
    18b6:	2600      	movs	r6, #0
    18b8:	4d0c      	ldr	r5, [pc, #48]	; (18ec <__libc_init_array+0x38>)
    18ba:	4c0d      	ldr	r4, [pc, #52]	; (18f0 <__libc_init_array+0x3c>)
    18bc:	1b64      	subs	r4, r4, r5
    18be:	10a4      	asrs	r4, r4, #2
    18c0:	42a6      	cmp	r6, r4
    18c2:	d109      	bne.n	18d8 <__libc_init_array+0x24>
    18c4:	2600      	movs	r6, #0
    18c6:	f001 f897 	bl	29f8 <_init>
    18ca:	4d0a      	ldr	r5, [pc, #40]	; (18f4 <__libc_init_array+0x40>)
    18cc:	4c0a      	ldr	r4, [pc, #40]	; (18f8 <__libc_init_array+0x44>)
    18ce:	1b64      	subs	r4, r4, r5
    18d0:	10a4      	asrs	r4, r4, #2
    18d2:	42a6      	cmp	r6, r4
    18d4:	d105      	bne.n	18e2 <__libc_init_array+0x2e>
    18d6:	bd70      	pop	{r4, r5, r6, pc}
    18d8:	00b3      	lsls	r3, r6, #2
    18da:	58eb      	ldr	r3, [r5, r3]
    18dc:	4798      	blx	r3
    18de:	3601      	adds	r6, #1
    18e0:	e7ee      	b.n	18c0 <__libc_init_array+0xc>
    18e2:	00b3      	lsls	r3, r6, #2
    18e4:	58eb      	ldr	r3, [r5, r3]
    18e6:	4798      	blx	r3
    18e8:	3601      	adds	r6, #1
    18ea:	e7f2      	b.n	18d2 <__libc_init_array+0x1e>
    18ec:	00002a04 	.word	0x00002a04
    18f0:	00002a04 	.word	0x00002a04
    18f4:	00002a04 	.word	0x00002a04
    18f8:	00002a08 	.word	0x00002a08

000018fc <memset>:
    18fc:	0003      	movs	r3, r0
    18fe:	1882      	adds	r2, r0, r2
    1900:	4293      	cmp	r3, r2
    1902:	d100      	bne.n	1906 <memset+0xa>
    1904:	4770      	bx	lr
    1906:	7019      	strb	r1, [r3, #0]
    1908:	3301      	adds	r3, #1
    190a:	e7f9      	b.n	1900 <memset+0x4>

0000190c <iprintf>:
    190c:	b40f      	push	{r0, r1, r2, r3}
    190e:	4b0b      	ldr	r3, [pc, #44]	; (193c <iprintf+0x30>)
    1910:	b513      	push	{r0, r1, r4, lr}
    1912:	681c      	ldr	r4, [r3, #0]
    1914:	2c00      	cmp	r4, #0
    1916:	d005      	beq.n	1924 <iprintf+0x18>
    1918:	69a3      	ldr	r3, [r4, #24]
    191a:	2b00      	cmp	r3, #0
    191c:	d102      	bne.n	1924 <iprintf+0x18>
    191e:	0020      	movs	r0, r4
    1920:	f000 f9bc 	bl	1c9c <__sinit>
    1924:	ab05      	add	r3, sp, #20
    1926:	9a04      	ldr	r2, [sp, #16]
    1928:	68a1      	ldr	r1, [r4, #8]
    192a:	0020      	movs	r0, r4
    192c:	9301      	str	r3, [sp, #4]
    192e:	f000 fb91 	bl	2054 <_vfiprintf_r>
    1932:	bc16      	pop	{r1, r2, r4}
    1934:	bc08      	pop	{r3}
    1936:	b004      	add	sp, #16
    1938:	4718      	bx	r3
    193a:	46c0      	nop			; (mov r8, r8)
    193c:	20000004 	.word	0x20000004

00001940 <setbuf>:
    1940:	424a      	negs	r2, r1
    1942:	414a      	adcs	r2, r1
    1944:	2380      	movs	r3, #128	; 0x80
    1946:	b510      	push	{r4, lr}
    1948:	0052      	lsls	r2, r2, #1
    194a:	00db      	lsls	r3, r3, #3
    194c:	f000 f802 	bl	1954 <setvbuf>
    1950:	bd10      	pop	{r4, pc}
	...

00001954 <setvbuf>:
    1954:	b5f0      	push	{r4, r5, r6, r7, lr}
    1956:	001d      	movs	r5, r3
    1958:	4b4f      	ldr	r3, [pc, #316]	; (1a98 <setvbuf+0x144>)
    195a:	b085      	sub	sp, #20
    195c:	681e      	ldr	r6, [r3, #0]
    195e:	0004      	movs	r4, r0
    1960:	000f      	movs	r7, r1
    1962:	9200      	str	r2, [sp, #0]
    1964:	2e00      	cmp	r6, #0
    1966:	d005      	beq.n	1974 <setvbuf+0x20>
    1968:	69b3      	ldr	r3, [r6, #24]
    196a:	2b00      	cmp	r3, #0
    196c:	d102      	bne.n	1974 <setvbuf+0x20>
    196e:	0030      	movs	r0, r6
    1970:	f000 f994 	bl	1c9c <__sinit>
    1974:	4b49      	ldr	r3, [pc, #292]	; (1a9c <setvbuf+0x148>)
    1976:	429c      	cmp	r4, r3
    1978:	d150      	bne.n	1a1c <setvbuf+0xc8>
    197a:	6874      	ldr	r4, [r6, #4]
    197c:	9b00      	ldr	r3, [sp, #0]
    197e:	2b02      	cmp	r3, #2
    1980:	d005      	beq.n	198e <setvbuf+0x3a>
    1982:	2b01      	cmp	r3, #1
    1984:	d900      	bls.n	1988 <setvbuf+0x34>
    1986:	e084      	b.n	1a92 <setvbuf+0x13e>
    1988:	2d00      	cmp	r5, #0
    198a:	da00      	bge.n	198e <setvbuf+0x3a>
    198c:	e081      	b.n	1a92 <setvbuf+0x13e>
    198e:	0021      	movs	r1, r4
    1990:	0030      	movs	r0, r6
    1992:	f000 f915 	bl	1bc0 <_fflush_r>
    1996:	6b61      	ldr	r1, [r4, #52]	; 0x34
    1998:	2900      	cmp	r1, #0
    199a:	d008      	beq.n	19ae <setvbuf+0x5a>
    199c:	0023      	movs	r3, r4
    199e:	3344      	adds	r3, #68	; 0x44
    19a0:	4299      	cmp	r1, r3
    19a2:	d002      	beq.n	19aa <setvbuf+0x56>
    19a4:	0030      	movs	r0, r6
    19a6:	f000 fa85 	bl	1eb4 <_free_r>
    19aa:	2300      	movs	r3, #0
    19ac:	6363      	str	r3, [r4, #52]	; 0x34
    19ae:	2300      	movs	r3, #0
    19b0:	61a3      	str	r3, [r4, #24]
    19b2:	6063      	str	r3, [r4, #4]
    19b4:	89a3      	ldrh	r3, [r4, #12]
    19b6:	061b      	lsls	r3, r3, #24
    19b8:	d503      	bpl.n	19c2 <setvbuf+0x6e>
    19ba:	6921      	ldr	r1, [r4, #16]
    19bc:	0030      	movs	r0, r6
    19be:	f000 fa79 	bl	1eb4 <_free_r>
    19c2:	89a3      	ldrh	r3, [r4, #12]
    19c4:	4a36      	ldr	r2, [pc, #216]	; (1aa0 <setvbuf+0x14c>)
    19c6:	4013      	ands	r3, r2
    19c8:	81a3      	strh	r3, [r4, #12]
    19ca:	9b00      	ldr	r3, [sp, #0]
    19cc:	2b02      	cmp	r3, #2
    19ce:	d05a      	beq.n	1a86 <setvbuf+0x132>
    19d0:	ab03      	add	r3, sp, #12
    19d2:	aa02      	add	r2, sp, #8
    19d4:	0021      	movs	r1, r4
    19d6:	0030      	movs	r0, r6
    19d8:	f000 f9f6 	bl	1dc8 <__swhatbuf_r>
    19dc:	89a3      	ldrh	r3, [r4, #12]
    19de:	4318      	orrs	r0, r3
    19e0:	81a0      	strh	r0, [r4, #12]
    19e2:	2d00      	cmp	r5, #0
    19e4:	d124      	bne.n	1a30 <setvbuf+0xdc>
    19e6:	9d02      	ldr	r5, [sp, #8]
    19e8:	0028      	movs	r0, r5
    19ea:	f000 fa59 	bl	1ea0 <malloc>
    19ee:	9501      	str	r5, [sp, #4]
    19f0:	1e07      	subs	r7, r0, #0
    19f2:	d142      	bne.n	1a7a <setvbuf+0x126>
    19f4:	9b02      	ldr	r3, [sp, #8]
    19f6:	9301      	str	r3, [sp, #4]
    19f8:	42ab      	cmp	r3, r5
    19fa:	d139      	bne.n	1a70 <setvbuf+0x11c>
    19fc:	2001      	movs	r0, #1
    19fe:	4240      	negs	r0, r0
    1a00:	2302      	movs	r3, #2
    1a02:	89a2      	ldrh	r2, [r4, #12]
    1a04:	4313      	orrs	r3, r2
    1a06:	81a3      	strh	r3, [r4, #12]
    1a08:	2300      	movs	r3, #0
    1a0a:	60a3      	str	r3, [r4, #8]
    1a0c:	0023      	movs	r3, r4
    1a0e:	3347      	adds	r3, #71	; 0x47
    1a10:	6023      	str	r3, [r4, #0]
    1a12:	6123      	str	r3, [r4, #16]
    1a14:	2301      	movs	r3, #1
    1a16:	6163      	str	r3, [r4, #20]
    1a18:	b005      	add	sp, #20
    1a1a:	bdf0      	pop	{r4, r5, r6, r7, pc}
    1a1c:	4b21      	ldr	r3, [pc, #132]	; (1aa4 <setvbuf+0x150>)
    1a1e:	429c      	cmp	r4, r3
    1a20:	d101      	bne.n	1a26 <setvbuf+0xd2>
    1a22:	68b4      	ldr	r4, [r6, #8]
    1a24:	e7aa      	b.n	197c <setvbuf+0x28>
    1a26:	4b20      	ldr	r3, [pc, #128]	; (1aa8 <setvbuf+0x154>)
    1a28:	429c      	cmp	r4, r3
    1a2a:	d1a7      	bne.n	197c <setvbuf+0x28>
    1a2c:	68f4      	ldr	r4, [r6, #12]
    1a2e:	e7a5      	b.n	197c <setvbuf+0x28>
    1a30:	2f00      	cmp	r7, #0
    1a32:	d0d9      	beq.n	19e8 <setvbuf+0x94>
    1a34:	69b3      	ldr	r3, [r6, #24]
    1a36:	2b00      	cmp	r3, #0
    1a38:	d102      	bne.n	1a40 <setvbuf+0xec>
    1a3a:	0030      	movs	r0, r6
    1a3c:	f000 f92e 	bl	1c9c <__sinit>
    1a40:	9b00      	ldr	r3, [sp, #0]
    1a42:	2b01      	cmp	r3, #1
    1a44:	d103      	bne.n	1a4e <setvbuf+0xfa>
    1a46:	89a3      	ldrh	r3, [r4, #12]
    1a48:	9a00      	ldr	r2, [sp, #0]
    1a4a:	431a      	orrs	r2, r3
    1a4c:	81a2      	strh	r2, [r4, #12]
    1a4e:	2008      	movs	r0, #8
    1a50:	89a3      	ldrh	r3, [r4, #12]
    1a52:	6027      	str	r7, [r4, #0]
    1a54:	6127      	str	r7, [r4, #16]
    1a56:	6165      	str	r5, [r4, #20]
    1a58:	4018      	ands	r0, r3
    1a5a:	d018      	beq.n	1a8e <setvbuf+0x13a>
    1a5c:	2001      	movs	r0, #1
    1a5e:	4018      	ands	r0, r3
    1a60:	2300      	movs	r3, #0
    1a62:	4298      	cmp	r0, r3
    1a64:	d011      	beq.n	1a8a <setvbuf+0x136>
    1a66:	426d      	negs	r5, r5
    1a68:	60a3      	str	r3, [r4, #8]
    1a6a:	61a5      	str	r5, [r4, #24]
    1a6c:	0018      	movs	r0, r3
    1a6e:	e7d3      	b.n	1a18 <setvbuf+0xc4>
    1a70:	9801      	ldr	r0, [sp, #4]
    1a72:	f000 fa15 	bl	1ea0 <malloc>
    1a76:	1e07      	subs	r7, r0, #0
    1a78:	d0c0      	beq.n	19fc <setvbuf+0xa8>
    1a7a:	2380      	movs	r3, #128	; 0x80
    1a7c:	89a2      	ldrh	r2, [r4, #12]
    1a7e:	9d01      	ldr	r5, [sp, #4]
    1a80:	4313      	orrs	r3, r2
    1a82:	81a3      	strh	r3, [r4, #12]
    1a84:	e7d6      	b.n	1a34 <setvbuf+0xe0>
    1a86:	2000      	movs	r0, #0
    1a88:	e7ba      	b.n	1a00 <setvbuf+0xac>
    1a8a:	60a5      	str	r5, [r4, #8]
    1a8c:	e7c4      	b.n	1a18 <setvbuf+0xc4>
    1a8e:	60a0      	str	r0, [r4, #8]
    1a90:	e7c2      	b.n	1a18 <setvbuf+0xc4>
    1a92:	2001      	movs	r0, #1
    1a94:	4240      	negs	r0, r0
    1a96:	e7bf      	b.n	1a18 <setvbuf+0xc4>
    1a98:	20000004 	.word	0x20000004
    1a9c:	00002984 	.word	0x00002984
    1aa0:	fffff35c 	.word	0xfffff35c
    1aa4:	000029a4 	.word	0x000029a4
    1aa8:	00002964 	.word	0x00002964

00001aac <__sflush_r>:
    1aac:	b5f7      	push	{r0, r1, r2, r4, r5, r6, r7, lr}
    1aae:	898a      	ldrh	r2, [r1, #12]
    1ab0:	0005      	movs	r5, r0
    1ab2:	000c      	movs	r4, r1
    1ab4:	0713      	lsls	r3, r2, #28
    1ab6:	d460      	bmi.n	1b7a <__sflush_r+0xce>
    1ab8:	684b      	ldr	r3, [r1, #4]
    1aba:	2b00      	cmp	r3, #0
    1abc:	dc04      	bgt.n	1ac8 <__sflush_r+0x1c>
    1abe:	6c0b      	ldr	r3, [r1, #64]	; 0x40
    1ac0:	2b00      	cmp	r3, #0
    1ac2:	dc01      	bgt.n	1ac8 <__sflush_r+0x1c>
    1ac4:	2000      	movs	r0, #0
    1ac6:	bdfe      	pop	{r1, r2, r3, r4, r5, r6, r7, pc}
    1ac8:	6ae7      	ldr	r7, [r4, #44]	; 0x2c
    1aca:	2f00      	cmp	r7, #0
    1acc:	d0fa      	beq.n	1ac4 <__sflush_r+0x18>
    1ace:	2300      	movs	r3, #0
    1ad0:	682e      	ldr	r6, [r5, #0]
    1ad2:	602b      	str	r3, [r5, #0]
    1ad4:	2380      	movs	r3, #128	; 0x80
    1ad6:	015b      	lsls	r3, r3, #5
    1ad8:	401a      	ands	r2, r3
    1ada:	d034      	beq.n	1b46 <__sflush_r+0x9a>
    1adc:	6d60      	ldr	r0, [r4, #84]	; 0x54
    1ade:	89a3      	ldrh	r3, [r4, #12]
    1ae0:	075b      	lsls	r3, r3, #29
    1ae2:	d506      	bpl.n	1af2 <__sflush_r+0x46>
    1ae4:	6863      	ldr	r3, [r4, #4]
    1ae6:	1ac0      	subs	r0, r0, r3
    1ae8:	6b63      	ldr	r3, [r4, #52]	; 0x34
    1aea:	2b00      	cmp	r3, #0
    1aec:	d001      	beq.n	1af2 <__sflush_r+0x46>
    1aee:	6c23      	ldr	r3, [r4, #64]	; 0x40
    1af0:	1ac0      	subs	r0, r0, r3
    1af2:	0002      	movs	r2, r0
    1af4:	6a21      	ldr	r1, [r4, #32]
    1af6:	2300      	movs	r3, #0
    1af8:	0028      	movs	r0, r5
    1afa:	6ae7      	ldr	r7, [r4, #44]	; 0x2c
    1afc:	47b8      	blx	r7
    1afe:	89a1      	ldrh	r1, [r4, #12]
    1b00:	1c43      	adds	r3, r0, #1
    1b02:	d106      	bne.n	1b12 <__sflush_r+0x66>
    1b04:	682b      	ldr	r3, [r5, #0]
    1b06:	2b1d      	cmp	r3, #29
    1b08:	d831      	bhi.n	1b6e <__sflush_r+0xc2>
    1b0a:	4a2c      	ldr	r2, [pc, #176]	; (1bbc <__sflush_r+0x110>)
    1b0c:	40da      	lsrs	r2, r3
    1b0e:	07d3      	lsls	r3, r2, #31
    1b10:	d52d      	bpl.n	1b6e <__sflush_r+0xc2>
    1b12:	2300      	movs	r3, #0
    1b14:	6063      	str	r3, [r4, #4]
    1b16:	6923      	ldr	r3, [r4, #16]
    1b18:	6023      	str	r3, [r4, #0]
    1b1a:	04cb      	lsls	r3, r1, #19
    1b1c:	d505      	bpl.n	1b2a <__sflush_r+0x7e>
    1b1e:	1c43      	adds	r3, r0, #1
    1b20:	d102      	bne.n	1b28 <__sflush_r+0x7c>
    1b22:	682b      	ldr	r3, [r5, #0]
    1b24:	2b00      	cmp	r3, #0
    1b26:	d100      	bne.n	1b2a <__sflush_r+0x7e>
    1b28:	6560      	str	r0, [r4, #84]	; 0x54
    1b2a:	6b61      	ldr	r1, [r4, #52]	; 0x34
    1b2c:	602e      	str	r6, [r5, #0]
    1b2e:	2900      	cmp	r1, #0
    1b30:	d0c8      	beq.n	1ac4 <__sflush_r+0x18>
    1b32:	0023      	movs	r3, r4
    1b34:	3344      	adds	r3, #68	; 0x44
    1b36:	4299      	cmp	r1, r3
    1b38:	d002      	beq.n	1b40 <__sflush_r+0x94>
    1b3a:	0028      	movs	r0, r5
    1b3c:	f000 f9ba 	bl	1eb4 <_free_r>
    1b40:	2000      	movs	r0, #0
    1b42:	6360      	str	r0, [r4, #52]	; 0x34
    1b44:	e7bf      	b.n	1ac6 <__sflush_r+0x1a>
    1b46:	2301      	movs	r3, #1
    1b48:	6a21      	ldr	r1, [r4, #32]
    1b4a:	0028      	movs	r0, r5
    1b4c:	47b8      	blx	r7
    1b4e:	1c43      	adds	r3, r0, #1
    1b50:	d1c5      	bne.n	1ade <__sflush_r+0x32>
    1b52:	682b      	ldr	r3, [r5, #0]
    1b54:	2b00      	cmp	r3, #0
    1b56:	d0c2      	beq.n	1ade <__sflush_r+0x32>
    1b58:	2b1d      	cmp	r3, #29
    1b5a:	d001      	beq.n	1b60 <__sflush_r+0xb4>
    1b5c:	2b16      	cmp	r3, #22
    1b5e:	d101      	bne.n	1b64 <__sflush_r+0xb8>
    1b60:	602e      	str	r6, [r5, #0]
    1b62:	e7af      	b.n	1ac4 <__sflush_r+0x18>
    1b64:	2340      	movs	r3, #64	; 0x40
    1b66:	89a2      	ldrh	r2, [r4, #12]
    1b68:	4313      	orrs	r3, r2
    1b6a:	81a3      	strh	r3, [r4, #12]
    1b6c:	e7ab      	b.n	1ac6 <__sflush_r+0x1a>
    1b6e:	2340      	movs	r3, #64	; 0x40
    1b70:	430b      	orrs	r3, r1
    1b72:	2001      	movs	r0, #1
    1b74:	81a3      	strh	r3, [r4, #12]
    1b76:	4240      	negs	r0, r0
    1b78:	e7a5      	b.n	1ac6 <__sflush_r+0x1a>
    1b7a:	690f      	ldr	r7, [r1, #16]
    1b7c:	2f00      	cmp	r7, #0
    1b7e:	d0a1      	beq.n	1ac4 <__sflush_r+0x18>
    1b80:	680b      	ldr	r3, [r1, #0]
    1b82:	600f      	str	r7, [r1, #0]
    1b84:	1bdb      	subs	r3, r3, r7
    1b86:	9301      	str	r3, [sp, #4]
    1b88:	2300      	movs	r3, #0
    1b8a:	0792      	lsls	r2, r2, #30
    1b8c:	d100      	bne.n	1b90 <__sflush_r+0xe4>
    1b8e:	694b      	ldr	r3, [r1, #20]
    1b90:	60a3      	str	r3, [r4, #8]
    1b92:	9b01      	ldr	r3, [sp, #4]
    1b94:	2b00      	cmp	r3, #0
    1b96:	dc00      	bgt.n	1b9a <__sflush_r+0xee>
    1b98:	e794      	b.n	1ac4 <__sflush_r+0x18>
    1b9a:	9b01      	ldr	r3, [sp, #4]
    1b9c:	003a      	movs	r2, r7
    1b9e:	6a21      	ldr	r1, [r4, #32]
    1ba0:	0028      	movs	r0, r5
    1ba2:	6aa6      	ldr	r6, [r4, #40]	; 0x28
    1ba4:	47b0      	blx	r6
    1ba6:	2800      	cmp	r0, #0
    1ba8:	dc03      	bgt.n	1bb2 <__sflush_r+0x106>
    1baa:	2340      	movs	r3, #64	; 0x40
    1bac:	89a2      	ldrh	r2, [r4, #12]
    1bae:	4313      	orrs	r3, r2
    1bb0:	e7df      	b.n	1b72 <__sflush_r+0xc6>
    1bb2:	9b01      	ldr	r3, [sp, #4]
    1bb4:	183f      	adds	r7, r7, r0
    1bb6:	1a1b      	subs	r3, r3, r0
    1bb8:	9301      	str	r3, [sp, #4]
    1bba:	e7ea      	b.n	1b92 <__sflush_r+0xe6>
    1bbc:	20400001 	.word	0x20400001

00001bc0 <_fflush_r>:
    1bc0:	690b      	ldr	r3, [r1, #16]
    1bc2:	b570      	push	{r4, r5, r6, lr}
    1bc4:	0005      	movs	r5, r0
    1bc6:	000c      	movs	r4, r1
    1bc8:	2b00      	cmp	r3, #0
    1bca:	d101      	bne.n	1bd0 <_fflush_r+0x10>
    1bcc:	2000      	movs	r0, #0
    1bce:	bd70      	pop	{r4, r5, r6, pc}
    1bd0:	2800      	cmp	r0, #0
    1bd2:	d004      	beq.n	1bde <_fflush_r+0x1e>
    1bd4:	6983      	ldr	r3, [r0, #24]
    1bd6:	2b00      	cmp	r3, #0
    1bd8:	d101      	bne.n	1bde <_fflush_r+0x1e>
    1bda:	f000 f85f 	bl	1c9c <__sinit>
    1bde:	4b0b      	ldr	r3, [pc, #44]	; (1c0c <_fflush_r+0x4c>)
    1be0:	429c      	cmp	r4, r3
    1be2:	d109      	bne.n	1bf8 <_fflush_r+0x38>
    1be4:	686c      	ldr	r4, [r5, #4]
    1be6:	220c      	movs	r2, #12
    1be8:	5ea3      	ldrsh	r3, [r4, r2]
    1bea:	2b00      	cmp	r3, #0
    1bec:	d0ee      	beq.n	1bcc <_fflush_r+0xc>
    1bee:	0021      	movs	r1, r4
    1bf0:	0028      	movs	r0, r5
    1bf2:	f7ff ff5b 	bl	1aac <__sflush_r>
    1bf6:	e7ea      	b.n	1bce <_fflush_r+0xe>
    1bf8:	4b05      	ldr	r3, [pc, #20]	; (1c10 <_fflush_r+0x50>)
    1bfa:	429c      	cmp	r4, r3
    1bfc:	d101      	bne.n	1c02 <_fflush_r+0x42>
    1bfe:	68ac      	ldr	r4, [r5, #8]
    1c00:	e7f1      	b.n	1be6 <_fflush_r+0x26>
    1c02:	4b04      	ldr	r3, [pc, #16]	; (1c14 <_fflush_r+0x54>)
    1c04:	429c      	cmp	r4, r3
    1c06:	d1ee      	bne.n	1be6 <_fflush_r+0x26>
    1c08:	68ec      	ldr	r4, [r5, #12]
    1c0a:	e7ec      	b.n	1be6 <_fflush_r+0x26>
    1c0c:	00002984 	.word	0x00002984
    1c10:	000029a4 	.word	0x000029a4
    1c14:	00002964 	.word	0x00002964

00001c18 <_cleanup_r>:
    1c18:	b510      	push	{r4, lr}
    1c1a:	4902      	ldr	r1, [pc, #8]	; (1c24 <_cleanup_r+0xc>)
    1c1c:	f000 f8b2 	bl	1d84 <_fwalk_reent>
    1c20:	bd10      	pop	{r4, pc}
    1c22:	46c0      	nop			; (mov r8, r8)
    1c24:	00001bc1 	.word	0x00001bc1

00001c28 <std.isra.0>:
    1c28:	2300      	movs	r3, #0
    1c2a:	b510      	push	{r4, lr}
    1c2c:	0004      	movs	r4, r0
    1c2e:	6003      	str	r3, [r0, #0]
    1c30:	6043      	str	r3, [r0, #4]
    1c32:	6083      	str	r3, [r0, #8]
    1c34:	8181      	strh	r1, [r0, #12]
    1c36:	6643      	str	r3, [r0, #100]	; 0x64
    1c38:	81c2      	strh	r2, [r0, #14]
    1c3a:	6103      	str	r3, [r0, #16]
    1c3c:	6143      	str	r3, [r0, #20]
    1c3e:	6183      	str	r3, [r0, #24]
    1c40:	0019      	movs	r1, r3
    1c42:	2208      	movs	r2, #8
    1c44:	305c      	adds	r0, #92	; 0x5c
    1c46:	f7ff fe59 	bl	18fc <memset>
    1c4a:	4b05      	ldr	r3, [pc, #20]	; (1c60 <std.isra.0+0x38>)
    1c4c:	6224      	str	r4, [r4, #32]
    1c4e:	6263      	str	r3, [r4, #36]	; 0x24
    1c50:	4b04      	ldr	r3, [pc, #16]	; (1c64 <std.isra.0+0x3c>)
    1c52:	62a3      	str	r3, [r4, #40]	; 0x28
    1c54:	4b04      	ldr	r3, [pc, #16]	; (1c68 <std.isra.0+0x40>)
    1c56:	62e3      	str	r3, [r4, #44]	; 0x2c
    1c58:	4b04      	ldr	r3, [pc, #16]	; (1c6c <std.isra.0+0x44>)
    1c5a:	6323      	str	r3, [r4, #48]	; 0x30
    1c5c:	bd10      	pop	{r4, pc}
    1c5e:	46c0      	nop			; (mov r8, r8)
    1c60:	000025c1 	.word	0x000025c1
    1c64:	000025e9 	.word	0x000025e9
    1c68:	00002621 	.word	0x00002621
    1c6c:	0000264d 	.word	0x0000264d

00001c70 <__sfmoreglue>:
    1c70:	b570      	push	{r4, r5, r6, lr}
    1c72:	2568      	movs	r5, #104	; 0x68
    1c74:	1e4a      	subs	r2, r1, #1
    1c76:	4355      	muls	r5, r2
    1c78:	000e      	movs	r6, r1
    1c7a:	0029      	movs	r1, r5
    1c7c:	3174      	adds	r1, #116	; 0x74
    1c7e:	f000 f963 	bl	1f48 <_malloc_r>
    1c82:	1e04      	subs	r4, r0, #0
    1c84:	d008      	beq.n	1c98 <__sfmoreglue+0x28>
    1c86:	2100      	movs	r1, #0
    1c88:	002a      	movs	r2, r5
    1c8a:	6001      	str	r1, [r0, #0]
    1c8c:	6046      	str	r6, [r0, #4]
    1c8e:	300c      	adds	r0, #12
    1c90:	60a0      	str	r0, [r4, #8]
    1c92:	3268      	adds	r2, #104	; 0x68
    1c94:	f7ff fe32 	bl	18fc <memset>
    1c98:	0020      	movs	r0, r4
    1c9a:	bd70      	pop	{r4, r5, r6, pc}

00001c9c <__sinit>:
    1c9c:	6983      	ldr	r3, [r0, #24]
    1c9e:	b513      	push	{r0, r1, r4, lr}
    1ca0:	0004      	movs	r4, r0
    1ca2:	2b00      	cmp	r3, #0
    1ca4:	d128      	bne.n	1cf8 <__sinit+0x5c>
    1ca6:	6483      	str	r3, [r0, #72]	; 0x48
    1ca8:	64c3      	str	r3, [r0, #76]	; 0x4c
    1caa:	6503      	str	r3, [r0, #80]	; 0x50
    1cac:	4b13      	ldr	r3, [pc, #76]	; (1cfc <__sinit+0x60>)
    1cae:	4a14      	ldr	r2, [pc, #80]	; (1d00 <__sinit+0x64>)
    1cb0:	681b      	ldr	r3, [r3, #0]
    1cb2:	6282      	str	r2, [r0, #40]	; 0x28
    1cb4:	9301      	str	r3, [sp, #4]
    1cb6:	4298      	cmp	r0, r3
    1cb8:	d101      	bne.n	1cbe <__sinit+0x22>
    1cba:	2301      	movs	r3, #1
    1cbc:	6183      	str	r3, [r0, #24]
    1cbe:	0020      	movs	r0, r4
    1cc0:	f000 f820 	bl	1d04 <__sfp>
    1cc4:	6060      	str	r0, [r4, #4]
    1cc6:	0020      	movs	r0, r4
    1cc8:	f000 f81c 	bl	1d04 <__sfp>
    1ccc:	60a0      	str	r0, [r4, #8]
    1cce:	0020      	movs	r0, r4
    1cd0:	f000 f818 	bl	1d04 <__sfp>
    1cd4:	2200      	movs	r2, #0
    1cd6:	60e0      	str	r0, [r4, #12]
    1cd8:	2104      	movs	r1, #4
    1cda:	6860      	ldr	r0, [r4, #4]
    1cdc:	f7ff ffa4 	bl	1c28 <std.isra.0>
    1ce0:	2201      	movs	r2, #1
    1ce2:	2109      	movs	r1, #9
    1ce4:	68a0      	ldr	r0, [r4, #8]
    1ce6:	f7ff ff9f 	bl	1c28 <std.isra.0>
    1cea:	2202      	movs	r2, #2
    1cec:	2112      	movs	r1, #18
    1cee:	68e0      	ldr	r0, [r4, #12]
    1cf0:	f7ff ff9a 	bl	1c28 <std.isra.0>
    1cf4:	2301      	movs	r3, #1
    1cf6:	61a3      	str	r3, [r4, #24]
    1cf8:	bd13      	pop	{r0, r1, r4, pc}
    1cfa:	46c0      	nop			; (mov r8, r8)
    1cfc:	00002960 	.word	0x00002960
    1d00:	00001c19 	.word	0x00001c19

00001d04 <__sfp>:
    1d04:	b5f8      	push	{r3, r4, r5, r6, r7, lr}
    1d06:	4b1e      	ldr	r3, [pc, #120]	; (1d80 <__sfp+0x7c>)
    1d08:	0007      	movs	r7, r0
    1d0a:	681e      	ldr	r6, [r3, #0]
    1d0c:	69b3      	ldr	r3, [r6, #24]
    1d0e:	2b00      	cmp	r3, #0
    1d10:	d102      	bne.n	1d18 <__sfp+0x14>
    1d12:	0030      	movs	r0, r6
    1d14:	f7ff ffc2 	bl	1c9c <__sinit>
    1d18:	3648      	adds	r6, #72	; 0x48
    1d1a:	68b4      	ldr	r4, [r6, #8]
    1d1c:	6873      	ldr	r3, [r6, #4]
    1d1e:	3b01      	subs	r3, #1
    1d20:	d504      	bpl.n	1d2c <__sfp+0x28>
    1d22:	6833      	ldr	r3, [r6, #0]
    1d24:	2b00      	cmp	r3, #0
    1d26:	d007      	beq.n	1d38 <__sfp+0x34>
    1d28:	6836      	ldr	r6, [r6, #0]
    1d2a:	e7f6      	b.n	1d1a <__sfp+0x16>
    1d2c:	220c      	movs	r2, #12
    1d2e:	5ea5      	ldrsh	r5, [r4, r2]
    1d30:	2d00      	cmp	r5, #0
    1d32:	d00d      	beq.n	1d50 <__sfp+0x4c>
    1d34:	3468      	adds	r4, #104	; 0x68
    1d36:	e7f2      	b.n	1d1e <__sfp+0x1a>
    1d38:	2104      	movs	r1, #4
    1d3a:	0038      	movs	r0, r7
    1d3c:	f7ff ff98 	bl	1c70 <__sfmoreglue>
    1d40:	6030      	str	r0, [r6, #0]
    1d42:	2800      	cmp	r0, #0
    1d44:	d1f0      	bne.n	1d28 <__sfp+0x24>
    1d46:	230c      	movs	r3, #12
    1d48:	0004      	movs	r4, r0
    1d4a:	603b      	str	r3, [r7, #0]
    1d4c:	0020      	movs	r0, r4
    1d4e:	bdf8      	pop	{r3, r4, r5, r6, r7, pc}
    1d50:	2301      	movs	r3, #1
    1d52:	0020      	movs	r0, r4
    1d54:	425b      	negs	r3, r3
    1d56:	81e3      	strh	r3, [r4, #14]
    1d58:	3302      	adds	r3, #2
    1d5a:	81a3      	strh	r3, [r4, #12]
    1d5c:	6665      	str	r5, [r4, #100]	; 0x64
    1d5e:	6025      	str	r5, [r4, #0]
    1d60:	60a5      	str	r5, [r4, #8]
    1d62:	6065      	str	r5, [r4, #4]
    1d64:	6125      	str	r5, [r4, #16]
    1d66:	6165      	str	r5, [r4, #20]
    1d68:	61a5      	str	r5, [r4, #24]
    1d6a:	2208      	movs	r2, #8
    1d6c:	0029      	movs	r1, r5
    1d6e:	305c      	adds	r0, #92	; 0x5c
    1d70:	f7ff fdc4 	bl	18fc <memset>
    1d74:	6365      	str	r5, [r4, #52]	; 0x34
    1d76:	63a5      	str	r5, [r4, #56]	; 0x38
    1d78:	64a5      	str	r5, [r4, #72]	; 0x48
    1d7a:	64e5      	str	r5, [r4, #76]	; 0x4c
    1d7c:	e7e6      	b.n	1d4c <__sfp+0x48>
    1d7e:	46c0      	nop			; (mov r8, r8)
    1d80:	00002960 	.word	0x00002960

00001d84 <_fwalk_reent>:
    1d84:	b5f7      	push	{r0, r1, r2, r4, r5, r6, r7, lr}
    1d86:	0004      	movs	r4, r0
    1d88:	0007      	movs	r7, r0
    1d8a:	2600      	movs	r6, #0
    1d8c:	9101      	str	r1, [sp, #4]
    1d8e:	3448      	adds	r4, #72	; 0x48
    1d90:	2c00      	cmp	r4, #0
    1d92:	d101      	bne.n	1d98 <_fwalk_reent+0x14>
    1d94:	0030      	movs	r0, r6
    1d96:	bdfe      	pop	{r1, r2, r3, r4, r5, r6, r7, pc}
    1d98:	6863      	ldr	r3, [r4, #4]
    1d9a:	68a5      	ldr	r5, [r4, #8]
    1d9c:	9300      	str	r3, [sp, #0]
    1d9e:	9b00      	ldr	r3, [sp, #0]
    1da0:	3b01      	subs	r3, #1
    1da2:	9300      	str	r3, [sp, #0]
    1da4:	d501      	bpl.n	1daa <_fwalk_reent+0x26>
    1da6:	6824      	ldr	r4, [r4, #0]
    1da8:	e7f2      	b.n	1d90 <_fwalk_reent+0xc>
    1daa:	89ab      	ldrh	r3, [r5, #12]
    1dac:	2b01      	cmp	r3, #1
    1dae:	d908      	bls.n	1dc2 <_fwalk_reent+0x3e>
    1db0:	220e      	movs	r2, #14
    1db2:	5eab      	ldrsh	r3, [r5, r2]
    1db4:	3301      	adds	r3, #1
    1db6:	d004      	beq.n	1dc2 <_fwalk_reent+0x3e>
    1db8:	0029      	movs	r1, r5
    1dba:	0038      	movs	r0, r7
    1dbc:	9b01      	ldr	r3, [sp, #4]
    1dbe:	4798      	blx	r3
    1dc0:	4306      	orrs	r6, r0
    1dc2:	3568      	adds	r5, #104	; 0x68
    1dc4:	e7eb      	b.n	1d9e <_fwalk_reent+0x1a>
	...

00001dc8 <__swhatbuf_r>:
    1dc8:	b570      	push	{r4, r5, r6, lr}
    1dca:	000e      	movs	r6, r1
    1dcc:	001d      	movs	r5, r3
    1dce:	230e      	movs	r3, #14
    1dd0:	5ec9      	ldrsh	r1, [r1, r3]
    1dd2:	b090      	sub	sp, #64	; 0x40
    1dd4:	0014      	movs	r4, r2
    1dd6:	2900      	cmp	r1, #0
    1dd8:	da07      	bge.n	1dea <__swhatbuf_r+0x22>
    1dda:	2300      	movs	r3, #0
    1ddc:	602b      	str	r3, [r5, #0]
    1dde:	89b3      	ldrh	r3, [r6, #12]
    1de0:	061b      	lsls	r3, r3, #24
    1de2:	d411      	bmi.n	1e08 <__swhatbuf_r+0x40>
    1de4:	2380      	movs	r3, #128	; 0x80
    1de6:	00db      	lsls	r3, r3, #3
    1de8:	e00f      	b.n	1e0a <__swhatbuf_r+0x42>
    1dea:	aa01      	add	r2, sp, #4
    1dec:	f000 fd26 	bl	283c <_fstat_r>
    1df0:	2800      	cmp	r0, #0
    1df2:	dbf2      	blt.n	1dda <__swhatbuf_r+0x12>
    1df4:	22f0      	movs	r2, #240	; 0xf0
    1df6:	9b02      	ldr	r3, [sp, #8]
    1df8:	0212      	lsls	r2, r2, #8
    1dfa:	4013      	ands	r3, r2
    1dfc:	4a05      	ldr	r2, [pc, #20]	; (1e14 <__swhatbuf_r+0x4c>)
    1dfe:	189b      	adds	r3, r3, r2
    1e00:	425a      	negs	r2, r3
    1e02:	4153      	adcs	r3, r2
    1e04:	602b      	str	r3, [r5, #0]
    1e06:	e7ed      	b.n	1de4 <__swhatbuf_r+0x1c>
    1e08:	2340      	movs	r3, #64	; 0x40
    1e0a:	2000      	movs	r0, #0
    1e0c:	6023      	str	r3, [r4, #0]
    1e0e:	b010      	add	sp, #64	; 0x40
    1e10:	bd70      	pop	{r4, r5, r6, pc}
    1e12:	46c0      	nop			; (mov r8, r8)
    1e14:	ffffe000 	.word	0xffffe000

00001e18 <__smakebuf_r>:
    1e18:	b5f7      	push	{r0, r1, r2, r4, r5, r6, r7, lr}
    1e1a:	2602      	movs	r6, #2
    1e1c:	898b      	ldrh	r3, [r1, #12]
    1e1e:	0005      	movs	r5, r0
    1e20:	000c      	movs	r4, r1
    1e22:	4233      	tst	r3, r6
    1e24:	d006      	beq.n	1e34 <__smakebuf_r+0x1c>
    1e26:	0023      	movs	r3, r4
    1e28:	3347      	adds	r3, #71	; 0x47
    1e2a:	6023      	str	r3, [r4, #0]
    1e2c:	6123      	str	r3, [r4, #16]
    1e2e:	2301      	movs	r3, #1
    1e30:	6163      	str	r3, [r4, #20]
    1e32:	bdf7      	pop	{r0, r1, r2, r4, r5, r6, r7, pc}
    1e34:	ab01      	add	r3, sp, #4
    1e36:	466a      	mov	r2, sp
    1e38:	f7ff ffc6 	bl	1dc8 <__swhatbuf_r>
    1e3c:	9900      	ldr	r1, [sp, #0]
    1e3e:	0007      	movs	r7, r0
    1e40:	0028      	movs	r0, r5
    1e42:	f000 f881 	bl	1f48 <_malloc_r>
    1e46:	2800      	cmp	r0, #0
    1e48:	d108      	bne.n	1e5c <__smakebuf_r+0x44>
    1e4a:	220c      	movs	r2, #12
    1e4c:	5ea3      	ldrsh	r3, [r4, r2]
    1e4e:	059a      	lsls	r2, r3, #22
    1e50:	d4ef      	bmi.n	1e32 <__smakebuf_r+0x1a>
    1e52:	2203      	movs	r2, #3
    1e54:	4393      	bics	r3, r2
    1e56:	431e      	orrs	r6, r3
    1e58:	81a6      	strh	r6, [r4, #12]
    1e5a:	e7e4      	b.n	1e26 <__smakebuf_r+0xe>
    1e5c:	4b0f      	ldr	r3, [pc, #60]	; (1e9c <__smakebuf_r+0x84>)
    1e5e:	62ab      	str	r3, [r5, #40]	; 0x28
    1e60:	2380      	movs	r3, #128	; 0x80
    1e62:	89a2      	ldrh	r2, [r4, #12]
    1e64:	6020      	str	r0, [r4, #0]
    1e66:	4313      	orrs	r3, r2
    1e68:	81a3      	strh	r3, [r4, #12]
    1e6a:	9b00      	ldr	r3, [sp, #0]
    1e6c:	6120      	str	r0, [r4, #16]
    1e6e:	6163      	str	r3, [r4, #20]
    1e70:	9b01      	ldr	r3, [sp, #4]
    1e72:	2b00      	cmp	r3, #0
    1e74:	d00d      	beq.n	1e92 <__smakebuf_r+0x7a>
    1e76:	230e      	movs	r3, #14
    1e78:	5ee1      	ldrsh	r1, [r4, r3]
    1e7a:	0028      	movs	r0, r5
    1e7c:	f000 fcf0 	bl	2860 <_isatty_r>
    1e80:	2800      	cmp	r0, #0
    1e82:	d006      	beq.n	1e92 <__smakebuf_r+0x7a>
    1e84:	2203      	movs	r2, #3
    1e86:	89a3      	ldrh	r3, [r4, #12]
    1e88:	4393      	bics	r3, r2
    1e8a:	001a      	movs	r2, r3
    1e8c:	2301      	movs	r3, #1
    1e8e:	4313      	orrs	r3, r2
    1e90:	81a3      	strh	r3, [r4, #12]
    1e92:	89a0      	ldrh	r0, [r4, #12]
    1e94:	4338      	orrs	r0, r7
    1e96:	81a0      	strh	r0, [r4, #12]
    1e98:	e7cb      	b.n	1e32 <__smakebuf_r+0x1a>
    1e9a:	46c0      	nop			; (mov r8, r8)
    1e9c:	00001c19 	.word	0x00001c19

00001ea0 <malloc>:
    1ea0:	b510      	push	{r4, lr}
    1ea2:	4b03      	ldr	r3, [pc, #12]	; (1eb0 <malloc+0x10>)
    1ea4:	0001      	movs	r1, r0
    1ea6:	6818      	ldr	r0, [r3, #0]
    1ea8:	f000 f84e 	bl	1f48 <_malloc_r>
    1eac:	bd10      	pop	{r4, pc}
    1eae:	46c0      	nop			; (mov r8, r8)
    1eb0:	20000004 	.word	0x20000004

00001eb4 <_free_r>:
    1eb4:	b570      	push	{r4, r5, r6, lr}
    1eb6:	0005      	movs	r5, r0
    1eb8:	2900      	cmp	r1, #0
    1eba:	d010      	beq.n	1ede <_free_r+0x2a>
    1ebc:	1f0c      	subs	r4, r1, #4
    1ebe:	6823      	ldr	r3, [r4, #0]
    1ec0:	2b00      	cmp	r3, #0
    1ec2:	da00      	bge.n	1ec6 <_free_r+0x12>
    1ec4:	18e4      	adds	r4, r4, r3
    1ec6:	0028      	movs	r0, r5
    1ec8:	f000 fcfb 	bl	28c2 <__malloc_lock>
    1ecc:	4a1d      	ldr	r2, [pc, #116]	; (1f44 <_free_r+0x90>)
    1ece:	6813      	ldr	r3, [r2, #0]
    1ed0:	2b00      	cmp	r3, #0
    1ed2:	d105      	bne.n	1ee0 <_free_r+0x2c>
    1ed4:	6063      	str	r3, [r4, #4]
    1ed6:	6014      	str	r4, [r2, #0]
    1ed8:	0028      	movs	r0, r5
    1eda:	f000 fcf3 	bl	28c4 <__malloc_unlock>
    1ede:	bd70      	pop	{r4, r5, r6, pc}
    1ee0:	42a3      	cmp	r3, r4
    1ee2:	d909      	bls.n	1ef8 <_free_r+0x44>
    1ee4:	6821      	ldr	r1, [r4, #0]
    1ee6:	1860      	adds	r0, r4, r1
    1ee8:	4283      	cmp	r3, r0
    1eea:	d1f3      	bne.n	1ed4 <_free_r+0x20>
    1eec:	6818      	ldr	r0, [r3, #0]
    1eee:	685b      	ldr	r3, [r3, #4]
    1ef0:	1841      	adds	r1, r0, r1
    1ef2:	6021      	str	r1, [r4, #0]
    1ef4:	e7ee      	b.n	1ed4 <_free_r+0x20>
    1ef6:	0013      	movs	r3, r2
    1ef8:	685a      	ldr	r2, [r3, #4]
    1efa:	2a00      	cmp	r2, #0
    1efc:	d001      	beq.n	1f02 <_free_r+0x4e>
    1efe:	42a2      	cmp	r2, r4
    1f00:	d9f9      	bls.n	1ef6 <_free_r+0x42>
    1f02:	6819      	ldr	r1, [r3, #0]
    1f04:	1858      	adds	r0, r3, r1
    1f06:	42a0      	cmp	r0, r4
    1f08:	d10b      	bne.n	1f22 <_free_r+0x6e>
    1f0a:	6820      	ldr	r0, [r4, #0]
    1f0c:	1809      	adds	r1, r1, r0
    1f0e:	1858      	adds	r0, r3, r1
    1f10:	6019      	str	r1, [r3, #0]
    1f12:	4282      	cmp	r2, r0
    1f14:	d1e0      	bne.n	1ed8 <_free_r+0x24>
    1f16:	6810      	ldr	r0, [r2, #0]
    1f18:	6852      	ldr	r2, [r2, #4]
    1f1a:	1841      	adds	r1, r0, r1
    1f1c:	6019      	str	r1, [r3, #0]
    1f1e:	605a      	str	r2, [r3, #4]
    1f20:	e7da      	b.n	1ed8 <_free_r+0x24>
    1f22:	42a0      	cmp	r0, r4
    1f24:	d902      	bls.n	1f2c <_free_r+0x78>
    1f26:	230c      	movs	r3, #12
    1f28:	602b      	str	r3, [r5, #0]
    1f2a:	e7d5      	b.n	1ed8 <_free_r+0x24>
    1f2c:	6821      	ldr	r1, [r4, #0]
    1f2e:	1860      	adds	r0, r4, r1
    1f30:	4282      	cmp	r2, r0
    1f32:	d103      	bne.n	1f3c <_free_r+0x88>
    1f34:	6810      	ldr	r0, [r2, #0]
    1f36:	6852      	ldr	r2, [r2, #4]
    1f38:	1841      	adds	r1, r0, r1
    1f3a:	6021      	str	r1, [r4, #0]
    1f3c:	6062      	str	r2, [r4, #4]
    1f3e:	605c      	str	r4, [r3, #4]
    1f40:	e7ca      	b.n	1ed8 <_free_r+0x24>
    1f42:	46c0      	nop			; (mov r8, r8)
    1f44:	200000c4 	.word	0x200000c4

00001f48 <_malloc_r>:
    1f48:	2303      	movs	r3, #3
    1f4a:	b570      	push	{r4, r5, r6, lr}
    1f4c:	1ccd      	adds	r5, r1, #3
    1f4e:	439d      	bics	r5, r3
    1f50:	3508      	adds	r5, #8
    1f52:	0006      	movs	r6, r0
    1f54:	2d0c      	cmp	r5, #12
    1f56:	d21e      	bcs.n	1f96 <_malloc_r+0x4e>
    1f58:	250c      	movs	r5, #12
    1f5a:	42a9      	cmp	r1, r5
    1f5c:	d81d      	bhi.n	1f9a <_malloc_r+0x52>
    1f5e:	0030      	movs	r0, r6
    1f60:	f000 fcaf 	bl	28c2 <__malloc_lock>
    1f64:	4a25      	ldr	r2, [pc, #148]	; (1ffc <_malloc_r+0xb4>)
    1f66:	6814      	ldr	r4, [r2, #0]
    1f68:	0021      	movs	r1, r4
    1f6a:	2900      	cmp	r1, #0
    1f6c:	d119      	bne.n	1fa2 <_malloc_r+0x5a>
    1f6e:	4c24      	ldr	r4, [pc, #144]	; (2000 <STACK_SIZE>)
    1f70:	6823      	ldr	r3, [r4, #0]
    1f72:	2b00      	cmp	r3, #0
    1f74:	d103      	bne.n	1f7e <_malloc_r+0x36>
    1f76:	0030      	movs	r0, r6
    1f78:	f000 fb10 	bl	259c <_sbrk_r>
    1f7c:	6020      	str	r0, [r4, #0]
    1f7e:	0029      	movs	r1, r5
    1f80:	0030      	movs	r0, r6
    1f82:	f000 fb0b 	bl	259c <_sbrk_r>
    1f86:	1c43      	adds	r3, r0, #1
    1f88:	d12c      	bne.n	1fe4 <_malloc_r+0x9c>
    1f8a:	230c      	movs	r3, #12
    1f8c:	0030      	movs	r0, r6
    1f8e:	6033      	str	r3, [r6, #0]
    1f90:	f000 fc98 	bl	28c4 <__malloc_unlock>
    1f94:	e003      	b.n	1f9e <_malloc_r+0x56>
    1f96:	2d00      	cmp	r5, #0
    1f98:	dadf      	bge.n	1f5a <_malloc_r+0x12>
    1f9a:	230c      	movs	r3, #12
    1f9c:	6033      	str	r3, [r6, #0]
    1f9e:	2000      	movs	r0, #0
    1fa0:	bd70      	pop	{r4, r5, r6, pc}
    1fa2:	680b      	ldr	r3, [r1, #0]
    1fa4:	1b5b      	subs	r3, r3, r5
    1fa6:	d41a      	bmi.n	1fde <_malloc_r+0x96>
    1fa8:	2b0b      	cmp	r3, #11
    1faa:	d903      	bls.n	1fb4 <_malloc_r+0x6c>
    1fac:	600b      	str	r3, [r1, #0]
    1fae:	18cc      	adds	r4, r1, r3
    1fb0:	6025      	str	r5, [r4, #0]
    1fb2:	e003      	b.n	1fbc <_malloc_r+0x74>
    1fb4:	428c      	cmp	r4, r1
    1fb6:	d10e      	bne.n	1fd6 <_malloc_r+0x8e>
    1fb8:	6863      	ldr	r3, [r4, #4]
    1fba:	6013      	str	r3, [r2, #0]
    1fbc:	0030      	movs	r0, r6
    1fbe:	f000 fc81 	bl	28c4 <__malloc_unlock>
    1fc2:	0020      	movs	r0, r4
    1fc4:	2207      	movs	r2, #7
    1fc6:	300b      	adds	r0, #11
    1fc8:	1d23      	adds	r3, r4, #4
    1fca:	4390      	bics	r0, r2
    1fcc:	1ac3      	subs	r3, r0, r3
    1fce:	d0e7      	beq.n	1fa0 <_malloc_r+0x58>
    1fd0:	425a      	negs	r2, r3
    1fd2:	50e2      	str	r2, [r4, r3]
    1fd4:	e7e4      	b.n	1fa0 <_malloc_r+0x58>
    1fd6:	684b      	ldr	r3, [r1, #4]
    1fd8:	6063      	str	r3, [r4, #4]
    1fda:	000c      	movs	r4, r1
    1fdc:	e7ee      	b.n	1fbc <_malloc_r+0x74>
    1fde:	000c      	movs	r4, r1
    1fe0:	6849      	ldr	r1, [r1, #4]
    1fe2:	e7c2      	b.n	1f6a <_malloc_r+0x22>
    1fe4:	2303      	movs	r3, #3
    1fe6:	1cc4      	adds	r4, r0, #3
    1fe8:	439c      	bics	r4, r3
    1fea:	42a0      	cmp	r0, r4
    1fec:	d0e0      	beq.n	1fb0 <_malloc_r+0x68>
    1fee:	1a21      	subs	r1, r4, r0
    1ff0:	0030      	movs	r0, r6
    1ff2:	f000 fad3 	bl	259c <_sbrk_r>
    1ff6:	1c43      	adds	r3, r0, #1
    1ff8:	d1da      	bne.n	1fb0 <_malloc_r+0x68>
    1ffa:	e7c6      	b.n	1f8a <_malloc_r+0x42>
    1ffc:	200000c4 	.word	0x200000c4
    2000:	200000c8 	.word	0x200000c8

00002004 <__sfputc_r>:
    2004:	6893      	ldr	r3, [r2, #8]
    2006:	b510      	push	{r4, lr}
    2008:	3b01      	subs	r3, #1
    200a:	6093      	str	r3, [r2, #8]
    200c:	2b00      	cmp	r3, #0
    200e:	da05      	bge.n	201c <__sfputc_r+0x18>
    2010:	6994      	ldr	r4, [r2, #24]
    2012:	42a3      	cmp	r3, r4
    2014:	db08      	blt.n	2028 <__sfputc_r+0x24>
    2016:	b2cb      	uxtb	r3, r1
    2018:	2b0a      	cmp	r3, #10
    201a:	d005      	beq.n	2028 <__sfputc_r+0x24>
    201c:	6813      	ldr	r3, [r2, #0]
    201e:	1c58      	adds	r0, r3, #1
    2020:	6010      	str	r0, [r2, #0]
    2022:	7019      	strb	r1, [r3, #0]
    2024:	b2c8      	uxtb	r0, r1
    2026:	bd10      	pop	{r4, pc}
    2028:	f000 fb16 	bl	2658 <__swbuf_r>
    202c:	e7fb      	b.n	2026 <__sfputc_r+0x22>

0000202e <__sfputs_r>:
    202e:	b5f8      	push	{r3, r4, r5, r6, r7, lr}
    2030:	0006      	movs	r6, r0
    2032:	000f      	movs	r7, r1
    2034:	0014      	movs	r4, r2
    2036:	18d5      	adds	r5, r2, r3
    2038:	42ac      	cmp	r4, r5
    203a:	d101      	bne.n	2040 <__sfputs_r+0x12>
    203c:	2000      	movs	r0, #0
    203e:	e007      	b.n	2050 <__sfputs_r+0x22>
    2040:	7821      	ldrb	r1, [r4, #0]
    2042:	003a      	movs	r2, r7
    2044:	0030      	movs	r0, r6
    2046:	f7ff ffdd 	bl	2004 <__sfputc_r>
    204a:	3401      	adds	r4, #1
    204c:	1c43      	adds	r3, r0, #1
    204e:	d1f3      	bne.n	2038 <__sfputs_r+0xa>
    2050:	bdf8      	pop	{r3, r4, r5, r6, r7, pc}
	...

00002054 <_vfiprintf_r>:
    2054:	b5f0      	push	{r4, r5, r6, r7, lr}
    2056:	b09f      	sub	sp, #124	; 0x7c
    2058:	0006      	movs	r6, r0
    205a:	000f      	movs	r7, r1
    205c:	0014      	movs	r4, r2
    205e:	9305      	str	r3, [sp, #20]
    2060:	2800      	cmp	r0, #0
    2062:	d004      	beq.n	206e <_vfiprintf_r+0x1a>
    2064:	6983      	ldr	r3, [r0, #24]
    2066:	2b00      	cmp	r3, #0
    2068:	d101      	bne.n	206e <_vfiprintf_r+0x1a>
    206a:	f7ff fe17 	bl	1c9c <__sinit>
    206e:	4b7f      	ldr	r3, [pc, #508]	; (226c <_vfiprintf_r+0x218>)
    2070:	429f      	cmp	r7, r3
    2072:	d15c      	bne.n	212e <_vfiprintf_r+0xda>
    2074:	6877      	ldr	r7, [r6, #4]
    2076:	89bb      	ldrh	r3, [r7, #12]
    2078:	071b      	lsls	r3, r3, #28
    207a:	d562      	bpl.n	2142 <_vfiprintf_r+0xee>
    207c:	693b      	ldr	r3, [r7, #16]
    207e:	2b00      	cmp	r3, #0
    2080:	d05f      	beq.n	2142 <_vfiprintf_r+0xee>
    2082:	2300      	movs	r3, #0
    2084:	ad06      	add	r5, sp, #24
    2086:	616b      	str	r3, [r5, #20]
    2088:	3320      	adds	r3, #32
    208a:	766b      	strb	r3, [r5, #25]
    208c:	3310      	adds	r3, #16
    208e:	76ab      	strb	r3, [r5, #26]
    2090:	9402      	str	r4, [sp, #8]
    2092:	9c02      	ldr	r4, [sp, #8]
    2094:	7823      	ldrb	r3, [r4, #0]
    2096:	2b00      	cmp	r3, #0
    2098:	d15d      	bne.n	2156 <_vfiprintf_r+0x102>
    209a:	9b02      	ldr	r3, [sp, #8]
    209c:	1ae3      	subs	r3, r4, r3
    209e:	9304      	str	r3, [sp, #16]
    20a0:	d00d      	beq.n	20be <_vfiprintf_r+0x6a>
    20a2:	9b04      	ldr	r3, [sp, #16]
    20a4:	9a02      	ldr	r2, [sp, #8]
    20a6:	0039      	movs	r1, r7
    20a8:	0030      	movs	r0, r6
    20aa:	f7ff ffc0 	bl	202e <__sfputs_r>
    20ae:	1c43      	adds	r3, r0, #1
    20b0:	d100      	bne.n	20b4 <_vfiprintf_r+0x60>
    20b2:	e0cc      	b.n	224e <_vfiprintf_r+0x1fa>
    20b4:	696a      	ldr	r2, [r5, #20]
    20b6:	9b04      	ldr	r3, [sp, #16]
    20b8:	4694      	mov	ip, r2
    20ba:	4463      	add	r3, ip
    20bc:	616b      	str	r3, [r5, #20]
    20be:	7823      	ldrb	r3, [r4, #0]
    20c0:	2b00      	cmp	r3, #0
    20c2:	d100      	bne.n	20c6 <_vfiprintf_r+0x72>
    20c4:	e0c3      	b.n	224e <_vfiprintf_r+0x1fa>
    20c6:	2201      	movs	r2, #1
    20c8:	2300      	movs	r3, #0
    20ca:	4252      	negs	r2, r2
    20cc:	606a      	str	r2, [r5, #4]
    20ce:	a902      	add	r1, sp, #8
    20d0:	3254      	adds	r2, #84	; 0x54
    20d2:	1852      	adds	r2, r2, r1
    20d4:	3401      	adds	r4, #1
    20d6:	602b      	str	r3, [r5, #0]
    20d8:	60eb      	str	r3, [r5, #12]
    20da:	60ab      	str	r3, [r5, #8]
    20dc:	7013      	strb	r3, [r2, #0]
    20de:	65ab      	str	r3, [r5, #88]	; 0x58
    20e0:	7821      	ldrb	r1, [r4, #0]
    20e2:	2205      	movs	r2, #5
    20e4:	4862      	ldr	r0, [pc, #392]	; (2270 <_vfiprintf_r+0x21c>)
    20e6:	f000 fbe1 	bl	28ac <memchr>
    20ea:	1c63      	adds	r3, r4, #1
    20ec:	469c      	mov	ip, r3
    20ee:	2800      	cmp	r0, #0
    20f0:	d135      	bne.n	215e <_vfiprintf_r+0x10a>
    20f2:	6829      	ldr	r1, [r5, #0]
    20f4:	06cb      	lsls	r3, r1, #27
    20f6:	d504      	bpl.n	2102 <_vfiprintf_r+0xae>
    20f8:	2353      	movs	r3, #83	; 0x53
    20fa:	aa02      	add	r2, sp, #8
    20fc:	3020      	adds	r0, #32
    20fe:	189b      	adds	r3, r3, r2
    2100:	7018      	strb	r0, [r3, #0]
    2102:	070b      	lsls	r3, r1, #28
    2104:	d504      	bpl.n	2110 <_vfiprintf_r+0xbc>
    2106:	2353      	movs	r3, #83	; 0x53
    2108:	202b      	movs	r0, #43	; 0x2b
    210a:	aa02      	add	r2, sp, #8
    210c:	189b      	adds	r3, r3, r2
    210e:	7018      	strb	r0, [r3, #0]
    2110:	7823      	ldrb	r3, [r4, #0]
    2112:	2b2a      	cmp	r3, #42	; 0x2a
    2114:	d02c      	beq.n	2170 <_vfiprintf_r+0x11c>
    2116:	2000      	movs	r0, #0
    2118:	210a      	movs	r1, #10
    211a:	9b09      	ldr	r3, [sp, #36]	; 0x24
    211c:	7822      	ldrb	r2, [r4, #0]
    211e:	3a30      	subs	r2, #48	; 0x30
    2120:	2a09      	cmp	r2, #9
    2122:	d800      	bhi.n	2126 <_vfiprintf_r+0xd2>
    2124:	e06b      	b.n	21fe <_vfiprintf_r+0x1aa>
    2126:	2800      	cmp	r0, #0
    2128:	d02a      	beq.n	2180 <_vfiprintf_r+0x12c>
    212a:	9309      	str	r3, [sp, #36]	; 0x24
    212c:	e028      	b.n	2180 <_vfiprintf_r+0x12c>
    212e:	4b51      	ldr	r3, [pc, #324]	; (2274 <_vfiprintf_r+0x220>)
    2130:	429f      	cmp	r7, r3
    2132:	d101      	bne.n	2138 <_vfiprintf_r+0xe4>
    2134:	68b7      	ldr	r7, [r6, #8]
    2136:	e79e      	b.n	2076 <_vfiprintf_r+0x22>
    2138:	4b4f      	ldr	r3, [pc, #316]	; (2278 <_vfiprintf_r+0x224>)
    213a:	429f      	cmp	r7, r3
    213c:	d19b      	bne.n	2076 <_vfiprintf_r+0x22>
    213e:	68f7      	ldr	r7, [r6, #12]
    2140:	e799      	b.n	2076 <_vfiprintf_r+0x22>
    2142:	0039      	movs	r1, r7
    2144:	0030      	movs	r0, r6
    2146:	f000 faf1 	bl	272c <__swsetup_r>
    214a:	2800      	cmp	r0, #0
    214c:	d099      	beq.n	2082 <_vfiprintf_r+0x2e>
    214e:	2001      	movs	r0, #1
    2150:	4240      	negs	r0, r0
    2152:	b01f      	add	sp, #124	; 0x7c
    2154:	bdf0      	pop	{r4, r5, r6, r7, pc}
    2156:	2b25      	cmp	r3, #37	; 0x25
    2158:	d09f      	beq.n	209a <_vfiprintf_r+0x46>
    215a:	3401      	adds	r4, #1
    215c:	e79a      	b.n	2094 <_vfiprintf_r+0x40>
    215e:	4b44      	ldr	r3, [pc, #272]	; (2270 <_vfiprintf_r+0x21c>)
    2160:	6829      	ldr	r1, [r5, #0]
    2162:	1ac0      	subs	r0, r0, r3
    2164:	2301      	movs	r3, #1
    2166:	4083      	lsls	r3, r0
    2168:	430b      	orrs	r3, r1
    216a:	602b      	str	r3, [r5, #0]
    216c:	4664      	mov	r4, ip
    216e:	e7b7      	b.n	20e0 <_vfiprintf_r+0x8c>
    2170:	9b05      	ldr	r3, [sp, #20]
    2172:	1d18      	adds	r0, r3, #4
    2174:	681b      	ldr	r3, [r3, #0]
    2176:	9005      	str	r0, [sp, #20]
    2178:	2b00      	cmp	r3, #0
    217a:	db3a      	blt.n	21f2 <_vfiprintf_r+0x19e>
    217c:	9309      	str	r3, [sp, #36]	; 0x24
    217e:	4664      	mov	r4, ip
    2180:	7823      	ldrb	r3, [r4, #0]
    2182:	2b2e      	cmp	r3, #46	; 0x2e
    2184:	d10b      	bne.n	219e <_vfiprintf_r+0x14a>
    2186:	7863      	ldrb	r3, [r4, #1]
    2188:	1c62      	adds	r2, r4, #1
    218a:	2b2a      	cmp	r3, #42	; 0x2a
    218c:	d13f      	bne.n	220e <_vfiprintf_r+0x1ba>
    218e:	9b05      	ldr	r3, [sp, #20]
    2190:	3402      	adds	r4, #2
    2192:	1d1a      	adds	r2, r3, #4
    2194:	681b      	ldr	r3, [r3, #0]
    2196:	9205      	str	r2, [sp, #20]
    2198:	2b00      	cmp	r3, #0
    219a:	db35      	blt.n	2208 <_vfiprintf_r+0x1b4>
    219c:	9307      	str	r3, [sp, #28]
    219e:	7821      	ldrb	r1, [r4, #0]
    21a0:	2203      	movs	r2, #3
    21a2:	4836      	ldr	r0, [pc, #216]	; (227c <_vfiprintf_r+0x228>)
    21a4:	f000 fb82 	bl	28ac <memchr>
    21a8:	2800      	cmp	r0, #0
    21aa:	d007      	beq.n	21bc <_vfiprintf_r+0x168>
    21ac:	4b33      	ldr	r3, [pc, #204]	; (227c <_vfiprintf_r+0x228>)
    21ae:	682a      	ldr	r2, [r5, #0]
    21b0:	1ac0      	subs	r0, r0, r3
    21b2:	2340      	movs	r3, #64	; 0x40
    21b4:	4083      	lsls	r3, r0
    21b6:	4313      	orrs	r3, r2
    21b8:	602b      	str	r3, [r5, #0]
    21ba:	3401      	adds	r4, #1
    21bc:	7821      	ldrb	r1, [r4, #0]
    21be:	1c63      	adds	r3, r4, #1
    21c0:	2206      	movs	r2, #6
    21c2:	482f      	ldr	r0, [pc, #188]	; (2280 <_vfiprintf_r+0x22c>)
    21c4:	9302      	str	r3, [sp, #8]
    21c6:	7629      	strb	r1, [r5, #24]
    21c8:	f000 fb70 	bl	28ac <memchr>
    21cc:	2800      	cmp	r0, #0
    21ce:	d044      	beq.n	225a <_vfiprintf_r+0x206>
    21d0:	4b2c      	ldr	r3, [pc, #176]	; (2284 <_vfiprintf_r+0x230>)
    21d2:	2b00      	cmp	r3, #0
    21d4:	d12f      	bne.n	2236 <_vfiprintf_r+0x1e2>
    21d6:	6829      	ldr	r1, [r5, #0]
    21d8:	9b05      	ldr	r3, [sp, #20]
    21da:	2207      	movs	r2, #7
    21dc:	05c9      	lsls	r1, r1, #23
    21de:	d528      	bpl.n	2232 <_vfiprintf_r+0x1de>
    21e0:	189b      	adds	r3, r3, r2
    21e2:	4393      	bics	r3, r2
    21e4:	3308      	adds	r3, #8
    21e6:	9305      	str	r3, [sp, #20]
    21e8:	696b      	ldr	r3, [r5, #20]
    21ea:	9a03      	ldr	r2, [sp, #12]
    21ec:	189b      	adds	r3, r3, r2
    21ee:	616b      	str	r3, [r5, #20]
    21f0:	e74f      	b.n	2092 <_vfiprintf_r+0x3e>
    21f2:	425b      	negs	r3, r3
    21f4:	60eb      	str	r3, [r5, #12]
    21f6:	2302      	movs	r3, #2
    21f8:	430b      	orrs	r3, r1
    21fa:	602b      	str	r3, [r5, #0]
    21fc:	e7bf      	b.n	217e <_vfiprintf_r+0x12a>
    21fe:	434b      	muls	r3, r1
    2200:	3401      	adds	r4, #1
    2202:	189b      	adds	r3, r3, r2
    2204:	2001      	movs	r0, #1
    2206:	e789      	b.n	211c <_vfiprintf_r+0xc8>
    2208:	2301      	movs	r3, #1
    220a:	425b      	negs	r3, r3
    220c:	e7c6      	b.n	219c <_vfiprintf_r+0x148>
    220e:	2300      	movs	r3, #0
    2210:	0014      	movs	r4, r2
    2212:	200a      	movs	r0, #10
    2214:	001a      	movs	r2, r3
    2216:	606b      	str	r3, [r5, #4]
    2218:	7821      	ldrb	r1, [r4, #0]
    221a:	3930      	subs	r1, #48	; 0x30
    221c:	2909      	cmp	r1, #9
    221e:	d903      	bls.n	2228 <_vfiprintf_r+0x1d4>
    2220:	2b00      	cmp	r3, #0
    2222:	d0bc      	beq.n	219e <_vfiprintf_r+0x14a>
    2224:	9207      	str	r2, [sp, #28]
    2226:	e7ba      	b.n	219e <_vfiprintf_r+0x14a>
    2228:	4342      	muls	r2, r0
    222a:	3401      	adds	r4, #1
    222c:	1852      	adds	r2, r2, r1
    222e:	2301      	movs	r3, #1
    2230:	e7f2      	b.n	2218 <_vfiprintf_r+0x1c4>
    2232:	3307      	adds	r3, #7
    2234:	e7d5      	b.n	21e2 <_vfiprintf_r+0x18e>
    2236:	ab05      	add	r3, sp, #20
    2238:	9300      	str	r3, [sp, #0]
    223a:	003a      	movs	r2, r7
    223c:	4b12      	ldr	r3, [pc, #72]	; (2288 <_vfiprintf_r+0x234>)
    223e:	0029      	movs	r1, r5
    2240:	0030      	movs	r0, r6
    2242:	e000      	b.n	2246 <_vfiprintf_r+0x1f2>
    2244:	bf00      	nop
    2246:	9003      	str	r0, [sp, #12]
    2248:	9b03      	ldr	r3, [sp, #12]
    224a:	3301      	adds	r3, #1
    224c:	d1cc      	bne.n	21e8 <_vfiprintf_r+0x194>
    224e:	89bb      	ldrh	r3, [r7, #12]
    2250:	065b      	lsls	r3, r3, #25
    2252:	d500      	bpl.n	2256 <_vfiprintf_r+0x202>
    2254:	e77b      	b.n	214e <_vfiprintf_r+0xfa>
    2256:	980b      	ldr	r0, [sp, #44]	; 0x2c
    2258:	e77b      	b.n	2152 <_vfiprintf_r+0xfe>
    225a:	ab05      	add	r3, sp, #20
    225c:	9300      	str	r3, [sp, #0]
    225e:	003a      	movs	r2, r7
    2260:	4b09      	ldr	r3, [pc, #36]	; (2288 <_vfiprintf_r+0x234>)
    2262:	0029      	movs	r1, r5
    2264:	0030      	movs	r0, r6
    2266:	f000 f87f 	bl	2368 <_printf_i>
    226a:	e7ec      	b.n	2246 <_vfiprintf_r+0x1f2>
    226c:	00002984 	.word	0x00002984
    2270:	000029c4 	.word	0x000029c4
    2274:	000029a4 	.word	0x000029a4
    2278:	00002964 	.word	0x00002964
    227c:	000029ca 	.word	0x000029ca
    2280:	000029ce 	.word	0x000029ce
    2284:	00000000 	.word	0x00000000
    2288:	0000202f 	.word	0x0000202f

0000228c <_printf_common>:
    228c:	b5f7      	push	{r0, r1, r2, r4, r5, r6, r7, lr}
    228e:	0015      	movs	r5, r2
    2290:	9301      	str	r3, [sp, #4]
    2292:	688a      	ldr	r2, [r1, #8]
    2294:	690b      	ldr	r3, [r1, #16]
    2296:	9000      	str	r0, [sp, #0]
    2298:	000c      	movs	r4, r1
    229a:	4293      	cmp	r3, r2
    229c:	da00      	bge.n	22a0 <_printf_common+0x14>
    229e:	0013      	movs	r3, r2
    22a0:	0022      	movs	r2, r4
    22a2:	602b      	str	r3, [r5, #0]
    22a4:	3243      	adds	r2, #67	; 0x43
    22a6:	7812      	ldrb	r2, [r2, #0]
    22a8:	2a00      	cmp	r2, #0
    22aa:	d001      	beq.n	22b0 <_printf_common+0x24>
    22ac:	3301      	adds	r3, #1
    22ae:	602b      	str	r3, [r5, #0]
    22b0:	6823      	ldr	r3, [r4, #0]
    22b2:	069b      	lsls	r3, r3, #26
    22b4:	d502      	bpl.n	22bc <_printf_common+0x30>
    22b6:	682b      	ldr	r3, [r5, #0]
    22b8:	3302      	adds	r3, #2
    22ba:	602b      	str	r3, [r5, #0]
    22bc:	2706      	movs	r7, #6
    22be:	6823      	ldr	r3, [r4, #0]
    22c0:	401f      	ands	r7, r3
    22c2:	d027      	beq.n	2314 <_printf_common+0x88>
    22c4:	0023      	movs	r3, r4
    22c6:	3343      	adds	r3, #67	; 0x43
    22c8:	781b      	ldrb	r3, [r3, #0]
    22ca:	1e5a      	subs	r2, r3, #1
    22cc:	4193      	sbcs	r3, r2
    22ce:	6822      	ldr	r2, [r4, #0]
    22d0:	0692      	lsls	r2, r2, #26
    22d2:	d430      	bmi.n	2336 <_printf_common+0xaa>
    22d4:	0022      	movs	r2, r4
    22d6:	9901      	ldr	r1, [sp, #4]
    22d8:	3243      	adds	r2, #67	; 0x43
    22da:	9800      	ldr	r0, [sp, #0]
    22dc:	9e08      	ldr	r6, [sp, #32]
    22de:	47b0      	blx	r6
    22e0:	1c43      	adds	r3, r0, #1
    22e2:	d025      	beq.n	2330 <_printf_common+0xa4>
    22e4:	2306      	movs	r3, #6
    22e6:	6820      	ldr	r0, [r4, #0]
    22e8:	682a      	ldr	r2, [r5, #0]
    22ea:	68e1      	ldr	r1, [r4, #12]
    22ec:	4003      	ands	r3, r0
    22ee:	2500      	movs	r5, #0
    22f0:	2b04      	cmp	r3, #4
    22f2:	d103      	bne.n	22fc <_printf_common+0x70>
    22f4:	1a8d      	subs	r5, r1, r2
    22f6:	43eb      	mvns	r3, r5
    22f8:	17db      	asrs	r3, r3, #31
    22fa:	401d      	ands	r5, r3
    22fc:	68a3      	ldr	r3, [r4, #8]
    22fe:	6922      	ldr	r2, [r4, #16]
    2300:	4293      	cmp	r3, r2
    2302:	dd01      	ble.n	2308 <_printf_common+0x7c>
    2304:	1a9b      	subs	r3, r3, r2
    2306:	18ed      	adds	r5, r5, r3
    2308:	2700      	movs	r7, #0
    230a:	42bd      	cmp	r5, r7
    230c:	d120      	bne.n	2350 <_printf_common+0xc4>
    230e:	2000      	movs	r0, #0
    2310:	e010      	b.n	2334 <_printf_common+0xa8>
    2312:	3701      	adds	r7, #1
    2314:	68e3      	ldr	r3, [r4, #12]
    2316:	682a      	ldr	r2, [r5, #0]
    2318:	1a9b      	subs	r3, r3, r2
    231a:	429f      	cmp	r7, r3
    231c:	dad2      	bge.n	22c4 <_printf_common+0x38>
    231e:	0022      	movs	r2, r4
    2320:	2301      	movs	r3, #1
    2322:	3219      	adds	r2, #25
    2324:	9901      	ldr	r1, [sp, #4]
    2326:	9800      	ldr	r0, [sp, #0]
    2328:	9e08      	ldr	r6, [sp, #32]
    232a:	47b0      	blx	r6
    232c:	1c43      	adds	r3, r0, #1
    232e:	d1f0      	bne.n	2312 <_printf_common+0x86>
    2330:	2001      	movs	r0, #1
    2332:	4240      	negs	r0, r0
    2334:	bdfe      	pop	{r1, r2, r3, r4, r5, r6, r7, pc}
    2336:	2030      	movs	r0, #48	; 0x30
    2338:	18e1      	adds	r1, r4, r3
    233a:	3143      	adds	r1, #67	; 0x43
    233c:	7008      	strb	r0, [r1, #0]
    233e:	0021      	movs	r1, r4
    2340:	1c5a      	adds	r2, r3, #1
    2342:	3145      	adds	r1, #69	; 0x45
    2344:	7809      	ldrb	r1, [r1, #0]
    2346:	18a2      	adds	r2, r4, r2
    2348:	3243      	adds	r2, #67	; 0x43
    234a:	3302      	adds	r3, #2
    234c:	7011      	strb	r1, [r2, #0]
    234e:	e7c1      	b.n	22d4 <_printf_common+0x48>
    2350:	0022      	movs	r2, r4
    2352:	2301      	movs	r3, #1
    2354:	321a      	adds	r2, #26
    2356:	9901      	ldr	r1, [sp, #4]
    2358:	9800      	ldr	r0, [sp, #0]
    235a:	9e08      	ldr	r6, [sp, #32]
    235c:	47b0      	blx	r6
    235e:	1c43      	adds	r3, r0, #1
    2360:	d0e6      	beq.n	2330 <_printf_common+0xa4>
    2362:	3701      	adds	r7, #1
    2364:	e7d1      	b.n	230a <_printf_common+0x7e>
	...

00002368 <_printf_i>:
    2368:	b5f0      	push	{r4, r5, r6, r7, lr}
    236a:	b08b      	sub	sp, #44	; 0x2c
    236c:	9206      	str	r2, [sp, #24]
    236e:	000a      	movs	r2, r1
    2370:	3243      	adds	r2, #67	; 0x43
    2372:	9307      	str	r3, [sp, #28]
    2374:	9005      	str	r0, [sp, #20]
    2376:	9204      	str	r2, [sp, #16]
    2378:	7e0a      	ldrb	r2, [r1, #24]
    237a:	000c      	movs	r4, r1
    237c:	9b10      	ldr	r3, [sp, #64]	; 0x40
    237e:	2a6e      	cmp	r2, #110	; 0x6e
    2380:	d100      	bne.n	2384 <_printf_i+0x1c>
    2382:	e08f      	b.n	24a4 <_printf_i+0x13c>
    2384:	d817      	bhi.n	23b6 <_printf_i+0x4e>
    2386:	2a63      	cmp	r2, #99	; 0x63
    2388:	d02c      	beq.n	23e4 <_printf_i+0x7c>
    238a:	d808      	bhi.n	239e <_printf_i+0x36>
    238c:	2a00      	cmp	r2, #0
    238e:	d100      	bne.n	2392 <_printf_i+0x2a>
    2390:	e099      	b.n	24c6 <_printf_i+0x15e>
    2392:	2a58      	cmp	r2, #88	; 0x58
    2394:	d054      	beq.n	2440 <_printf_i+0xd8>
    2396:	0026      	movs	r6, r4
    2398:	3642      	adds	r6, #66	; 0x42
    239a:	7032      	strb	r2, [r6, #0]
    239c:	e029      	b.n	23f2 <_printf_i+0x8a>
    239e:	2a64      	cmp	r2, #100	; 0x64
    23a0:	d001      	beq.n	23a6 <_printf_i+0x3e>
    23a2:	2a69      	cmp	r2, #105	; 0x69
    23a4:	d1f7      	bne.n	2396 <_printf_i+0x2e>
    23a6:	6821      	ldr	r1, [r4, #0]
    23a8:	681a      	ldr	r2, [r3, #0]
    23aa:	0608      	lsls	r0, r1, #24
    23ac:	d523      	bpl.n	23f6 <_printf_i+0x8e>
    23ae:	1d11      	adds	r1, r2, #4
    23b0:	6019      	str	r1, [r3, #0]
    23b2:	6815      	ldr	r5, [r2, #0]
    23b4:	e025      	b.n	2402 <_printf_i+0x9a>
    23b6:	2a73      	cmp	r2, #115	; 0x73
    23b8:	d100      	bne.n	23bc <_printf_i+0x54>
    23ba:	e088      	b.n	24ce <_printf_i+0x166>
    23bc:	d808      	bhi.n	23d0 <_printf_i+0x68>
    23be:	2a6f      	cmp	r2, #111	; 0x6f
    23c0:	d029      	beq.n	2416 <_printf_i+0xae>
    23c2:	2a70      	cmp	r2, #112	; 0x70
    23c4:	d1e7      	bne.n	2396 <_printf_i+0x2e>
    23c6:	2220      	movs	r2, #32
    23c8:	6809      	ldr	r1, [r1, #0]
    23ca:	430a      	orrs	r2, r1
    23cc:	6022      	str	r2, [r4, #0]
    23ce:	e003      	b.n	23d8 <_printf_i+0x70>
    23d0:	2a75      	cmp	r2, #117	; 0x75
    23d2:	d020      	beq.n	2416 <_printf_i+0xae>
    23d4:	2a78      	cmp	r2, #120	; 0x78
    23d6:	d1de      	bne.n	2396 <_printf_i+0x2e>
    23d8:	0022      	movs	r2, r4
    23da:	2178      	movs	r1, #120	; 0x78
    23dc:	3245      	adds	r2, #69	; 0x45
    23de:	7011      	strb	r1, [r2, #0]
    23e0:	4a6c      	ldr	r2, [pc, #432]	; (2594 <_printf_i+0x22c>)
    23e2:	e030      	b.n	2446 <_printf_i+0xde>
    23e4:	000e      	movs	r6, r1
    23e6:	681a      	ldr	r2, [r3, #0]
    23e8:	3642      	adds	r6, #66	; 0x42
    23ea:	1d11      	adds	r1, r2, #4
    23ec:	6019      	str	r1, [r3, #0]
    23ee:	6813      	ldr	r3, [r2, #0]
    23f0:	7033      	strb	r3, [r6, #0]
    23f2:	2301      	movs	r3, #1
    23f4:	e079      	b.n	24ea <_printf_i+0x182>
    23f6:	0649      	lsls	r1, r1, #25
    23f8:	d5d9      	bpl.n	23ae <_printf_i+0x46>
    23fa:	1d11      	adds	r1, r2, #4
    23fc:	6019      	str	r1, [r3, #0]
    23fe:	2300      	movs	r3, #0
    2400:	5ed5      	ldrsh	r5, [r2, r3]
    2402:	2d00      	cmp	r5, #0
    2404:	da03      	bge.n	240e <_printf_i+0xa6>
    2406:	232d      	movs	r3, #45	; 0x2d
    2408:	9a04      	ldr	r2, [sp, #16]
    240a:	426d      	negs	r5, r5
    240c:	7013      	strb	r3, [r2, #0]
    240e:	4b62      	ldr	r3, [pc, #392]	; (2598 <_printf_i+0x230>)
    2410:	270a      	movs	r7, #10
    2412:	9303      	str	r3, [sp, #12]
    2414:	e02f      	b.n	2476 <_printf_i+0x10e>
    2416:	6820      	ldr	r0, [r4, #0]
    2418:	6819      	ldr	r1, [r3, #0]
    241a:	0605      	lsls	r5, r0, #24
    241c:	d503      	bpl.n	2426 <_printf_i+0xbe>
    241e:	1d08      	adds	r0, r1, #4
    2420:	6018      	str	r0, [r3, #0]
    2422:	680d      	ldr	r5, [r1, #0]
    2424:	e005      	b.n	2432 <_printf_i+0xca>
    2426:	0640      	lsls	r0, r0, #25
    2428:	d5f9      	bpl.n	241e <_printf_i+0xb6>
    242a:	680d      	ldr	r5, [r1, #0]
    242c:	1d08      	adds	r0, r1, #4
    242e:	6018      	str	r0, [r3, #0]
    2430:	b2ad      	uxth	r5, r5
    2432:	4b59      	ldr	r3, [pc, #356]	; (2598 <_printf_i+0x230>)
    2434:	2708      	movs	r7, #8
    2436:	9303      	str	r3, [sp, #12]
    2438:	2a6f      	cmp	r2, #111	; 0x6f
    243a:	d018      	beq.n	246e <_printf_i+0x106>
    243c:	270a      	movs	r7, #10
    243e:	e016      	b.n	246e <_printf_i+0x106>
    2440:	3145      	adds	r1, #69	; 0x45
    2442:	700a      	strb	r2, [r1, #0]
    2444:	4a54      	ldr	r2, [pc, #336]	; (2598 <_printf_i+0x230>)
    2446:	9203      	str	r2, [sp, #12]
    2448:	681a      	ldr	r2, [r3, #0]
    244a:	6821      	ldr	r1, [r4, #0]
    244c:	1d10      	adds	r0, r2, #4
    244e:	6018      	str	r0, [r3, #0]
    2450:	6815      	ldr	r5, [r2, #0]
    2452:	0608      	lsls	r0, r1, #24
    2454:	d522      	bpl.n	249c <_printf_i+0x134>
    2456:	07cb      	lsls	r3, r1, #31
    2458:	d502      	bpl.n	2460 <_printf_i+0xf8>
    245a:	2320      	movs	r3, #32
    245c:	4319      	orrs	r1, r3
    245e:	6021      	str	r1, [r4, #0]
    2460:	2710      	movs	r7, #16
    2462:	2d00      	cmp	r5, #0
    2464:	d103      	bne.n	246e <_printf_i+0x106>
    2466:	2320      	movs	r3, #32
    2468:	6822      	ldr	r2, [r4, #0]
    246a:	439a      	bics	r2, r3
    246c:	6022      	str	r2, [r4, #0]
    246e:	0023      	movs	r3, r4
    2470:	2200      	movs	r2, #0
    2472:	3343      	adds	r3, #67	; 0x43
    2474:	701a      	strb	r2, [r3, #0]
    2476:	6863      	ldr	r3, [r4, #4]
    2478:	60a3      	str	r3, [r4, #8]
    247a:	2b00      	cmp	r3, #0
    247c:	db5c      	blt.n	2538 <_printf_i+0x1d0>
    247e:	2204      	movs	r2, #4
    2480:	6821      	ldr	r1, [r4, #0]
    2482:	4391      	bics	r1, r2
    2484:	6021      	str	r1, [r4, #0]
    2486:	2d00      	cmp	r5, #0
    2488:	d158      	bne.n	253c <_printf_i+0x1d4>
    248a:	9e04      	ldr	r6, [sp, #16]
    248c:	2b00      	cmp	r3, #0
    248e:	d064      	beq.n	255a <_printf_i+0x1f2>
    2490:	0026      	movs	r6, r4
    2492:	9b03      	ldr	r3, [sp, #12]
    2494:	3642      	adds	r6, #66	; 0x42
    2496:	781b      	ldrb	r3, [r3, #0]
    2498:	7033      	strb	r3, [r6, #0]
    249a:	e05e      	b.n	255a <_printf_i+0x1f2>
    249c:	0648      	lsls	r0, r1, #25
    249e:	d5da      	bpl.n	2456 <_printf_i+0xee>
    24a0:	b2ad      	uxth	r5, r5
    24a2:	e7d8      	b.n	2456 <_printf_i+0xee>
    24a4:	6809      	ldr	r1, [r1, #0]
    24a6:	681a      	ldr	r2, [r3, #0]
    24a8:	0608      	lsls	r0, r1, #24
    24aa:	d505      	bpl.n	24b8 <_printf_i+0x150>
    24ac:	1d11      	adds	r1, r2, #4
    24ae:	6019      	str	r1, [r3, #0]
    24b0:	6813      	ldr	r3, [r2, #0]
    24b2:	6962      	ldr	r2, [r4, #20]
    24b4:	601a      	str	r2, [r3, #0]
    24b6:	e006      	b.n	24c6 <_printf_i+0x15e>
    24b8:	0649      	lsls	r1, r1, #25
    24ba:	d5f7      	bpl.n	24ac <_printf_i+0x144>
    24bc:	1d11      	adds	r1, r2, #4
    24be:	6019      	str	r1, [r3, #0]
    24c0:	6813      	ldr	r3, [r2, #0]
    24c2:	8aa2      	ldrh	r2, [r4, #20]
    24c4:	801a      	strh	r2, [r3, #0]
    24c6:	2300      	movs	r3, #0
    24c8:	9e04      	ldr	r6, [sp, #16]
    24ca:	6123      	str	r3, [r4, #16]
    24cc:	e054      	b.n	2578 <_printf_i+0x210>
    24ce:	681a      	ldr	r2, [r3, #0]
    24d0:	1d11      	adds	r1, r2, #4
    24d2:	6019      	str	r1, [r3, #0]
    24d4:	6816      	ldr	r6, [r2, #0]
    24d6:	2100      	movs	r1, #0
    24d8:	6862      	ldr	r2, [r4, #4]
    24da:	0030      	movs	r0, r6
    24dc:	f000 f9e6 	bl	28ac <memchr>
    24e0:	2800      	cmp	r0, #0
    24e2:	d001      	beq.n	24e8 <_printf_i+0x180>
    24e4:	1b80      	subs	r0, r0, r6
    24e6:	6060      	str	r0, [r4, #4]
    24e8:	6863      	ldr	r3, [r4, #4]
    24ea:	6123      	str	r3, [r4, #16]
    24ec:	2300      	movs	r3, #0
    24ee:	9a04      	ldr	r2, [sp, #16]
    24f0:	7013      	strb	r3, [r2, #0]
    24f2:	e041      	b.n	2578 <_printf_i+0x210>
    24f4:	6923      	ldr	r3, [r4, #16]
    24f6:	0032      	movs	r2, r6
    24f8:	9906      	ldr	r1, [sp, #24]
    24fa:	9805      	ldr	r0, [sp, #20]
    24fc:	9d07      	ldr	r5, [sp, #28]
    24fe:	47a8      	blx	r5
    2500:	1c43      	adds	r3, r0, #1
    2502:	d043      	beq.n	258c <_printf_i+0x224>
    2504:	6823      	ldr	r3, [r4, #0]
    2506:	2500      	movs	r5, #0
    2508:	079b      	lsls	r3, r3, #30
    250a:	d40f      	bmi.n	252c <_printf_i+0x1c4>
    250c:	9b09      	ldr	r3, [sp, #36]	; 0x24
    250e:	68e0      	ldr	r0, [r4, #12]
    2510:	4298      	cmp	r0, r3
    2512:	da3d      	bge.n	2590 <_printf_i+0x228>
    2514:	0018      	movs	r0, r3
    2516:	e03b      	b.n	2590 <_printf_i+0x228>
    2518:	0022      	movs	r2, r4
    251a:	2301      	movs	r3, #1
    251c:	3219      	adds	r2, #25
    251e:	9906      	ldr	r1, [sp, #24]
    2520:	9805      	ldr	r0, [sp, #20]
    2522:	9e07      	ldr	r6, [sp, #28]
    2524:	47b0      	blx	r6
    2526:	1c43      	adds	r3, r0, #1
    2528:	d030      	beq.n	258c <_printf_i+0x224>
    252a:	3501      	adds	r5, #1
    252c:	68e3      	ldr	r3, [r4, #12]
    252e:	9a09      	ldr	r2, [sp, #36]	; 0x24
    2530:	1a9b      	subs	r3, r3, r2
    2532:	429d      	cmp	r5, r3
    2534:	dbf0      	blt.n	2518 <_printf_i+0x1b0>
    2536:	e7e9      	b.n	250c <_printf_i+0x1a4>
    2538:	2d00      	cmp	r5, #0
    253a:	d0a9      	beq.n	2490 <_printf_i+0x128>
    253c:	9e04      	ldr	r6, [sp, #16]
    253e:	0028      	movs	r0, r5
    2540:	0039      	movs	r1, r7
    2542:	f7ff f987 	bl	1854 <__aeabi_uidivmod>
    2546:	9b03      	ldr	r3, [sp, #12]
    2548:	3e01      	subs	r6, #1
    254a:	5c5b      	ldrb	r3, [r3, r1]
    254c:	0028      	movs	r0, r5
    254e:	7033      	strb	r3, [r6, #0]
    2550:	0039      	movs	r1, r7
    2552:	f7ff f8f9 	bl	1748 <__udivsi3>
    2556:	1e05      	subs	r5, r0, #0
    2558:	d1f1      	bne.n	253e <_printf_i+0x1d6>
    255a:	2f08      	cmp	r7, #8
    255c:	d109      	bne.n	2572 <_printf_i+0x20a>
    255e:	6823      	ldr	r3, [r4, #0]
    2560:	07db      	lsls	r3, r3, #31
    2562:	d506      	bpl.n	2572 <_printf_i+0x20a>
    2564:	6863      	ldr	r3, [r4, #4]
    2566:	6922      	ldr	r2, [r4, #16]
    2568:	4293      	cmp	r3, r2
    256a:	dc02      	bgt.n	2572 <_printf_i+0x20a>
    256c:	2330      	movs	r3, #48	; 0x30
    256e:	3e01      	subs	r6, #1
    2570:	7033      	strb	r3, [r6, #0]
    2572:	9b04      	ldr	r3, [sp, #16]
    2574:	1b9b      	subs	r3, r3, r6
    2576:	6123      	str	r3, [r4, #16]
    2578:	9b07      	ldr	r3, [sp, #28]
    257a:	aa09      	add	r2, sp, #36	; 0x24
    257c:	9300      	str	r3, [sp, #0]
    257e:	0021      	movs	r1, r4
    2580:	9b06      	ldr	r3, [sp, #24]
    2582:	9805      	ldr	r0, [sp, #20]
    2584:	f7ff fe82 	bl	228c <_printf_common>
    2588:	1c43      	adds	r3, r0, #1
    258a:	d1b3      	bne.n	24f4 <_printf_i+0x18c>
    258c:	2001      	movs	r0, #1
    258e:	4240      	negs	r0, r0
    2590:	b00b      	add	sp, #44	; 0x2c
    2592:	bdf0      	pop	{r4, r5, r6, r7, pc}
    2594:	000029e6 	.word	0x000029e6
    2598:	000029d5 	.word	0x000029d5

0000259c <_sbrk_r>:
    259c:	2300      	movs	r3, #0
    259e:	b570      	push	{r4, r5, r6, lr}
    25a0:	4c06      	ldr	r4, [pc, #24]	; (25bc <_sbrk_r+0x20>)
    25a2:	0005      	movs	r5, r0
    25a4:	0008      	movs	r0, r1
    25a6:	6023      	str	r3, [r4, #0]
    25a8:	f7fe ffbc 	bl	1524 <_sbrk>
    25ac:	1c43      	adds	r3, r0, #1
    25ae:	d103      	bne.n	25b8 <_sbrk_r+0x1c>
    25b0:	6823      	ldr	r3, [r4, #0]
    25b2:	2b00      	cmp	r3, #0
    25b4:	d000      	beq.n	25b8 <_sbrk_r+0x1c>
    25b6:	602b      	str	r3, [r5, #0]
    25b8:	bd70      	pop	{r4, r5, r6, pc}
    25ba:	46c0      	nop			; (mov r8, r8)
    25bc:	2000012c 	.word	0x2000012c

000025c0 <__sread>:
    25c0:	b570      	push	{r4, r5, r6, lr}
    25c2:	000c      	movs	r4, r1
    25c4:	250e      	movs	r5, #14
    25c6:	5f49      	ldrsh	r1, [r1, r5]
    25c8:	f000 f97e 	bl	28c8 <_read_r>
    25cc:	2800      	cmp	r0, #0
    25ce:	db03      	blt.n	25d8 <__sread+0x18>
    25d0:	6d63      	ldr	r3, [r4, #84]	; 0x54
    25d2:	181b      	adds	r3, r3, r0
    25d4:	6563      	str	r3, [r4, #84]	; 0x54
    25d6:	bd70      	pop	{r4, r5, r6, pc}
    25d8:	89a3      	ldrh	r3, [r4, #12]
    25da:	4a02      	ldr	r2, [pc, #8]	; (25e4 <__sread+0x24>)
    25dc:	4013      	ands	r3, r2
    25de:	81a3      	strh	r3, [r4, #12]
    25e0:	e7f9      	b.n	25d6 <__sread+0x16>
    25e2:	46c0      	nop			; (mov r8, r8)
    25e4:	ffffefff 	.word	0xffffefff

000025e8 <__swrite>:
    25e8:	b5f8      	push	{r3, r4, r5, r6, r7, lr}
    25ea:	001f      	movs	r7, r3
    25ec:	898b      	ldrh	r3, [r1, #12]
    25ee:	0005      	movs	r5, r0
    25f0:	000c      	movs	r4, r1
    25f2:	0016      	movs	r6, r2
    25f4:	05db      	lsls	r3, r3, #23
    25f6:	d505      	bpl.n	2604 <__swrite+0x1c>
    25f8:	230e      	movs	r3, #14
    25fa:	5ec9      	ldrsh	r1, [r1, r3]
    25fc:	2200      	movs	r2, #0
    25fe:	2302      	movs	r3, #2
    2600:	f000 f940 	bl	2884 <_lseek_r>
    2604:	89a3      	ldrh	r3, [r4, #12]
    2606:	4a05      	ldr	r2, [pc, #20]	; (261c <__swrite+0x34>)
    2608:	0028      	movs	r0, r5
    260a:	4013      	ands	r3, r2
    260c:	81a3      	strh	r3, [r4, #12]
    260e:	0032      	movs	r2, r6
    2610:	230e      	movs	r3, #14
    2612:	5ee1      	ldrsh	r1, [r4, r3]
    2614:	003b      	movs	r3, r7
    2616:	f000 f875 	bl	2704 <_write_r>
    261a:	bdf8      	pop	{r3, r4, r5, r6, r7, pc}
    261c:	ffffefff 	.word	0xffffefff

00002620 <__sseek>:
    2620:	b570      	push	{r4, r5, r6, lr}
    2622:	000c      	movs	r4, r1
    2624:	250e      	movs	r5, #14
    2626:	5f49      	ldrsh	r1, [r1, r5]
    2628:	f000 f92c 	bl	2884 <_lseek_r>
    262c:	89a3      	ldrh	r3, [r4, #12]
    262e:	1c42      	adds	r2, r0, #1
    2630:	d103      	bne.n	263a <__sseek+0x1a>
    2632:	4a05      	ldr	r2, [pc, #20]	; (2648 <__sseek+0x28>)
    2634:	4013      	ands	r3, r2
    2636:	81a3      	strh	r3, [r4, #12]
    2638:	bd70      	pop	{r4, r5, r6, pc}
    263a:	2280      	movs	r2, #128	; 0x80
    263c:	0152      	lsls	r2, r2, #5
    263e:	4313      	orrs	r3, r2
    2640:	81a3      	strh	r3, [r4, #12]
    2642:	6560      	str	r0, [r4, #84]	; 0x54
    2644:	e7f8      	b.n	2638 <__sseek+0x18>
    2646:	46c0      	nop			; (mov r8, r8)
    2648:	ffffefff 	.word	0xffffefff

0000264c <__sclose>:
    264c:	b510      	push	{r4, lr}
    264e:	230e      	movs	r3, #14
    2650:	5ec9      	ldrsh	r1, [r1, r3]
    2652:	f000 f8e1 	bl	2818 <_close_r>
    2656:	bd10      	pop	{r4, pc}

00002658 <__swbuf_r>:
    2658:	b5f8      	push	{r3, r4, r5, r6, r7, lr}
    265a:	0005      	movs	r5, r0
    265c:	000e      	movs	r6, r1
    265e:	0014      	movs	r4, r2
    2660:	2800      	cmp	r0, #0
    2662:	d004      	beq.n	266e <__swbuf_r+0x16>
    2664:	6983      	ldr	r3, [r0, #24]
    2666:	2b00      	cmp	r3, #0
    2668:	d101      	bne.n	266e <__swbuf_r+0x16>
    266a:	f7ff fb17 	bl	1c9c <__sinit>
    266e:	4b22      	ldr	r3, [pc, #136]	; (26f8 <__swbuf_r+0xa0>)
    2670:	429c      	cmp	r4, r3
    2672:	d12d      	bne.n	26d0 <__swbuf_r+0x78>
    2674:	686c      	ldr	r4, [r5, #4]
    2676:	69a3      	ldr	r3, [r4, #24]
    2678:	60a3      	str	r3, [r4, #8]
    267a:	89a3      	ldrh	r3, [r4, #12]
    267c:	071b      	lsls	r3, r3, #28
    267e:	d531      	bpl.n	26e4 <__swbuf_r+0x8c>
    2680:	6923      	ldr	r3, [r4, #16]
    2682:	2b00      	cmp	r3, #0
    2684:	d02e      	beq.n	26e4 <__swbuf_r+0x8c>
    2686:	6823      	ldr	r3, [r4, #0]
    2688:	6922      	ldr	r2, [r4, #16]
    268a:	b2f7      	uxtb	r7, r6
    268c:	1a98      	subs	r0, r3, r2
    268e:	6963      	ldr	r3, [r4, #20]
    2690:	b2f6      	uxtb	r6, r6
    2692:	4298      	cmp	r0, r3
    2694:	db05      	blt.n	26a2 <__swbuf_r+0x4a>
    2696:	0021      	movs	r1, r4
    2698:	0028      	movs	r0, r5
    269a:	f7ff fa91 	bl	1bc0 <_fflush_r>
    269e:	2800      	cmp	r0, #0
    26a0:	d126      	bne.n	26f0 <__swbuf_r+0x98>
    26a2:	68a3      	ldr	r3, [r4, #8]
    26a4:	3001      	adds	r0, #1
    26a6:	3b01      	subs	r3, #1
    26a8:	60a3      	str	r3, [r4, #8]
    26aa:	6823      	ldr	r3, [r4, #0]
    26ac:	1c5a      	adds	r2, r3, #1
    26ae:	6022      	str	r2, [r4, #0]
    26b0:	701f      	strb	r7, [r3, #0]
    26b2:	6963      	ldr	r3, [r4, #20]
    26b4:	4298      	cmp	r0, r3
    26b6:	d004      	beq.n	26c2 <__swbuf_r+0x6a>
    26b8:	89a3      	ldrh	r3, [r4, #12]
    26ba:	07db      	lsls	r3, r3, #31
    26bc:	d51a      	bpl.n	26f4 <__swbuf_r+0x9c>
    26be:	2e0a      	cmp	r6, #10
    26c0:	d118      	bne.n	26f4 <__swbuf_r+0x9c>
    26c2:	0021      	movs	r1, r4
    26c4:	0028      	movs	r0, r5
    26c6:	f7ff fa7b 	bl	1bc0 <_fflush_r>
    26ca:	2800      	cmp	r0, #0
    26cc:	d012      	beq.n	26f4 <__swbuf_r+0x9c>
    26ce:	e00f      	b.n	26f0 <__swbuf_r+0x98>
    26d0:	4b0a      	ldr	r3, [pc, #40]	; (26fc <__swbuf_r+0xa4>)
    26d2:	429c      	cmp	r4, r3
    26d4:	d101      	bne.n	26da <__swbuf_r+0x82>
    26d6:	68ac      	ldr	r4, [r5, #8]
    26d8:	e7cd      	b.n	2676 <__swbuf_r+0x1e>
    26da:	4b09      	ldr	r3, [pc, #36]	; (2700 <__swbuf_r+0xa8>)
    26dc:	429c      	cmp	r4, r3
    26de:	d1ca      	bne.n	2676 <__swbuf_r+0x1e>
    26e0:	68ec      	ldr	r4, [r5, #12]
    26e2:	e7c8      	b.n	2676 <__swbuf_r+0x1e>
    26e4:	0021      	movs	r1, r4
    26e6:	0028      	movs	r0, r5
    26e8:	f000 f820 	bl	272c <__swsetup_r>
    26ec:	2800      	cmp	r0, #0
    26ee:	d0ca      	beq.n	2686 <__swbuf_r+0x2e>
    26f0:	2601      	movs	r6, #1
    26f2:	4276      	negs	r6, r6
    26f4:	0030      	movs	r0, r6
    26f6:	bdf8      	pop	{r3, r4, r5, r6, r7, pc}
    26f8:	00002984 	.word	0x00002984
    26fc:	000029a4 	.word	0x000029a4
    2700:	00002964 	.word	0x00002964

00002704 <_write_r>:
    2704:	b570      	push	{r4, r5, r6, lr}
    2706:	0005      	movs	r5, r0
    2708:	0008      	movs	r0, r1
    270a:	0011      	movs	r1, r2
    270c:	2200      	movs	r2, #0
    270e:	4c06      	ldr	r4, [pc, #24]	; (2728 <_write_r+0x24>)
    2710:	6022      	str	r2, [r4, #0]
    2712:	001a      	movs	r2, r3
    2714:	f7fd feda 	bl	4cc <_write>
    2718:	1c43      	adds	r3, r0, #1
    271a:	d103      	bne.n	2724 <_write_r+0x20>
    271c:	6823      	ldr	r3, [r4, #0]
    271e:	2b00      	cmp	r3, #0
    2720:	d000      	beq.n	2724 <_write_r+0x20>
    2722:	602b      	str	r3, [r5, #0]
    2724:	bd70      	pop	{r4, r5, r6, pc}
    2726:	46c0      	nop			; (mov r8, r8)
    2728:	2000012c 	.word	0x2000012c

0000272c <__swsetup_r>:
    272c:	4b36      	ldr	r3, [pc, #216]	; (2808 <__swsetup_r+0xdc>)
    272e:	b570      	push	{r4, r5, r6, lr}
    2730:	681d      	ldr	r5, [r3, #0]
    2732:	0006      	movs	r6, r0
    2734:	000c      	movs	r4, r1
    2736:	2d00      	cmp	r5, #0
    2738:	d005      	beq.n	2746 <__swsetup_r+0x1a>
    273a:	69ab      	ldr	r3, [r5, #24]
    273c:	2b00      	cmp	r3, #0
    273e:	d102      	bne.n	2746 <__swsetup_r+0x1a>
    2740:	0028      	movs	r0, r5
    2742:	f7ff faab 	bl	1c9c <__sinit>
    2746:	4b31      	ldr	r3, [pc, #196]	; (280c <__swsetup_r+0xe0>)
    2748:	429c      	cmp	r4, r3
    274a:	d10f      	bne.n	276c <__swsetup_r+0x40>
    274c:	686c      	ldr	r4, [r5, #4]
    274e:	230c      	movs	r3, #12
    2750:	5ee2      	ldrsh	r2, [r4, r3]
    2752:	b293      	uxth	r3, r2
    2754:	0719      	lsls	r1, r3, #28
    2756:	d42d      	bmi.n	27b4 <__swsetup_r+0x88>
    2758:	06d9      	lsls	r1, r3, #27
    275a:	d411      	bmi.n	2780 <__swsetup_r+0x54>
    275c:	2309      	movs	r3, #9
    275e:	2001      	movs	r0, #1
    2760:	6033      	str	r3, [r6, #0]
    2762:	3337      	adds	r3, #55	; 0x37
    2764:	4313      	orrs	r3, r2
    2766:	81a3      	strh	r3, [r4, #12]
    2768:	4240      	negs	r0, r0
    276a:	bd70      	pop	{r4, r5, r6, pc}
    276c:	4b28      	ldr	r3, [pc, #160]	; (2810 <__swsetup_r+0xe4>)
    276e:	429c      	cmp	r4, r3
    2770:	d101      	bne.n	2776 <__swsetup_r+0x4a>
    2772:	68ac      	ldr	r4, [r5, #8]
    2774:	e7eb      	b.n	274e <__swsetup_r+0x22>
    2776:	4b27      	ldr	r3, [pc, #156]	; (2814 <__swsetup_r+0xe8>)
    2778:	429c      	cmp	r4, r3
    277a:	d1e8      	bne.n	274e <__swsetup_r+0x22>
    277c:	68ec      	ldr	r4, [r5, #12]
    277e:	e7e6      	b.n	274e <__swsetup_r+0x22>
    2780:	075b      	lsls	r3, r3, #29
    2782:	d513      	bpl.n	27ac <__swsetup_r+0x80>
    2784:	6b61      	ldr	r1, [r4, #52]	; 0x34
    2786:	2900      	cmp	r1, #0
    2788:	d008      	beq.n	279c <__swsetup_r+0x70>
    278a:	0023      	movs	r3, r4
    278c:	3344      	adds	r3, #68	; 0x44
    278e:	4299      	cmp	r1, r3
    2790:	d002      	beq.n	2798 <__swsetup_r+0x6c>
    2792:	0030      	movs	r0, r6
    2794:	f7ff fb8e 	bl	1eb4 <_free_r>
    2798:	2300      	movs	r3, #0
    279a:	6363      	str	r3, [r4, #52]	; 0x34
    279c:	2224      	movs	r2, #36	; 0x24
    279e:	89a3      	ldrh	r3, [r4, #12]
    27a0:	4393      	bics	r3, r2
    27a2:	81a3      	strh	r3, [r4, #12]
    27a4:	2300      	movs	r3, #0
    27a6:	6063      	str	r3, [r4, #4]
    27a8:	6923      	ldr	r3, [r4, #16]
    27aa:	6023      	str	r3, [r4, #0]
    27ac:	2308      	movs	r3, #8
    27ae:	89a2      	ldrh	r2, [r4, #12]
    27b0:	4313      	orrs	r3, r2
    27b2:	81a3      	strh	r3, [r4, #12]
    27b4:	6923      	ldr	r3, [r4, #16]
    27b6:	2b00      	cmp	r3, #0
    27b8:	d10b      	bne.n	27d2 <__swsetup_r+0xa6>
    27ba:	21a0      	movs	r1, #160	; 0xa0
    27bc:	2280      	movs	r2, #128	; 0x80
    27be:	89a3      	ldrh	r3, [r4, #12]
    27c0:	0089      	lsls	r1, r1, #2
    27c2:	0092      	lsls	r2, r2, #2
    27c4:	400b      	ands	r3, r1
    27c6:	4293      	cmp	r3, r2
    27c8:	d003      	beq.n	27d2 <__swsetup_r+0xa6>
    27ca:	0021      	movs	r1, r4
    27cc:	0030      	movs	r0, r6
    27ce:	f7ff fb23 	bl	1e18 <__smakebuf_r>
    27d2:	2301      	movs	r3, #1
    27d4:	89a2      	ldrh	r2, [r4, #12]
    27d6:	4013      	ands	r3, r2
    27d8:	d011      	beq.n	27fe <__swsetup_r+0xd2>
    27da:	2300      	movs	r3, #0
    27dc:	60a3      	str	r3, [r4, #8]
    27de:	6963      	ldr	r3, [r4, #20]
    27e0:	425b      	negs	r3, r3
    27e2:	61a3      	str	r3, [r4, #24]
    27e4:	2000      	movs	r0, #0
    27e6:	6923      	ldr	r3, [r4, #16]
    27e8:	4283      	cmp	r3, r0
    27ea:	d1be      	bne.n	276a <__swsetup_r+0x3e>
    27ec:	230c      	movs	r3, #12
    27ee:	5ee2      	ldrsh	r2, [r4, r3]
    27f0:	0613      	lsls	r3, r2, #24
    27f2:	d5ba      	bpl.n	276a <__swsetup_r+0x3e>
    27f4:	2340      	movs	r3, #64	; 0x40
    27f6:	4313      	orrs	r3, r2
    27f8:	81a3      	strh	r3, [r4, #12]
    27fa:	3801      	subs	r0, #1
    27fc:	e7b5      	b.n	276a <__swsetup_r+0x3e>
    27fe:	0792      	lsls	r2, r2, #30
    2800:	d400      	bmi.n	2804 <__swsetup_r+0xd8>
    2802:	6963      	ldr	r3, [r4, #20]
    2804:	60a3      	str	r3, [r4, #8]
    2806:	e7ed      	b.n	27e4 <__swsetup_r+0xb8>
    2808:	20000004 	.word	0x20000004
    280c:	00002984 	.word	0x00002984
    2810:	000029a4 	.word	0x000029a4
    2814:	00002964 	.word	0x00002964

00002818 <_close_r>:
    2818:	2300      	movs	r3, #0
    281a:	b570      	push	{r4, r5, r6, lr}
    281c:	4c06      	ldr	r4, [pc, #24]	; (2838 <_close_r+0x20>)
    281e:	0005      	movs	r5, r0
    2820:	0008      	movs	r0, r1
    2822:	6023      	str	r3, [r4, #0]
    2824:	f7fe fe90 	bl	1548 <_close>
    2828:	1c43      	adds	r3, r0, #1
    282a:	d103      	bne.n	2834 <_close_r+0x1c>
    282c:	6823      	ldr	r3, [r4, #0]
    282e:	2b00      	cmp	r3, #0
    2830:	d000      	beq.n	2834 <_close_r+0x1c>
    2832:	602b      	str	r3, [r5, #0]
    2834:	bd70      	pop	{r4, r5, r6, pc}
    2836:	46c0      	nop			; (mov r8, r8)
    2838:	2000012c 	.word	0x2000012c

0000283c <_fstat_r>:
    283c:	2300      	movs	r3, #0
    283e:	b570      	push	{r4, r5, r6, lr}
    2840:	4c06      	ldr	r4, [pc, #24]	; (285c <_fstat_r+0x20>)
    2842:	0005      	movs	r5, r0
    2844:	0008      	movs	r0, r1
    2846:	0011      	movs	r1, r2
    2848:	6023      	str	r3, [r4, #0]
    284a:	f7fe fe80 	bl	154e <_fstat>
    284e:	1c43      	adds	r3, r0, #1
    2850:	d103      	bne.n	285a <_fstat_r+0x1e>
    2852:	6823      	ldr	r3, [r4, #0]
    2854:	2b00      	cmp	r3, #0
    2856:	d000      	beq.n	285a <_fstat_r+0x1e>
    2858:	602b      	str	r3, [r5, #0]
    285a:	bd70      	pop	{r4, r5, r6, pc}
    285c:	2000012c 	.word	0x2000012c

00002860 <_isatty_r>:
    2860:	2300      	movs	r3, #0
    2862:	b570      	push	{r4, r5, r6, lr}
    2864:	4c06      	ldr	r4, [pc, #24]	; (2880 <_isatty_r+0x20>)
    2866:	0005      	movs	r5, r0
    2868:	0008      	movs	r0, r1
    286a:	6023      	str	r3, [r4, #0]
    286c:	f7fe fe74 	bl	1558 <_isatty>
    2870:	1c43      	adds	r3, r0, #1
    2872:	d103      	bne.n	287c <_isatty_r+0x1c>
    2874:	6823      	ldr	r3, [r4, #0]
    2876:	2b00      	cmp	r3, #0
    2878:	d000      	beq.n	287c <_isatty_r+0x1c>
    287a:	602b      	str	r3, [r5, #0]
    287c:	bd70      	pop	{r4, r5, r6, pc}
    287e:	46c0      	nop			; (mov r8, r8)
    2880:	2000012c 	.word	0x2000012c

00002884 <_lseek_r>:
    2884:	b570      	push	{r4, r5, r6, lr}
    2886:	0005      	movs	r5, r0
    2888:	0008      	movs	r0, r1
    288a:	0011      	movs	r1, r2
    288c:	2200      	movs	r2, #0
    288e:	4c06      	ldr	r4, [pc, #24]	; (28a8 <_lseek_r+0x24>)
    2890:	6022      	str	r2, [r4, #0]
    2892:	001a      	movs	r2, r3
    2894:	f7fe fe62 	bl	155c <_lseek>
    2898:	1c43      	adds	r3, r0, #1
    289a:	d103      	bne.n	28a4 <_lseek_r+0x20>
    289c:	6823      	ldr	r3, [r4, #0]
    289e:	2b00      	cmp	r3, #0
    28a0:	d000      	beq.n	28a4 <_lseek_r+0x20>
    28a2:	602b      	str	r3, [r5, #0]
    28a4:	bd70      	pop	{r4, r5, r6, pc}
    28a6:	46c0      	nop			; (mov r8, r8)
    28a8:	2000012c 	.word	0x2000012c

000028ac <memchr>:
    28ac:	b2c9      	uxtb	r1, r1
    28ae:	1882      	adds	r2, r0, r2
    28b0:	4290      	cmp	r0, r2
    28b2:	d101      	bne.n	28b8 <memchr+0xc>
    28b4:	2000      	movs	r0, #0
    28b6:	4770      	bx	lr
    28b8:	7803      	ldrb	r3, [r0, #0]
    28ba:	428b      	cmp	r3, r1
    28bc:	d0fb      	beq.n	28b6 <memchr+0xa>
    28be:	3001      	adds	r0, #1
    28c0:	e7f6      	b.n	28b0 <memchr+0x4>

000028c2 <__malloc_lock>:
    28c2:	4770      	bx	lr

000028c4 <__malloc_unlock>:
    28c4:	4770      	bx	lr
	...

000028c8 <_read_r>:
    28c8:	b570      	push	{r4, r5, r6, lr}
    28ca:	0005      	movs	r5, r0
    28cc:	0008      	movs	r0, r1
    28ce:	0011      	movs	r1, r2
    28d0:	2200      	movs	r2, #0
    28d2:	4c06      	ldr	r4, [pc, #24]	; (28ec <_read_r+0x24>)
    28d4:	6022      	str	r2, [r4, #0]
    28d6:	001a      	movs	r2, r3
    28d8:	f7fd fdd6 	bl	488 <_read>
    28dc:	1c43      	adds	r3, r0, #1
    28de:	d103      	bne.n	28e8 <_read_r+0x20>
    28e0:	6823      	ldr	r3, [r4, #0]
    28e2:	2b00      	cmp	r3, #0
    28e4:	d000      	beq.n	28e8 <_read_r+0x20>
    28e6:	602b      	str	r3, [r5, #0]
    28e8:	bd70      	pop	{r4, r5, r6, pc}
    28ea:	46c0      	nop			; (mov r8, r8)
    28ec:	2000012c 	.word	0x2000012c
    28f0:	42000800 	.word	0x42000800
    28f4:	42000c00 	.word	0x42000c00
    28f8:	42001000 	.word	0x42001000
    28fc:	42001400 	.word	0x42001400
    2900:	42001800 	.word	0x42001800
    2904:	42001c00 	.word	0x42001c00
    2908:	00000cb2 	.word	0x00000cb2
    290c:	00000cae 	.word	0x00000cae
    2910:	00000cae 	.word	0x00000cae
    2914:	00000d10 	.word	0x00000d10
    2918:	00000d10 	.word	0x00000d10
    291c:	00000cc6 	.word	0x00000cc6
    2920:	00000cb8 	.word	0x00000cb8
    2924:	00000ccc 	.word	0x00000ccc
    2928:	00000cfe 	.word	0x00000cfe
    292c:	00000ed0 	.word	0x00000ed0
    2930:	00000eb0 	.word	0x00000eb0
    2934:	00000eb0 	.word	0x00000eb0
    2938:	00000f3c 	.word	0x00000f3c
    293c:	00000ec2 	.word	0x00000ec2
    2940:	00000ede 	.word	0x00000ede
    2944:	00000eb4 	.word	0x00000eb4
    2948:	00000eec 	.word	0x00000eec
    294c:	00000f2c 	.word	0x00000f2c
    2950:	6c6c6548 	.word	0x6c6c6548
    2954:	6f57206f 	.word	0x6f57206f
    2958:	21646c72 	.word	0x21646c72
    295c:	00000a0d 	.word	0x00000a0d

00002960 <_global_impure_ptr>:
    2960:	20000008                                ... 

00002964 <__sf_fake_stderr>:
	...

00002984 <__sf_fake_stdin>:
	...

000029a4 <__sf_fake_stdout>:
	...
    29c4:	2b302d23 6c680020 6665004c 47464567     #-0+ .hlL.efgEFG
    29d4:	32313000 36353433 41393837 45444342     .0123456789ABCDE
    29e4:	31300046 35343332 39383736 64636261     F.0123456789abcd
    29f4:	00006665                                ef..

000029f8 <_init>:
    29f8:	b5f8      	push	{r3, r4, r5, r6, r7, lr}
    29fa:	46c0      	nop			; (mov r8, r8)
    29fc:	bcf8      	pop	{r3, r4, r5, r6, r7}
    29fe:	bc08      	pop	{r3}
    2a00:	469e      	mov	lr, r3
    2a02:	4770      	bx	lr

00002a04 <__init_array_start>:
    2a04:	000000dd 	.word	0x000000dd

00002a08 <_fini>:
    2a08:	b5f8      	push	{r3, r4, r5, r6, r7, lr}
    2a0a:	46c0      	nop			; (mov r8, r8)
    2a0c:	bcf8      	pop	{r3, r4, r5, r6, r7}
    2a0e:	bc08      	pop	{r3}
    2a10:	469e      	mov	lr, r3
    2a12:	4770      	bx	lr

00002a14 <__fini_array_start>:
    2a14:	000000b5 	.word	0x000000b5
