
GccBoardProject1.elf:     file format elf32-littlearm

Sections:
Idx Name          Size      VMA       LMA       File off  Algn
  0 .text         00003860  00000000  00000000  00010000  2**2
                  CONTENTS, ALLOC, LOAD, READONLY, CODE
  1 .relocate     000001d4  20000000  00003860  00020000  2**2
                  CONTENTS, ALLOC, LOAD, DATA
  2 .bss          000000c8  200001d4  00003a34  000201d4  2**2
                  ALLOC
  3 .stack        00002004  2000029c  00003afc  000201d4  2**0
                  ALLOC
  4 .ARM.attributes 00000028  00000000  00000000  000201d4  2**0
                  CONTENTS, READONLY
  5 .comment      00000059  00000000  00000000  000201fc  2**0
                  CONTENTS, READONLY
  6 .debug_info   0002182e  00000000  00000000  00020255  2**0
                  CONTENTS, READONLY, DEBUGGING
  7 .debug_abbrev 000031a9  00000000  00000000  00041a83  2**0
                  CONTENTS, READONLY, DEBUGGING
  8 .debug_loc    000040aa  00000000  00000000  00044c2c  2**0
                  CONTENTS, READONLY, DEBUGGING
  9 .debug_aranges 00000440  00000000  00000000  00048cd6  2**0
                  CONTENTS, READONLY, DEBUGGING
 10 .debug_ranges 00000480  00000000  00000000  00049116  2**0
                  CONTENTS, READONLY, DEBUGGING
 11 .debug_macro  000197ab  00000000  00000000  00049596  2**0
                  CONTENTS, READONLY, DEBUGGING
 12 .debug_line   0000a192  00000000  00000000  00062d41  2**0
                  CONTENTS, READONLY, DEBUGGING
 13 .debug_str    00088d12  00000000  00000000  0006ced3  2**0
                  CONTENTS, READONLY, DEBUGGING
 14 .debug_frame  00001604  00000000  00000000  000f5be8  2**2
                  CONTENTS, READONLY, DEBUGGING

Disassembly of section .text:

00000000 <exception_table>:
       0:	a0 22 00 20 41 14 00 00 3d 14 00 00 3d 14 00 00     .". A...=...=...
	...
      2c:	3d 14 00 00 00 00 00 00 00 00 00 00 3d 14 00 00     =...........=...
      3c:	3d 14 00 00 3d 14 00 00 3d 14 00 00 3d 14 00 00     =...=...=...=...
      4c:	3d 14 00 00 3d 14 00 00 3d 14 00 00 3d 14 00 00     =...=...=...=...
      5c:	3d 14 00 00 3d 14 00 00 75 0b 00 00 85 0b 00 00     =...=...u.......
      6c:	95 0b 00 00 a5 0b 00 00 b5 0b 00 00 c5 0b 00 00     ................
      7c:	3d 14 00 00 3d 14 00 00 3d 14 00 00 3d 14 00 00     =...=...=...=...
      8c:	3d 14 00 00 3d 14 00 00 00 00 00 00 00 00 00 00     =...=...........
      9c:	3d 14 00 00 3d 14 00 00 3d 14 00 00 3d 14 00 00     =...=...=...=...
      ac:	3d 14 00 00 00 00 00 00                             =.......

000000b4 <__do_global_dtors_aux>:
      b4:	b510      	push	{r4, lr}
      b6:	4c06      	ldr	r4, [pc, #24]	; (d0 <__do_global_dtors_aux+0x1c>)
      b8:	7823      	ldrb	r3, [r4, #0]
      ba:	2b00      	cmp	r3, #0
      bc:	d107      	bne.n	ce <__do_global_dtors_aux+0x1a>
      be:	4b05      	ldr	r3, [pc, #20]	; (d4 <__do_global_dtors_aux+0x20>)
      c0:	2b00      	cmp	r3, #0
      c2:	d002      	beq.n	ca <__do_global_dtors_aux+0x16>
      c4:	4804      	ldr	r0, [pc, #16]	; (d8 <__do_global_dtors_aux+0x24>)
      c6:	e000      	b.n	ca <__do_global_dtors_aux+0x16>
      c8:	bf00      	nop
      ca:	2301      	movs	r3, #1
      cc:	7023      	strb	r3, [r4, #0]
      ce:	bd10      	pop	{r4, pc}
      d0:	200001d4 	.word	0x200001d4
      d4:	00000000 	.word	0x00000000
      d8:	00003860 	.word	0x00003860

000000dc <frame_dummy>:
      dc:	4b08      	ldr	r3, [pc, #32]	; (100 <frame_dummy+0x24>)
      de:	b510      	push	{r4, lr}
      e0:	2b00      	cmp	r3, #0
      e2:	d003      	beq.n	ec <frame_dummy+0x10>
      e4:	4907      	ldr	r1, [pc, #28]	; (104 <frame_dummy+0x28>)
      e6:	4808      	ldr	r0, [pc, #32]	; (108 <frame_dummy+0x2c>)
      e8:	e000      	b.n	ec <frame_dummy+0x10>
      ea:	bf00      	nop
      ec:	4807      	ldr	r0, [pc, #28]	; (10c <frame_dummy+0x30>)
      ee:	6803      	ldr	r3, [r0, #0]
      f0:	2b00      	cmp	r3, #0
      f2:	d100      	bne.n	f6 <frame_dummy+0x1a>
      f4:	bd10      	pop	{r4, pc}
      f6:	4b06      	ldr	r3, [pc, #24]	; (110 <frame_dummy+0x34>)
      f8:	2b00      	cmp	r3, #0
      fa:	d0fb      	beq.n	f4 <frame_dummy+0x18>
      fc:	4798      	blx	r3
      fe:	e7f9      	b.n	f4 <frame_dummy+0x18>
     100:	00000000 	.word	0x00000000
     104:	200001d8 	.word	0x200001d8
     108:	00003860 	.word	0x00003860
     10c:	00003860 	.word	0x00003860
     110:	00000000 	.word	0x00000000

00000114 <long_division>:
     114:	b5f0      	push	{r4, r5, r6, r7, lr}
     116:	46de      	mov	lr, fp
     118:	4657      	mov	r7, sl
     11a:	464e      	mov	r6, r9
     11c:	4645      	mov	r5, r8
     11e:	b5e0      	push	{r5, r6, r7, lr}
     120:	b087      	sub	sp, #28
     122:	4680      	mov	r8, r0
     124:	9104      	str	r1, [sp, #16]
     126:	0016      	movs	r6, r2
     128:	001f      	movs	r7, r3
     12a:	2200      	movs	r2, #0
     12c:	2300      	movs	r3, #0
     12e:	2100      	movs	r1, #0
     130:	468b      	mov	fp, r1
     132:	243f      	movs	r4, #63	; 0x3f
     134:	2001      	movs	r0, #1
     136:	0021      	movs	r1, r4
     138:	9600      	str	r6, [sp, #0]
     13a:	9701      	str	r7, [sp, #4]
     13c:	465c      	mov	r4, fp
     13e:	9403      	str	r4, [sp, #12]
     140:	4644      	mov	r4, r8
     142:	9405      	str	r4, [sp, #20]
     144:	e013      	b.n	16e <long_division+0x5a>
     146:	2420      	movs	r4, #32
     148:	1a64      	subs	r4, r4, r1
     14a:	0005      	movs	r5, r0
     14c:	40e5      	lsrs	r5, r4
     14e:	46a8      	mov	r8, r5
     150:	e014      	b.n	17c <long_division+0x68>
     152:	9c00      	ldr	r4, [sp, #0]
     154:	9d01      	ldr	r5, [sp, #4]
     156:	1b12      	subs	r2, r2, r4
     158:	41ab      	sbcs	r3, r5
     15a:	465c      	mov	r4, fp
     15c:	464d      	mov	r5, r9
     15e:	432c      	orrs	r4, r5
     160:	46a3      	mov	fp, r4
     162:	9c03      	ldr	r4, [sp, #12]
     164:	4645      	mov	r5, r8
     166:	432c      	orrs	r4, r5
     168:	9403      	str	r4, [sp, #12]
     16a:	3901      	subs	r1, #1
     16c:	d325      	bcc.n	1ba <long_division+0xa6>
     16e:	2420      	movs	r4, #32
     170:	4264      	negs	r4, r4
     172:	190c      	adds	r4, r1, r4
     174:	d4e7      	bmi.n	146 <long_division+0x32>
     176:	0005      	movs	r5, r0
     178:	40a5      	lsls	r5, r4
     17a:	46a8      	mov	r8, r5
     17c:	0004      	movs	r4, r0
     17e:	408c      	lsls	r4, r1
     180:	46a1      	mov	r9, r4
     182:	1892      	adds	r2, r2, r2
     184:	415b      	adcs	r3, r3
     186:	0014      	movs	r4, r2
     188:	001d      	movs	r5, r3
     18a:	9e05      	ldr	r6, [sp, #20]
     18c:	464f      	mov	r7, r9
     18e:	403e      	ands	r6, r7
     190:	46b4      	mov	ip, r6
     192:	9e04      	ldr	r6, [sp, #16]
     194:	4647      	mov	r7, r8
     196:	403e      	ands	r6, r7
     198:	46b2      	mov	sl, r6
     19a:	4666      	mov	r6, ip
     19c:	4657      	mov	r7, sl
     19e:	433e      	orrs	r6, r7
     1a0:	d003      	beq.n	1aa <long_division+0x96>
     1a2:	0006      	movs	r6, r0
     1a4:	4326      	orrs	r6, r4
     1a6:	0032      	movs	r2, r6
     1a8:	002b      	movs	r3, r5
     1aa:	9c00      	ldr	r4, [sp, #0]
     1ac:	9d01      	ldr	r5, [sp, #4]
     1ae:	429d      	cmp	r5, r3
     1b0:	d8db      	bhi.n	16a <long_division+0x56>
     1b2:	d1ce      	bne.n	152 <long_division+0x3e>
     1b4:	4294      	cmp	r4, r2
     1b6:	d8d8      	bhi.n	16a <long_division+0x56>
     1b8:	e7cb      	b.n	152 <long_division+0x3e>
     1ba:	9b03      	ldr	r3, [sp, #12]
     1bc:	4658      	mov	r0, fp
     1be:	0019      	movs	r1, r3
     1c0:	b007      	add	sp, #28
     1c2:	bc3c      	pop	{r2, r3, r4, r5}
     1c4:	4690      	mov	r8, r2
     1c6:	4699      	mov	r9, r3
     1c8:	46a2      	mov	sl, r4
     1ca:	46ab      	mov	fp, r5
     1cc:	bdf0      	pop	{r4, r5, r6, r7, pc}

000001ce <_sercom_get_sync_baud_val>:
     1ce:	b510      	push	{r4, lr}
     1d0:	0849      	lsrs	r1, r1, #1
     1d2:	2340      	movs	r3, #64	; 0x40
     1d4:	2400      	movs	r4, #0
     1d6:	4281      	cmp	r1, r0
     1d8:	d202      	bcs.n	1e0 <_sercom_get_sync_baud_val+0x12>
     1da:	0018      	movs	r0, r3
     1dc:	bd10      	pop	{r4, pc}
     1de:	001c      	movs	r4, r3
     1e0:	1a09      	subs	r1, r1, r0
     1e2:	1c63      	adds	r3, r4, #1
     1e4:	b29b      	uxth	r3, r3
     1e6:	4288      	cmp	r0, r1
     1e8:	d9f9      	bls.n	1de <_sercom_get_sync_baud_val+0x10>
     1ea:	2340      	movs	r3, #64	; 0x40
     1ec:	2cff      	cmp	r4, #255	; 0xff
     1ee:	d8f4      	bhi.n	1da <_sercom_get_sync_baud_val+0xc>
     1f0:	8014      	strh	r4, [r2, #0]
     1f2:	2300      	movs	r3, #0
     1f4:	e7f1      	b.n	1da <_sercom_get_sync_baud_val+0xc>
	...

000001f8 <_sercom_get_async_baud_val>:
     1f8:	b5f0      	push	{r4, r5, r6, r7, lr}
     1fa:	b083      	sub	sp, #12
     1fc:	000f      	movs	r7, r1
     1fe:	0016      	movs	r6, r2
     200:	aa08      	add	r2, sp, #32
     202:	7811      	ldrb	r1, [r2, #0]
     204:	0004      	movs	r4, r0
     206:	434c      	muls	r4, r1
     208:	2240      	movs	r2, #64	; 0x40
     20a:	42bc      	cmp	r4, r7
     20c:	d902      	bls.n	214 <_sercom_get_async_baud_val+0x1c>
     20e:	0010      	movs	r0, r2
     210:	b003      	add	sp, #12
     212:	bdf0      	pop	{r4, r5, r6, r7, pc}
     214:	2b00      	cmp	r3, #0
     216:	d114      	bne.n	242 <_sercom_get_async_baud_val+0x4a>
     218:	0002      	movs	r2, r0
     21a:	0008      	movs	r0, r1
     21c:	2100      	movs	r1, #0
     21e:	4c19      	ldr	r4, [pc, #100]	; (284 <_sercom_get_async_baud_val+0x8c>)
     220:	47a0      	blx	r4
     222:	0001      	movs	r1, r0
     224:	003a      	movs	r2, r7
     226:	2300      	movs	r3, #0
     228:	2000      	movs	r0, #0
     22a:	4c17      	ldr	r4, [pc, #92]	; (288 <_sercom_get_async_baud_val+0x90>)
     22c:	47a0      	blx	r4
     22e:	2200      	movs	r2, #0
     230:	2301      	movs	r3, #1
     232:	1a12      	subs	r2, r2, r0
     234:	418b      	sbcs	r3, r1
     236:	0c12      	lsrs	r2, r2, #16
     238:	041b      	lsls	r3, r3, #16
     23a:	431a      	orrs	r2, r3
     23c:	8032      	strh	r2, [r6, #0]
     23e:	2200      	movs	r2, #0
     240:	e7e5      	b.n	20e <_sercom_get_async_baud_val+0x16>
     242:	2200      	movs	r2, #0
     244:	2b01      	cmp	r3, #1
     246:	d1f9      	bne.n	23c <_sercom_get_async_baud_val+0x44>
     248:	000a      	movs	r2, r1
     24a:	2300      	movs	r3, #0
     24c:	2100      	movs	r1, #0
     24e:	4c0d      	ldr	r4, [pc, #52]	; (284 <_sercom_get_async_baud_val+0x8c>)
     250:	47a0      	blx	r4
     252:	0002      	movs	r2, r0
     254:	000b      	movs	r3, r1
     256:	9200      	str	r2, [sp, #0]
     258:	9301      	str	r3, [sp, #4]
     25a:	0038      	movs	r0, r7
     25c:	2100      	movs	r1, #0
     25e:	4c0a      	ldr	r4, [pc, #40]	; (288 <_sercom_get_async_baud_val+0x90>)
     260:	47a0      	blx	r4
     262:	0005      	movs	r5, r0
     264:	2380      	movs	r3, #128	; 0x80
     266:	019b      	lsls	r3, r3, #6
     268:	2240      	movs	r2, #64	; 0x40
     26a:	4298      	cmp	r0, r3
     26c:	d8cf      	bhi.n	20e <_sercom_get_async_baud_val+0x16>
     26e:	0f79      	lsrs	r1, r7, #29
     270:	00f8      	lsls	r0, r7, #3
     272:	9a00      	ldr	r2, [sp, #0]
     274:	9b01      	ldr	r3, [sp, #4]
     276:	47a0      	blx	r4
     278:	00ea      	lsls	r2, r5, #3
     27a:	1a82      	subs	r2, r0, r2
     27c:	b2d2      	uxtb	r2, r2
     27e:	0352      	lsls	r2, r2, #13
     280:	432a      	orrs	r2, r5
     282:	e7db      	b.n	23c <_sercom_get_async_baud_val+0x44>
     284:	0000187d 	.word	0x0000187d
     288:	00000115 	.word	0x00000115

0000028c <sercom_set_gclk_generator>:
     28c:	b510      	push	{r4, lr}
     28e:	b082      	sub	sp, #8
     290:	0004      	movs	r4, r0
     292:	4b0e      	ldr	r3, [pc, #56]	; (2cc <sercom_set_gclk_generator+0x40>)
     294:	781b      	ldrb	r3, [r3, #0]
     296:	2b00      	cmp	r3, #0
     298:	d007      	beq.n	2aa <sercom_set_gclk_generator+0x1e>
     29a:	2900      	cmp	r1, #0
     29c:	d105      	bne.n	2aa <sercom_set_gclk_generator+0x1e>
     29e:	4b0b      	ldr	r3, [pc, #44]	; (2cc <sercom_set_gclk_generator+0x40>)
     2a0:	785b      	ldrb	r3, [r3, #1]
     2a2:	4283      	cmp	r3, r0
     2a4:	d010      	beq.n	2c8 <sercom_set_gclk_generator+0x3c>
     2a6:	201d      	movs	r0, #29
     2a8:	e00c      	b.n	2c4 <sercom_set_gclk_generator+0x38>
     2aa:	a901      	add	r1, sp, #4
     2ac:	700c      	strb	r4, [r1, #0]
     2ae:	2013      	movs	r0, #19
     2b0:	4b07      	ldr	r3, [pc, #28]	; (2d0 <sercom_set_gclk_generator+0x44>)
     2b2:	4798      	blx	r3
     2b4:	2013      	movs	r0, #19
     2b6:	4b07      	ldr	r3, [pc, #28]	; (2d4 <sercom_set_gclk_generator+0x48>)
     2b8:	4798      	blx	r3
     2ba:	4b04      	ldr	r3, [pc, #16]	; (2cc <sercom_set_gclk_generator+0x40>)
     2bc:	705c      	strb	r4, [r3, #1]
     2be:	2201      	movs	r2, #1
     2c0:	701a      	strb	r2, [r3, #0]
     2c2:	2000      	movs	r0, #0
     2c4:	b002      	add	sp, #8
     2c6:	bd10      	pop	{r4, pc}
     2c8:	2000      	movs	r0, #0
     2ca:	e7fb      	b.n	2c4 <sercom_set_gclk_generator+0x38>
     2cc:	200001f0 	.word	0x200001f0
     2d0:	000012e5 	.word	0x000012e5
     2d4:	00001259 	.word	0x00001259

000002d8 <_sercom_get_default_pad>:
     2d8:	4b40      	ldr	r3, [pc, #256]	; (3dc <_sercom_get_default_pad+0x104>)
     2da:	4298      	cmp	r0, r3
     2dc:	d031      	beq.n	342 <_sercom_get_default_pad+0x6a>
     2de:	d90a      	bls.n	2f6 <_sercom_get_default_pad+0x1e>
     2e0:	4b3f      	ldr	r3, [pc, #252]	; (3e0 <_sercom_get_default_pad+0x108>)
     2e2:	4298      	cmp	r0, r3
     2e4:	d04d      	beq.n	382 <_sercom_get_default_pad+0xaa>
     2e6:	4b3f      	ldr	r3, [pc, #252]	; (3e4 <_sercom_get_default_pad+0x10c>)
     2e8:	4298      	cmp	r0, r3
     2ea:	d05a      	beq.n	3a2 <_sercom_get_default_pad+0xca>
     2ec:	4b3e      	ldr	r3, [pc, #248]	; (3e8 <_sercom_get_default_pad+0x110>)
     2ee:	4298      	cmp	r0, r3
     2f0:	d037      	beq.n	362 <_sercom_get_default_pad+0x8a>
     2f2:	2000      	movs	r0, #0
     2f4:	4770      	bx	lr
     2f6:	4b3d      	ldr	r3, [pc, #244]	; (3ec <_sercom_get_default_pad+0x114>)
     2f8:	4298      	cmp	r0, r3
     2fa:	d00c      	beq.n	316 <_sercom_get_default_pad+0x3e>
     2fc:	4b3c      	ldr	r3, [pc, #240]	; (3f0 <_sercom_get_default_pad+0x118>)
     2fe:	4298      	cmp	r0, r3
     300:	d1f7      	bne.n	2f2 <_sercom_get_default_pad+0x1a>
     302:	2901      	cmp	r1, #1
     304:	d017      	beq.n	336 <_sercom_get_default_pad+0x5e>
     306:	2900      	cmp	r1, #0
     308:	d05d      	beq.n	3c6 <_sercom_get_default_pad+0xee>
     30a:	2902      	cmp	r1, #2
     30c:	d015      	beq.n	33a <_sercom_get_default_pad+0x62>
     30e:	2903      	cmp	r1, #3
     310:	d015      	beq.n	33e <_sercom_get_default_pad+0x66>
     312:	2000      	movs	r0, #0
     314:	e7ee      	b.n	2f4 <_sercom_get_default_pad+0x1c>
     316:	2901      	cmp	r1, #1
     318:	d007      	beq.n	32a <_sercom_get_default_pad+0x52>
     31a:	2900      	cmp	r1, #0
     31c:	d051      	beq.n	3c2 <_sercom_get_default_pad+0xea>
     31e:	2902      	cmp	r1, #2
     320:	d005      	beq.n	32e <_sercom_get_default_pad+0x56>
     322:	2903      	cmp	r1, #3
     324:	d005      	beq.n	332 <_sercom_get_default_pad+0x5a>
     326:	2000      	movs	r0, #0
     328:	e7e4      	b.n	2f4 <_sercom_get_default_pad+0x1c>
     32a:	4832      	ldr	r0, [pc, #200]	; (3f4 <_sercom_get_default_pad+0x11c>)
     32c:	e7e2      	b.n	2f4 <_sercom_get_default_pad+0x1c>
     32e:	4832      	ldr	r0, [pc, #200]	; (3f8 <_sercom_get_default_pad+0x120>)
     330:	e7e0      	b.n	2f4 <_sercom_get_default_pad+0x1c>
     332:	4832      	ldr	r0, [pc, #200]	; (3fc <_sercom_get_default_pad+0x124>)
     334:	e7de      	b.n	2f4 <_sercom_get_default_pad+0x1c>
     336:	4832      	ldr	r0, [pc, #200]	; (400 <_sercom_get_default_pad+0x128>)
     338:	e7dc      	b.n	2f4 <_sercom_get_default_pad+0x1c>
     33a:	4832      	ldr	r0, [pc, #200]	; (404 <_sercom_get_default_pad+0x12c>)
     33c:	e7da      	b.n	2f4 <_sercom_get_default_pad+0x1c>
     33e:	4832      	ldr	r0, [pc, #200]	; (408 <_sercom_get_default_pad+0x130>)
     340:	e7d8      	b.n	2f4 <_sercom_get_default_pad+0x1c>
     342:	2901      	cmp	r1, #1
     344:	d007      	beq.n	356 <_sercom_get_default_pad+0x7e>
     346:	2900      	cmp	r1, #0
     348:	d03f      	beq.n	3ca <_sercom_get_default_pad+0xf2>
     34a:	2902      	cmp	r1, #2
     34c:	d005      	beq.n	35a <_sercom_get_default_pad+0x82>
     34e:	2903      	cmp	r1, #3
     350:	d005      	beq.n	35e <_sercom_get_default_pad+0x86>
     352:	2000      	movs	r0, #0
     354:	e7ce      	b.n	2f4 <_sercom_get_default_pad+0x1c>
     356:	482d      	ldr	r0, [pc, #180]	; (40c <_sercom_get_default_pad+0x134>)
     358:	e7cc      	b.n	2f4 <_sercom_get_default_pad+0x1c>
     35a:	482d      	ldr	r0, [pc, #180]	; (410 <_sercom_get_default_pad+0x138>)
     35c:	e7ca      	b.n	2f4 <_sercom_get_default_pad+0x1c>
     35e:	482d      	ldr	r0, [pc, #180]	; (414 <_sercom_get_default_pad+0x13c>)
     360:	e7c8      	b.n	2f4 <_sercom_get_default_pad+0x1c>
     362:	2901      	cmp	r1, #1
     364:	d007      	beq.n	376 <_sercom_get_default_pad+0x9e>
     366:	2900      	cmp	r1, #0
     368:	d031      	beq.n	3ce <_sercom_get_default_pad+0xf6>
     36a:	2902      	cmp	r1, #2
     36c:	d005      	beq.n	37a <_sercom_get_default_pad+0xa2>
     36e:	2903      	cmp	r1, #3
     370:	d005      	beq.n	37e <_sercom_get_default_pad+0xa6>
     372:	2000      	movs	r0, #0
     374:	e7be      	b.n	2f4 <_sercom_get_default_pad+0x1c>
     376:	4828      	ldr	r0, [pc, #160]	; (418 <_sercom_get_default_pad+0x140>)
     378:	e7bc      	b.n	2f4 <_sercom_get_default_pad+0x1c>
     37a:	4828      	ldr	r0, [pc, #160]	; (41c <_sercom_get_default_pad+0x144>)
     37c:	e7ba      	b.n	2f4 <_sercom_get_default_pad+0x1c>
     37e:	4828      	ldr	r0, [pc, #160]	; (420 <_sercom_get_default_pad+0x148>)
     380:	e7b8      	b.n	2f4 <_sercom_get_default_pad+0x1c>
     382:	2901      	cmp	r1, #1
     384:	d007      	beq.n	396 <_sercom_get_default_pad+0xbe>
     386:	2900      	cmp	r1, #0
     388:	d023      	beq.n	3d2 <_sercom_get_default_pad+0xfa>
     38a:	2902      	cmp	r1, #2
     38c:	d005      	beq.n	39a <_sercom_get_default_pad+0xc2>
     38e:	2903      	cmp	r1, #3
     390:	d005      	beq.n	39e <_sercom_get_default_pad+0xc6>
     392:	2000      	movs	r0, #0
     394:	e7ae      	b.n	2f4 <_sercom_get_default_pad+0x1c>
     396:	4823      	ldr	r0, [pc, #140]	; (424 <_sercom_get_default_pad+0x14c>)
     398:	e7ac      	b.n	2f4 <_sercom_get_default_pad+0x1c>
     39a:	4823      	ldr	r0, [pc, #140]	; (428 <_sercom_get_default_pad+0x150>)
     39c:	e7aa      	b.n	2f4 <_sercom_get_default_pad+0x1c>
     39e:	4823      	ldr	r0, [pc, #140]	; (42c <_sercom_get_default_pad+0x154>)
     3a0:	e7a8      	b.n	2f4 <_sercom_get_default_pad+0x1c>
     3a2:	2901      	cmp	r1, #1
     3a4:	d007      	beq.n	3b6 <_sercom_get_default_pad+0xde>
     3a6:	2900      	cmp	r1, #0
     3a8:	d015      	beq.n	3d6 <_sercom_get_default_pad+0xfe>
     3aa:	2902      	cmp	r1, #2
     3ac:	d005      	beq.n	3ba <_sercom_get_default_pad+0xe2>
     3ae:	2903      	cmp	r1, #3
     3b0:	d005      	beq.n	3be <_sercom_get_default_pad+0xe6>
     3b2:	2000      	movs	r0, #0
     3b4:	e79e      	b.n	2f4 <_sercom_get_default_pad+0x1c>
     3b6:	481e      	ldr	r0, [pc, #120]	; (430 <_sercom_get_default_pad+0x158>)
     3b8:	e79c      	b.n	2f4 <_sercom_get_default_pad+0x1c>
     3ba:	481e      	ldr	r0, [pc, #120]	; (434 <_sercom_get_default_pad+0x15c>)
     3bc:	e79a      	b.n	2f4 <_sercom_get_default_pad+0x1c>
     3be:	481e      	ldr	r0, [pc, #120]	; (438 <_sercom_get_default_pad+0x160>)
     3c0:	e798      	b.n	2f4 <_sercom_get_default_pad+0x1c>
     3c2:	481e      	ldr	r0, [pc, #120]	; (43c <_sercom_get_default_pad+0x164>)
     3c4:	e796      	b.n	2f4 <_sercom_get_default_pad+0x1c>
     3c6:	2003      	movs	r0, #3
     3c8:	e794      	b.n	2f4 <_sercom_get_default_pad+0x1c>
     3ca:	481d      	ldr	r0, [pc, #116]	; (440 <_sercom_get_default_pad+0x168>)
     3cc:	e792      	b.n	2f4 <_sercom_get_default_pad+0x1c>
     3ce:	481d      	ldr	r0, [pc, #116]	; (444 <_sercom_get_default_pad+0x16c>)
     3d0:	e790      	b.n	2f4 <_sercom_get_default_pad+0x1c>
     3d2:	481d      	ldr	r0, [pc, #116]	; (448 <_sercom_get_default_pad+0x170>)
     3d4:	e78e      	b.n	2f4 <_sercom_get_default_pad+0x1c>
     3d6:	481d      	ldr	r0, [pc, #116]	; (44c <_sercom_get_default_pad+0x174>)
     3d8:	e78c      	b.n	2f4 <_sercom_get_default_pad+0x1c>
     3da:	46c0      	nop			; (mov r8, r8)
     3dc:	42001000 	.word	0x42001000
     3e0:	42001800 	.word	0x42001800
     3e4:	42001c00 	.word	0x42001c00
     3e8:	42001400 	.word	0x42001400
     3ec:	42000800 	.word	0x42000800
     3f0:	42000c00 	.word	0x42000c00
     3f4:	00050003 	.word	0x00050003
     3f8:	00060003 	.word	0x00060003
     3fc:	00070003 	.word	0x00070003
     400:	00010003 	.word	0x00010003
     404:	001e0003 	.word	0x001e0003
     408:	001f0003 	.word	0x001f0003
     40c:	00090003 	.word	0x00090003
     410:	000a0003 	.word	0x000a0003
     414:	000b0003 	.word	0x000b0003
     418:	00110003 	.word	0x00110003
     41c:	00120003 	.word	0x00120003
     420:	00130003 	.word	0x00130003
     424:	000d0003 	.word	0x000d0003
     428:	000e0003 	.word	0x000e0003
     42c:	000f0003 	.word	0x000f0003
     430:	00170003 	.word	0x00170003
     434:	00180003 	.word	0x00180003
     438:	00190003 	.word	0x00190003
     43c:	00040003 	.word	0x00040003
     440:	00080003 	.word	0x00080003
     444:	00100003 	.word	0x00100003
     448:	000c0003 	.word	0x000c0003
     44c:	00160003 	.word	0x00160003

00000450 <_sercom_get_sercom_inst_index>:
     450:	b530      	push	{r4, r5, lr}
     452:	b087      	sub	sp, #28
     454:	4b0b      	ldr	r3, [pc, #44]	; (484 <_sercom_get_sercom_inst_index+0x34>)
     456:	466a      	mov	r2, sp
     458:	cb32      	ldmia	r3!, {r1, r4, r5}
     45a:	c232      	stmia	r2!, {r1, r4, r5}
     45c:	cb32      	ldmia	r3!, {r1, r4, r5}
     45e:	c232      	stmia	r2!, {r1, r4, r5}
     460:	9b00      	ldr	r3, [sp, #0]
     462:	4283      	cmp	r3, r0
     464:	d00b      	beq.n	47e <_sercom_get_sercom_inst_index+0x2e>
     466:	2301      	movs	r3, #1
     468:	009a      	lsls	r2, r3, #2
     46a:	4669      	mov	r1, sp
     46c:	5852      	ldr	r2, [r2, r1]
     46e:	4282      	cmp	r2, r0
     470:	d006      	beq.n	480 <_sercom_get_sercom_inst_index+0x30>
     472:	3301      	adds	r3, #1
     474:	2b06      	cmp	r3, #6
     476:	d1f7      	bne.n	468 <_sercom_get_sercom_inst_index+0x18>
     478:	2000      	movs	r0, #0
     47a:	b007      	add	sp, #28
     47c:	bd30      	pop	{r4, r5, pc}
     47e:	2300      	movs	r3, #0
     480:	b2d8      	uxtb	r0, r3
     482:	e7fa      	b.n	47a <_sercom_get_sercom_inst_index+0x2a>
     484:	000035e8 	.word	0x000035e8

00000488 <_read>:
     488:	b5f0      	push	{r4, r5, r6, r7, lr}
     48a:	46c6      	mov	lr, r8
     48c:	b500      	push	{lr}
     48e:	000c      	movs	r4, r1
     490:	4690      	mov	r8, r2
     492:	2800      	cmp	r0, #0
     494:	d10f      	bne.n	4b6 <_read+0x2e>
     496:	2a00      	cmp	r2, #0
     498:	dd11      	ble.n	4be <_read+0x36>
     49a:	188f      	adds	r7, r1, r2
     49c:	4e09      	ldr	r6, [pc, #36]	; (4c4 <_read+0x3c>)
     49e:	4d0a      	ldr	r5, [pc, #40]	; (4c8 <_read+0x40>)
     4a0:	6830      	ldr	r0, [r6, #0]
     4a2:	0021      	movs	r1, r4
     4a4:	682b      	ldr	r3, [r5, #0]
     4a6:	4798      	blx	r3
     4a8:	3401      	adds	r4, #1
     4aa:	42bc      	cmp	r4, r7
     4ac:	d1f8      	bne.n	4a0 <_read+0x18>
     4ae:	4640      	mov	r0, r8
     4b0:	bc04      	pop	{r2}
     4b2:	4690      	mov	r8, r2
     4b4:	bdf0      	pop	{r4, r5, r6, r7, pc}
     4b6:	2301      	movs	r3, #1
     4b8:	425b      	negs	r3, r3
     4ba:	4698      	mov	r8, r3
     4bc:	e7f7      	b.n	4ae <_read+0x26>
     4be:	4680      	mov	r8, r0
     4c0:	e7f5      	b.n	4ae <_read+0x26>
     4c2:	46c0      	nop			; (mov r8, r8)
     4c4:	20000240 	.word	0x20000240
     4c8:	20000238 	.word	0x20000238

000004cc <_write>:
     4cc:	b5f0      	push	{r4, r5, r6, r7, lr}
     4ce:	46c6      	mov	lr, r8
     4d0:	b500      	push	{lr}
     4d2:	000e      	movs	r6, r1
     4d4:	0015      	movs	r5, r2
     4d6:	3801      	subs	r0, #1
     4d8:	2802      	cmp	r0, #2
     4da:	d810      	bhi.n	4fe <_write+0x32>
     4dc:	2a00      	cmp	r2, #0
     4de:	d011      	beq.n	504 <_write+0x38>
     4e0:	2400      	movs	r4, #0
     4e2:	4b0c      	ldr	r3, [pc, #48]	; (514 <_write+0x48>)
     4e4:	4698      	mov	r8, r3
     4e6:	4f0c      	ldr	r7, [pc, #48]	; (518 <_write+0x4c>)
     4e8:	4643      	mov	r3, r8
     4ea:	6818      	ldr	r0, [r3, #0]
     4ec:	5d31      	ldrb	r1, [r6, r4]
     4ee:	683b      	ldr	r3, [r7, #0]
     4f0:	4798      	blx	r3
     4f2:	2800      	cmp	r0, #0
     4f4:	db08      	blt.n	508 <_write+0x3c>
     4f6:	3401      	adds	r4, #1
     4f8:	42a5      	cmp	r5, r4
     4fa:	d1f5      	bne.n	4e8 <_write+0x1c>
     4fc:	e006      	b.n	50c <_write+0x40>
     4fe:	2401      	movs	r4, #1
     500:	4264      	negs	r4, r4
     502:	e003      	b.n	50c <_write+0x40>
     504:	0014      	movs	r4, r2
     506:	e001      	b.n	50c <_write+0x40>
     508:	2401      	movs	r4, #1
     50a:	4264      	negs	r4, r4
     50c:	0020      	movs	r0, r4
     50e:	bc04      	pop	{r2}
     510:	4690      	mov	r8, r2
     512:	bdf0      	pop	{r4, r5, r6, r7, pc}
     514:	20000240 	.word	0x20000240
     518:	2000023c 	.word	0x2000023c

0000051c <usart_init>:
     51c:	b5f0      	push	{r4, r5, r6, r7, lr}
     51e:	46de      	mov	lr, fp
     520:	4657      	mov	r7, sl
     522:	464e      	mov	r6, r9
     524:	4645      	mov	r5, r8
     526:	b5e0      	push	{r5, r6, r7, lr}
     528:	b091      	sub	sp, #68	; 0x44
     52a:	0005      	movs	r5, r0
     52c:	000c      	movs	r4, r1
     52e:	0016      	movs	r6, r2
     530:	6029      	str	r1, [r5, #0]
     532:	0008      	movs	r0, r1
     534:	4bbc      	ldr	r3, [pc, #752]	; (828 <usart_init+0x30c>)
     536:	4798      	blx	r3
     538:	0002      	movs	r2, r0
     53a:	6823      	ldr	r3, [r4, #0]
     53c:	2005      	movs	r0, #5
     53e:	07db      	lsls	r3, r3, #31
     540:	d506      	bpl.n	550 <usart_init+0x34>
     542:	b011      	add	sp, #68	; 0x44
     544:	bc3c      	pop	{r2, r3, r4, r5}
     546:	4690      	mov	r8, r2
     548:	4699      	mov	r9, r3
     54a:	46a2      	mov	sl, r4
     54c:	46ab      	mov	fp, r5
     54e:	bdf0      	pop	{r4, r5, r6, r7, pc}
     550:	6823      	ldr	r3, [r4, #0]
     552:	3017      	adds	r0, #23
     554:	079b      	lsls	r3, r3, #30
     556:	d4f4      	bmi.n	542 <usart_init+0x26>
     558:	49b4      	ldr	r1, [pc, #720]	; (82c <usart_init+0x310>)
     55a:	6a08      	ldr	r0, [r1, #32]
     55c:	1c97      	adds	r7, r2, #2
     55e:	2301      	movs	r3, #1
     560:	40bb      	lsls	r3, r7
     562:	4303      	orrs	r3, r0
     564:	620b      	str	r3, [r1, #32]
     566:	a90f      	add	r1, sp, #60	; 0x3c
     568:	272d      	movs	r7, #45	; 0x2d
     56a:	5df3      	ldrb	r3, [r6, r7]
     56c:	700b      	strb	r3, [r1, #0]
     56e:	3214      	adds	r2, #20
     570:	b2d3      	uxtb	r3, r2
     572:	9302      	str	r3, [sp, #8]
     574:	0018      	movs	r0, r3
     576:	4bae      	ldr	r3, [pc, #696]	; (830 <usart_init+0x314>)
     578:	4798      	blx	r3
     57a:	9802      	ldr	r0, [sp, #8]
     57c:	4bad      	ldr	r3, [pc, #692]	; (834 <usart_init+0x318>)
     57e:	4798      	blx	r3
     580:	5df0      	ldrb	r0, [r6, r7]
     582:	2100      	movs	r1, #0
     584:	4bac      	ldr	r3, [pc, #688]	; (838 <usart_init+0x31c>)
     586:	4798      	blx	r3
     588:	7af3      	ldrb	r3, [r6, #11]
     58a:	716b      	strb	r3, [r5, #5]
     58c:	2324      	movs	r3, #36	; 0x24
     58e:	5cf3      	ldrb	r3, [r6, r3]
     590:	71ab      	strb	r3, [r5, #6]
     592:	2325      	movs	r3, #37	; 0x25
     594:	5cf3      	ldrb	r3, [r6, r3]
     596:	71eb      	strb	r3, [r5, #7]
     598:	7ef3      	ldrb	r3, [r6, #27]
     59a:	722b      	strb	r3, [r5, #8]
     59c:	7f33      	ldrb	r3, [r6, #28]
     59e:	726b      	strb	r3, [r5, #9]
     5a0:	682b      	ldr	r3, [r5, #0]
     5a2:	4698      	mov	r8, r3
     5a4:	0018      	movs	r0, r3
     5a6:	4ba0      	ldr	r3, [pc, #640]	; (828 <usart_init+0x30c>)
     5a8:	4798      	blx	r3
     5aa:	3014      	adds	r0, #20
     5ac:	2200      	movs	r2, #0
     5ae:	230e      	movs	r3, #14
     5b0:	a906      	add	r1, sp, #24
     5b2:	468c      	mov	ip, r1
     5b4:	4463      	add	r3, ip
     5b6:	801a      	strh	r2, [r3, #0]
     5b8:	8a32      	ldrh	r2, [r6, #16]
     5ba:	9202      	str	r2, [sp, #8]
     5bc:	2380      	movs	r3, #128	; 0x80
     5be:	01db      	lsls	r3, r3, #7
     5c0:	429a      	cmp	r2, r3
     5c2:	d100      	bne.n	5c6 <usart_init+0xaa>
     5c4:	e09e      	b.n	704 <usart_init+0x1e8>
     5c6:	d90f      	bls.n	5e8 <usart_init+0xcc>
     5c8:	23c0      	movs	r3, #192	; 0xc0
     5ca:	01db      	lsls	r3, r3, #7
     5cc:	9a02      	ldr	r2, [sp, #8]
     5ce:	429a      	cmp	r2, r3
     5d0:	d100      	bne.n	5d4 <usart_init+0xb8>
     5d2:	e092      	b.n	6fa <usart_init+0x1de>
     5d4:	2380      	movs	r3, #128	; 0x80
     5d6:	021b      	lsls	r3, r3, #8
     5d8:	429a      	cmp	r2, r3
     5da:	d000      	beq.n	5de <usart_init+0xc2>
     5dc:	e11f      	b.n	81e <usart_init+0x302>
     5de:	2303      	movs	r3, #3
     5e0:	9306      	str	r3, [sp, #24]
     5e2:	2300      	movs	r3, #0
     5e4:	9307      	str	r3, [sp, #28]
     5e6:	e008      	b.n	5fa <usart_init+0xde>
     5e8:	2380      	movs	r3, #128	; 0x80
     5ea:	019b      	lsls	r3, r3, #6
     5ec:	429a      	cmp	r2, r3
     5ee:	d000      	beq.n	5f2 <usart_init+0xd6>
     5f0:	e115      	b.n	81e <usart_init+0x302>
     5f2:	2310      	movs	r3, #16
     5f4:	9306      	str	r3, [sp, #24]
     5f6:	3b0f      	subs	r3, #15
     5f8:	9307      	str	r3, [sp, #28]
     5fa:	6833      	ldr	r3, [r6, #0]
     5fc:	9305      	str	r3, [sp, #20]
     5fe:	68f3      	ldr	r3, [r6, #12]
     600:	9303      	str	r3, [sp, #12]
     602:	6973      	ldr	r3, [r6, #20]
     604:	9304      	str	r3, [sp, #16]
     606:	7e33      	ldrb	r3, [r6, #24]
     608:	469b      	mov	fp, r3
     60a:	2326      	movs	r3, #38	; 0x26
     60c:	5cf3      	ldrb	r3, [r6, r3]
     60e:	469a      	mov	sl, r3
     610:	6873      	ldr	r3, [r6, #4]
     612:	4699      	mov	r9, r3
     614:	2b00      	cmp	r3, #0
     616:	d100      	bne.n	61a <usart_init+0xfe>
     618:	e0a0      	b.n	75c <usart_init+0x240>
     61a:	2380      	movs	r3, #128	; 0x80
     61c:	055b      	lsls	r3, r3, #21
     61e:	4599      	cmp	r9, r3
     620:	d100      	bne.n	624 <usart_init+0x108>
     622:	e084      	b.n	72e <usart_init+0x212>
     624:	7e73      	ldrb	r3, [r6, #25]
     626:	2b00      	cmp	r3, #0
     628:	d002      	beq.n	630 <usart_init+0x114>
     62a:	7eb3      	ldrb	r3, [r6, #26]
     62c:	4642      	mov	r2, r8
     62e:	7393      	strb	r3, [r2, #14]
     630:	682a      	ldr	r2, [r5, #0]
     632:	9f02      	ldr	r7, [sp, #8]
     634:	69d3      	ldr	r3, [r2, #28]
     636:	2b00      	cmp	r3, #0
     638:	d1fc      	bne.n	634 <usart_init+0x118>
     63a:	330e      	adds	r3, #14
     63c:	aa06      	add	r2, sp, #24
     63e:	4694      	mov	ip, r2
     640:	4463      	add	r3, ip
     642:	881b      	ldrh	r3, [r3, #0]
     644:	4642      	mov	r2, r8
     646:	8193      	strh	r3, [r2, #12]
     648:	9b05      	ldr	r3, [sp, #20]
     64a:	9a03      	ldr	r2, [sp, #12]
     64c:	4313      	orrs	r3, r2
     64e:	9a04      	ldr	r2, [sp, #16]
     650:	4313      	orrs	r3, r2
     652:	464a      	mov	r2, r9
     654:	4313      	orrs	r3, r2
     656:	431f      	orrs	r7, r3
     658:	465b      	mov	r3, fp
     65a:	021b      	lsls	r3, r3, #8
     65c:	431f      	orrs	r7, r3
     65e:	4653      	mov	r3, sl
     660:	075b      	lsls	r3, r3, #29
     662:	431f      	orrs	r7, r3
     664:	2327      	movs	r3, #39	; 0x27
     666:	5cf3      	ldrb	r3, [r6, r3]
     668:	2b00      	cmp	r3, #0
     66a:	d101      	bne.n	670 <usart_init+0x154>
     66c:	3304      	adds	r3, #4
     66e:	431f      	orrs	r7, r3
     670:	7e73      	ldrb	r3, [r6, #25]
     672:	029b      	lsls	r3, r3, #10
     674:	7f32      	ldrb	r2, [r6, #28]
     676:	0252      	lsls	r2, r2, #9
     678:	4313      	orrs	r3, r2
     67a:	7f72      	ldrb	r2, [r6, #29]
     67c:	0212      	lsls	r2, r2, #8
     67e:	4313      	orrs	r3, r2
     680:	2224      	movs	r2, #36	; 0x24
     682:	5cb2      	ldrb	r2, [r6, r2]
     684:	0452      	lsls	r2, r2, #17
     686:	4313      	orrs	r3, r2
     688:	2225      	movs	r2, #37	; 0x25
     68a:	5cb2      	ldrb	r2, [r6, r2]
     68c:	0412      	lsls	r2, r2, #16
     68e:	4313      	orrs	r3, r2
     690:	7ab1      	ldrb	r1, [r6, #10]
     692:	7af2      	ldrb	r2, [r6, #11]
     694:	4311      	orrs	r1, r2
     696:	4319      	orrs	r1, r3
     698:	8933      	ldrh	r3, [r6, #8]
     69a:	2bff      	cmp	r3, #255	; 0xff
     69c:	d100      	bne.n	6a0 <usart_init+0x184>
     69e:	e081      	b.n	7a4 <usart_init+0x288>
     6a0:	2280      	movs	r2, #128	; 0x80
     6a2:	0452      	lsls	r2, r2, #17
     6a4:	4317      	orrs	r7, r2
     6a6:	4319      	orrs	r1, r3
     6a8:	232c      	movs	r3, #44	; 0x2c
     6aa:	5cf3      	ldrb	r3, [r6, r3]
     6ac:	2b00      	cmp	r3, #0
     6ae:	d103      	bne.n	6b8 <usart_init+0x19c>
     6b0:	4b62      	ldr	r3, [pc, #392]	; (83c <usart_init+0x320>)
     6b2:	789b      	ldrb	r3, [r3, #2]
     6b4:	079b      	lsls	r3, r3, #30
     6b6:	d501      	bpl.n	6bc <usart_init+0x1a0>
     6b8:	2380      	movs	r3, #128	; 0x80
     6ba:	431f      	orrs	r7, r3
     6bc:	682a      	ldr	r2, [r5, #0]
     6be:	69d3      	ldr	r3, [r2, #28]
     6c0:	2b00      	cmp	r3, #0
     6c2:	d1fc      	bne.n	6be <usart_init+0x1a2>
     6c4:	4643      	mov	r3, r8
     6c6:	6059      	str	r1, [r3, #4]
     6c8:	682a      	ldr	r2, [r5, #0]
     6ca:	69d3      	ldr	r3, [r2, #28]
     6cc:	2b00      	cmp	r3, #0
     6ce:	d1fc      	bne.n	6ca <usart_init+0x1ae>
     6d0:	4643      	mov	r3, r8
     6d2:	601f      	str	r7, [r3, #0]
     6d4:	ab0e      	add	r3, sp, #56	; 0x38
     6d6:	2280      	movs	r2, #128	; 0x80
     6d8:	701a      	strb	r2, [r3, #0]
     6da:	2200      	movs	r2, #0
     6dc:	705a      	strb	r2, [r3, #1]
     6de:	70da      	strb	r2, [r3, #3]
     6e0:	709a      	strb	r2, [r3, #2]
     6e2:	6b33      	ldr	r3, [r6, #48]	; 0x30
     6e4:	930a      	str	r3, [sp, #40]	; 0x28
     6e6:	6b73      	ldr	r3, [r6, #52]	; 0x34
     6e8:	930b      	str	r3, [sp, #44]	; 0x2c
     6ea:	6bb3      	ldr	r3, [r6, #56]	; 0x38
     6ec:	930c      	str	r3, [sp, #48]	; 0x30
     6ee:	6bf3      	ldr	r3, [r6, #60]	; 0x3c
     6f0:	9302      	str	r3, [sp, #8]
     6f2:	930d      	str	r3, [sp, #52]	; 0x34
     6f4:	2700      	movs	r7, #0
     6f6:	ae0a      	add	r6, sp, #40	; 0x28
     6f8:	e063      	b.n	7c2 <usart_init+0x2a6>
     6fa:	2308      	movs	r3, #8
     6fc:	9306      	str	r3, [sp, #24]
     6fe:	3b07      	subs	r3, #7
     700:	9307      	str	r3, [sp, #28]
     702:	e77a      	b.n	5fa <usart_init+0xde>
     704:	6833      	ldr	r3, [r6, #0]
     706:	9305      	str	r3, [sp, #20]
     708:	68f3      	ldr	r3, [r6, #12]
     70a:	9303      	str	r3, [sp, #12]
     70c:	6973      	ldr	r3, [r6, #20]
     70e:	9304      	str	r3, [sp, #16]
     710:	7e33      	ldrb	r3, [r6, #24]
     712:	469b      	mov	fp, r3
     714:	2326      	movs	r3, #38	; 0x26
     716:	5cf3      	ldrb	r3, [r6, r3]
     718:	469a      	mov	sl, r3
     71a:	6873      	ldr	r3, [r6, #4]
     71c:	4699      	mov	r9, r3
     71e:	2b00      	cmp	r3, #0
     720:	d018      	beq.n	754 <usart_init+0x238>
     722:	2380      	movs	r3, #128	; 0x80
     724:	055b      	lsls	r3, r3, #21
     726:	4599      	cmp	r9, r3
     728:	d001      	beq.n	72e <usart_init+0x212>
     72a:	2000      	movs	r0, #0
     72c:	e025      	b.n	77a <usart_init+0x25e>
     72e:	2327      	movs	r3, #39	; 0x27
     730:	5cf3      	ldrb	r3, [r6, r3]
     732:	2b00      	cmp	r3, #0
     734:	d000      	beq.n	738 <usart_init+0x21c>
     736:	e775      	b.n	624 <usart_init+0x108>
     738:	6a33      	ldr	r3, [r6, #32]
     73a:	001f      	movs	r7, r3
     73c:	b2c0      	uxtb	r0, r0
     73e:	4b40      	ldr	r3, [pc, #256]	; (840 <usart_init+0x324>)
     740:	4798      	blx	r3
     742:	0001      	movs	r1, r0
     744:	220e      	movs	r2, #14
     746:	ab06      	add	r3, sp, #24
     748:	469c      	mov	ip, r3
     74a:	4462      	add	r2, ip
     74c:	0038      	movs	r0, r7
     74e:	4b3d      	ldr	r3, [pc, #244]	; (844 <usart_init+0x328>)
     750:	4798      	blx	r3
     752:	e012      	b.n	77a <usart_init+0x25e>
     754:	2308      	movs	r3, #8
     756:	9306      	str	r3, [sp, #24]
     758:	2300      	movs	r3, #0
     75a:	9307      	str	r3, [sp, #28]
     75c:	2327      	movs	r3, #39	; 0x27
     75e:	5cf3      	ldrb	r3, [r6, r3]
     760:	2b00      	cmp	r3, #0
     762:	d00e      	beq.n	782 <usart_init+0x266>
     764:	9b06      	ldr	r3, [sp, #24]
     766:	9300      	str	r3, [sp, #0]
     768:	9b07      	ldr	r3, [sp, #28]
     76a:	220e      	movs	r2, #14
     76c:	a906      	add	r1, sp, #24
     76e:	468c      	mov	ip, r1
     770:	4462      	add	r2, ip
     772:	6ab1      	ldr	r1, [r6, #40]	; 0x28
     774:	6a30      	ldr	r0, [r6, #32]
     776:	4f34      	ldr	r7, [pc, #208]	; (848 <usart_init+0x32c>)
     778:	47b8      	blx	r7
     77a:	2800      	cmp	r0, #0
     77c:	d000      	beq.n	780 <usart_init+0x264>
     77e:	e6e0      	b.n	542 <usart_init+0x26>
     780:	e750      	b.n	624 <usart_init+0x108>
     782:	6a33      	ldr	r3, [r6, #32]
     784:	001f      	movs	r7, r3
     786:	b2c0      	uxtb	r0, r0
     788:	4b2d      	ldr	r3, [pc, #180]	; (840 <usart_init+0x324>)
     78a:	4798      	blx	r3
     78c:	0001      	movs	r1, r0
     78e:	9b06      	ldr	r3, [sp, #24]
     790:	9300      	str	r3, [sp, #0]
     792:	9b07      	ldr	r3, [sp, #28]
     794:	220e      	movs	r2, #14
     796:	a806      	add	r0, sp, #24
     798:	4684      	mov	ip, r0
     79a:	4462      	add	r2, ip
     79c:	0038      	movs	r0, r7
     79e:	4f2a      	ldr	r7, [pc, #168]	; (848 <usart_init+0x32c>)
     7a0:	47b8      	blx	r7
     7a2:	e7ea      	b.n	77a <usart_init+0x25e>
     7a4:	7ef3      	ldrb	r3, [r6, #27]
     7a6:	2b00      	cmp	r3, #0
     7a8:	d100      	bne.n	7ac <usart_init+0x290>
     7aa:	e77d      	b.n	6a8 <usart_init+0x18c>
     7ac:	2380      	movs	r3, #128	; 0x80
     7ae:	04db      	lsls	r3, r3, #19
     7b0:	431f      	orrs	r7, r3
     7b2:	e779      	b.n	6a8 <usart_init+0x18c>
     7b4:	0020      	movs	r0, r4
     7b6:	4b25      	ldr	r3, [pc, #148]	; (84c <usart_init+0x330>)
     7b8:	4798      	blx	r3
     7ba:	e007      	b.n	7cc <usart_init+0x2b0>
     7bc:	3701      	adds	r7, #1
     7be:	2f04      	cmp	r7, #4
     7c0:	d00d      	beq.n	7de <usart_init+0x2c2>
     7c2:	b2f9      	uxtb	r1, r7
     7c4:	00bb      	lsls	r3, r7, #2
     7c6:	5998      	ldr	r0, [r3, r6]
     7c8:	2800      	cmp	r0, #0
     7ca:	d0f3      	beq.n	7b4 <usart_init+0x298>
     7cc:	1c43      	adds	r3, r0, #1
     7ce:	d0f5      	beq.n	7bc <usart_init+0x2a0>
     7d0:	a90e      	add	r1, sp, #56	; 0x38
     7d2:	7008      	strb	r0, [r1, #0]
     7d4:	0c00      	lsrs	r0, r0, #16
     7d6:	b2c0      	uxtb	r0, r0
     7d8:	4b1d      	ldr	r3, [pc, #116]	; (850 <usart_init+0x334>)
     7da:	4798      	blx	r3
     7dc:	e7ee      	b.n	7bc <usart_init+0x2a0>
     7de:	2300      	movs	r3, #0
     7e0:	60eb      	str	r3, [r5, #12]
     7e2:	612b      	str	r3, [r5, #16]
     7e4:	616b      	str	r3, [r5, #20]
     7e6:	61ab      	str	r3, [r5, #24]
     7e8:	61eb      	str	r3, [r5, #28]
     7ea:	622b      	str	r3, [r5, #32]
     7ec:	62ab      	str	r3, [r5, #40]	; 0x28
     7ee:	626b      	str	r3, [r5, #36]	; 0x24
     7f0:	2200      	movs	r2, #0
     7f2:	85eb      	strh	r3, [r5, #46]	; 0x2e
     7f4:	85ab      	strh	r3, [r5, #44]	; 0x2c
     7f6:	3330      	adds	r3, #48	; 0x30
     7f8:	54ea      	strb	r2, [r5, r3]
     7fa:	3301      	adds	r3, #1
     7fc:	54ea      	strb	r2, [r5, r3]
     7fe:	3301      	adds	r3, #1
     800:	54ea      	strb	r2, [r5, r3]
     802:	3301      	adds	r3, #1
     804:	54ea      	strb	r2, [r5, r3]
     806:	6828      	ldr	r0, [r5, #0]
     808:	4b07      	ldr	r3, [pc, #28]	; (828 <usart_init+0x30c>)
     80a:	4798      	blx	r3
     80c:	0004      	movs	r4, r0
     80e:	4911      	ldr	r1, [pc, #68]	; (854 <usart_init+0x338>)
     810:	4b11      	ldr	r3, [pc, #68]	; (858 <usart_init+0x33c>)
     812:	4798      	blx	r3
     814:	00a4      	lsls	r4, r4, #2
     816:	4b11      	ldr	r3, [pc, #68]	; (85c <usart_init+0x340>)
     818:	50e5      	str	r5, [r4, r3]
     81a:	2000      	movs	r0, #0
     81c:	e691      	b.n	542 <usart_init+0x26>
     81e:	2310      	movs	r3, #16
     820:	9306      	str	r3, [sp, #24]
     822:	2300      	movs	r3, #0
     824:	9307      	str	r3, [sp, #28]
     826:	e6e8      	b.n	5fa <usart_init+0xde>
     828:	00000451 	.word	0x00000451
     82c:	40000400 	.word	0x40000400
     830:	000012e5 	.word	0x000012e5
     834:	00001259 	.word	0x00001259
     838:	0000028d 	.word	0x0000028d
     83c:	41002000 	.word	0x41002000
     840:	00001301 	.word	0x00001301
     844:	000001cf 	.word	0x000001cf
     848:	000001f9 	.word	0x000001f9
     84c:	000002d9 	.word	0x000002d9
     850:	000013dd 	.word	0x000013dd
     854:	00000971 	.word	0x00000971
     858:	00000b09 	.word	0x00000b09
     85c:	20000244 	.word	0x20000244

00000860 <usart_write_wait>:
     860:	79c2      	ldrb	r2, [r0, #7]
     862:	231c      	movs	r3, #28
     864:	2a00      	cmp	r2, #0
     866:	d101      	bne.n	86c <usart_write_wait+0xc>
     868:	0018      	movs	r0, r3
     86a:	4770      	bx	lr
     86c:	8dc2      	ldrh	r2, [r0, #46]	; 0x2e
     86e:	b292      	uxth	r2, r2
     870:	3b17      	subs	r3, #23
     872:	2a00      	cmp	r2, #0
     874:	d1f8      	bne.n	868 <usart_write_wait+0x8>
     876:	6803      	ldr	r3, [r0, #0]
     878:	69da      	ldr	r2, [r3, #28]
     87a:	2a00      	cmp	r2, #0
     87c:	d1fc      	bne.n	878 <usart_write_wait+0x18>
     87e:	8519      	strh	r1, [r3, #40]	; 0x28
     880:	2102      	movs	r1, #2
     882:	7e1a      	ldrb	r2, [r3, #24]
     884:	420a      	tst	r2, r1
     886:	d0fc      	beq.n	882 <usart_write_wait+0x22>
     888:	2300      	movs	r3, #0
     88a:	e7ed      	b.n	868 <usart_write_wait+0x8>

0000088c <usart_read_wait>:
     88c:	7982      	ldrb	r2, [r0, #6]
     88e:	231c      	movs	r3, #28
     890:	2a00      	cmp	r2, #0
     892:	d101      	bne.n	898 <usart_read_wait+0xc>
     894:	0018      	movs	r0, r3
     896:	4770      	bx	lr
     898:	8d82      	ldrh	r2, [r0, #44]	; 0x2c
     89a:	b292      	uxth	r2, r2
     89c:	3b17      	subs	r3, #23
     89e:	2a00      	cmp	r2, #0
     8a0:	d1f8      	bne.n	894 <usart_read_wait+0x8>
     8a2:	6802      	ldr	r2, [r0, #0]
     8a4:	7e10      	ldrb	r0, [r2, #24]
     8a6:	0740      	lsls	r0, r0, #29
     8a8:	d5f4      	bpl.n	894 <usart_read_wait+0x8>
     8aa:	69d3      	ldr	r3, [r2, #28]
     8ac:	2b00      	cmp	r3, #0
     8ae:	d1fc      	bne.n	8aa <usart_read_wait+0x1e>
     8b0:	8b53      	ldrh	r3, [r2, #26]
     8b2:	b2db      	uxtb	r3, r3
     8b4:	0698      	lsls	r0, r3, #26
     8b6:	d01d      	beq.n	8f4 <usart_read_wait+0x68>
     8b8:	0798      	lsls	r0, r3, #30
     8ba:	d503      	bpl.n	8c4 <usart_read_wait+0x38>
     8bc:	2302      	movs	r3, #2
     8be:	8353      	strh	r3, [r2, #26]
     8c0:	3318      	adds	r3, #24
     8c2:	e7e7      	b.n	894 <usart_read_wait+0x8>
     8c4:	0758      	lsls	r0, r3, #29
     8c6:	d503      	bpl.n	8d0 <usart_read_wait+0x44>
     8c8:	2304      	movs	r3, #4
     8ca:	8353      	strh	r3, [r2, #26]
     8cc:	331a      	adds	r3, #26
     8ce:	e7e1      	b.n	894 <usart_read_wait+0x8>
     8d0:	07d8      	lsls	r0, r3, #31
     8d2:	d503      	bpl.n	8dc <usart_read_wait+0x50>
     8d4:	2301      	movs	r3, #1
     8d6:	8353      	strh	r3, [r2, #26]
     8d8:	3312      	adds	r3, #18
     8da:	e7db      	b.n	894 <usart_read_wait+0x8>
     8dc:	06d8      	lsls	r0, r3, #27
     8de:	d503      	bpl.n	8e8 <usart_read_wait+0x5c>
     8e0:	2310      	movs	r3, #16
     8e2:	8353      	strh	r3, [r2, #26]
     8e4:	3332      	adds	r3, #50	; 0x32
     8e6:	e7d5      	b.n	894 <usart_read_wait+0x8>
     8e8:	069b      	lsls	r3, r3, #26
     8ea:	d503      	bpl.n	8f4 <usart_read_wait+0x68>
     8ec:	2320      	movs	r3, #32
     8ee:	8353      	strh	r3, [r2, #26]
     8f0:	3321      	adds	r3, #33	; 0x21
     8f2:	e7cf      	b.n	894 <usart_read_wait+0x8>
     8f4:	8d13      	ldrh	r3, [r2, #40]	; 0x28
     8f6:	800b      	strh	r3, [r1, #0]
     8f8:	2300      	movs	r3, #0
     8fa:	e7cb      	b.n	894 <usart_read_wait+0x8>

000008fc <_usart_write_buffer>:
     8fc:	b5f8      	push	{r3, r4, r5, r6, r7, lr}
     8fe:	0006      	movs	r6, r0
     900:	000c      	movs	r4, r1
     902:	0015      	movs	r5, r2
     904:	6807      	ldr	r7, [r0, #0]
     906:	4b0a      	ldr	r3, [pc, #40]	; (930 <_usart_write_buffer+0x34>)
     908:	4798      	blx	r3
     90a:	8df3      	ldrh	r3, [r6, #46]	; 0x2e
     90c:	b29b      	uxth	r3, r3
     90e:	2b00      	cmp	r3, #0
     910:	d003      	beq.n	91a <_usart_write_buffer+0x1e>
     912:	4b08      	ldr	r3, [pc, #32]	; (934 <_usart_write_buffer+0x38>)
     914:	4798      	blx	r3
     916:	2005      	movs	r0, #5
     918:	bdf8      	pop	{r3, r4, r5, r6, r7, pc}
     91a:	85f5      	strh	r5, [r6, #46]	; 0x2e
     91c:	4b05      	ldr	r3, [pc, #20]	; (934 <_usart_write_buffer+0x38>)
     91e:	4798      	blx	r3
     920:	62b4      	str	r4, [r6, #40]	; 0x28
     922:	2205      	movs	r2, #5
     924:	2333      	movs	r3, #51	; 0x33
     926:	54f2      	strb	r2, [r6, r3]
     928:	3b32      	subs	r3, #50	; 0x32
     92a:	75bb      	strb	r3, [r7, #22]
     92c:	2000      	movs	r0, #0
     92e:	e7f3      	b.n	918 <_usart_write_buffer+0x1c>
     930:	00000bd5 	.word	0x00000bd5
     934:	00000c15 	.word	0x00000c15

00000938 <usart_register_callback>:
     938:	1c93      	adds	r3, r2, #2
     93a:	009b      	lsls	r3, r3, #2
     93c:	18c3      	adds	r3, r0, r3
     93e:	6059      	str	r1, [r3, #4]
     940:	2130      	movs	r1, #48	; 0x30
     942:	2301      	movs	r3, #1
     944:	4093      	lsls	r3, r2
     946:	001a      	movs	r2, r3
     948:	5c43      	ldrb	r3, [r0, r1]
     94a:	4313      	orrs	r3, r2
     94c:	5443      	strb	r3, [r0, r1]
     94e:	4770      	bx	lr

00000950 <usart_write_buffer_job>:
     950:	b510      	push	{r4, lr}
     952:	2317      	movs	r3, #23
     954:	2a00      	cmp	r2, #0
     956:	d101      	bne.n	95c <usart_write_buffer_job+0xc>
     958:	0018      	movs	r0, r3
     95a:	bd10      	pop	{r4, pc}
     95c:	79c4      	ldrb	r4, [r0, #7]
     95e:	3305      	adds	r3, #5
     960:	2c00      	cmp	r4, #0
     962:	d0f9      	beq.n	958 <usart_write_buffer_job+0x8>
     964:	4b01      	ldr	r3, [pc, #4]	; (96c <usart_write_buffer_job+0x1c>)
     966:	4798      	blx	r3
     968:	0003      	movs	r3, r0
     96a:	e7f5      	b.n	958 <usart_write_buffer_job+0x8>
     96c:	000008fd 	.word	0x000008fd

00000970 <_usart_interrupt_handler>:
     970:	b5f8      	push	{r3, r4, r5, r6, r7, lr}
     972:	0080      	lsls	r0, r0, #2
     974:	4b62      	ldr	r3, [pc, #392]	; (b00 <_usart_interrupt_handler+0x190>)
     976:	58c5      	ldr	r5, [r0, r3]
     978:	682c      	ldr	r4, [r5, #0]
     97a:	69e3      	ldr	r3, [r4, #28]
     97c:	2b00      	cmp	r3, #0
     97e:	d1fc      	bne.n	97a <_usart_interrupt_handler+0xa>
     980:	7e23      	ldrb	r3, [r4, #24]
     982:	7da6      	ldrb	r6, [r4, #22]
     984:	401e      	ands	r6, r3
     986:	2330      	movs	r3, #48	; 0x30
     988:	5ceb      	ldrb	r3, [r5, r3]
     98a:	2231      	movs	r2, #49	; 0x31
     98c:	5caf      	ldrb	r7, [r5, r2]
     98e:	401f      	ands	r7, r3
     990:	07f3      	lsls	r3, r6, #31
     992:	d522      	bpl.n	9da <_usart_interrupt_handler+0x6a>
     994:	8deb      	ldrh	r3, [r5, #46]	; 0x2e
     996:	b29b      	uxth	r3, r3
     998:	2b00      	cmp	r3, #0
     99a:	d01c      	beq.n	9d6 <_usart_interrupt_handler+0x66>
     99c:	6aaa      	ldr	r2, [r5, #40]	; 0x28
     99e:	7813      	ldrb	r3, [r2, #0]
     9a0:	b2db      	uxtb	r3, r3
     9a2:	1c51      	adds	r1, r2, #1
     9a4:	62a9      	str	r1, [r5, #40]	; 0x28
     9a6:	7969      	ldrb	r1, [r5, #5]
     9a8:	2901      	cmp	r1, #1
     9aa:	d00e      	beq.n	9ca <_usart_interrupt_handler+0x5a>
     9ac:	b29b      	uxth	r3, r3
     9ae:	05db      	lsls	r3, r3, #23
     9b0:	0ddb      	lsrs	r3, r3, #23
     9b2:	8523      	strh	r3, [r4, #40]	; 0x28
     9b4:	8deb      	ldrh	r3, [r5, #46]	; 0x2e
     9b6:	3b01      	subs	r3, #1
     9b8:	b29b      	uxth	r3, r3
     9ba:	85eb      	strh	r3, [r5, #46]	; 0x2e
     9bc:	2b00      	cmp	r3, #0
     9be:	d10c      	bne.n	9da <_usart_interrupt_handler+0x6a>
     9c0:	3301      	adds	r3, #1
     9c2:	7523      	strb	r3, [r4, #20]
     9c4:	3301      	adds	r3, #1
     9c6:	75a3      	strb	r3, [r4, #22]
     9c8:	e007      	b.n	9da <_usart_interrupt_handler+0x6a>
     9ca:	7851      	ldrb	r1, [r2, #1]
     9cc:	0209      	lsls	r1, r1, #8
     9ce:	430b      	orrs	r3, r1
     9d0:	3202      	adds	r2, #2
     9d2:	62aa      	str	r2, [r5, #40]	; 0x28
     9d4:	e7eb      	b.n	9ae <_usart_interrupt_handler+0x3e>
     9d6:	2301      	movs	r3, #1
     9d8:	7523      	strb	r3, [r4, #20]
     9da:	07b3      	lsls	r3, r6, #30
     9dc:	d506      	bpl.n	9ec <_usart_interrupt_handler+0x7c>
     9de:	2302      	movs	r3, #2
     9e0:	7523      	strb	r3, [r4, #20]
     9e2:	2200      	movs	r2, #0
     9e4:	3331      	adds	r3, #49	; 0x31
     9e6:	54ea      	strb	r2, [r5, r3]
     9e8:	07fb      	lsls	r3, r7, #31
     9ea:	d41a      	bmi.n	a22 <_usart_interrupt_handler+0xb2>
     9ec:	0773      	lsls	r3, r6, #29
     9ee:	d565      	bpl.n	abc <_usart_interrupt_handler+0x14c>
     9f0:	8dab      	ldrh	r3, [r5, #44]	; 0x2c
     9f2:	b29b      	uxth	r3, r3
     9f4:	2b00      	cmp	r3, #0
     9f6:	d05f      	beq.n	ab8 <_usart_interrupt_handler+0x148>
     9f8:	8b63      	ldrh	r3, [r4, #26]
     9fa:	b2db      	uxtb	r3, r3
     9fc:	071a      	lsls	r2, r3, #28
     9fe:	d414      	bmi.n	a2a <_usart_interrupt_handler+0xba>
     a00:	223f      	movs	r2, #63	; 0x3f
     a02:	4013      	ands	r3, r2
     a04:	2b00      	cmp	r3, #0
     a06:	d034      	beq.n	a72 <_usart_interrupt_handler+0x102>
     a08:	079a      	lsls	r2, r3, #30
     a0a:	d511      	bpl.n	a30 <_usart_interrupt_handler+0xc0>
     a0c:	221a      	movs	r2, #26
     a0e:	2332      	movs	r3, #50	; 0x32
     a10:	54ea      	strb	r2, [r5, r3]
     a12:	3b30      	subs	r3, #48	; 0x30
     a14:	8363      	strh	r3, [r4, #26]
     a16:	077b      	lsls	r3, r7, #29
     a18:	d550      	bpl.n	abc <_usart_interrupt_handler+0x14c>
     a1a:	0028      	movs	r0, r5
     a1c:	696b      	ldr	r3, [r5, #20]
     a1e:	4798      	blx	r3
     a20:	e04c      	b.n	abc <_usart_interrupt_handler+0x14c>
     a22:	0028      	movs	r0, r5
     a24:	68eb      	ldr	r3, [r5, #12]
     a26:	4798      	blx	r3
     a28:	e7e0      	b.n	9ec <_usart_interrupt_handler+0x7c>
     a2a:	2237      	movs	r2, #55	; 0x37
     a2c:	4013      	ands	r3, r2
     a2e:	e7e9      	b.n	a04 <_usart_interrupt_handler+0x94>
     a30:	075a      	lsls	r2, r3, #29
     a32:	d505      	bpl.n	a40 <_usart_interrupt_handler+0xd0>
     a34:	221e      	movs	r2, #30
     a36:	2332      	movs	r3, #50	; 0x32
     a38:	54ea      	strb	r2, [r5, r3]
     a3a:	3b2e      	subs	r3, #46	; 0x2e
     a3c:	8363      	strh	r3, [r4, #26]
     a3e:	e7ea      	b.n	a16 <_usart_interrupt_handler+0xa6>
     a40:	07da      	lsls	r2, r3, #31
     a42:	d505      	bpl.n	a50 <_usart_interrupt_handler+0xe0>
     a44:	2213      	movs	r2, #19
     a46:	2332      	movs	r3, #50	; 0x32
     a48:	54ea      	strb	r2, [r5, r3]
     a4a:	3b31      	subs	r3, #49	; 0x31
     a4c:	8363      	strh	r3, [r4, #26]
     a4e:	e7e2      	b.n	a16 <_usart_interrupt_handler+0xa6>
     a50:	06da      	lsls	r2, r3, #27
     a52:	d505      	bpl.n	a60 <_usart_interrupt_handler+0xf0>
     a54:	2242      	movs	r2, #66	; 0x42
     a56:	2332      	movs	r3, #50	; 0x32
     a58:	54ea      	strb	r2, [r5, r3]
     a5a:	3b22      	subs	r3, #34	; 0x22
     a5c:	8363      	strh	r3, [r4, #26]
     a5e:	e7da      	b.n	a16 <_usart_interrupt_handler+0xa6>
     a60:	2220      	movs	r2, #32
     a62:	421a      	tst	r2, r3
     a64:	d0d7      	beq.n	a16 <_usart_interrupt_handler+0xa6>
     a66:	3221      	adds	r2, #33	; 0x21
     a68:	2332      	movs	r3, #50	; 0x32
     a6a:	54ea      	strb	r2, [r5, r3]
     a6c:	3b12      	subs	r3, #18
     a6e:	8363      	strh	r3, [r4, #26]
     a70:	e7d1      	b.n	a16 <_usart_interrupt_handler+0xa6>
     a72:	8d23      	ldrh	r3, [r4, #40]	; 0x28
     a74:	05db      	lsls	r3, r3, #23
     a76:	0ddb      	lsrs	r3, r3, #23
     a78:	b2da      	uxtb	r2, r3
     a7a:	6a69      	ldr	r1, [r5, #36]	; 0x24
     a7c:	700a      	strb	r2, [r1, #0]
     a7e:	6a6a      	ldr	r2, [r5, #36]	; 0x24
     a80:	1c51      	adds	r1, r2, #1
     a82:	6269      	str	r1, [r5, #36]	; 0x24
     a84:	7969      	ldrb	r1, [r5, #5]
     a86:	2901      	cmp	r1, #1
     a88:	d010      	beq.n	aac <_usart_interrupt_handler+0x13c>
     a8a:	8dab      	ldrh	r3, [r5, #44]	; 0x2c
     a8c:	3b01      	subs	r3, #1
     a8e:	b29b      	uxth	r3, r3
     a90:	85ab      	strh	r3, [r5, #44]	; 0x2c
     a92:	2b00      	cmp	r3, #0
     a94:	d112      	bne.n	abc <_usart_interrupt_handler+0x14c>
     a96:	3304      	adds	r3, #4
     a98:	7523      	strb	r3, [r4, #20]
     a9a:	2200      	movs	r2, #0
     a9c:	332e      	adds	r3, #46	; 0x2e
     a9e:	54ea      	strb	r2, [r5, r3]
     aa0:	07bb      	lsls	r3, r7, #30
     aa2:	d50b      	bpl.n	abc <_usart_interrupt_handler+0x14c>
     aa4:	0028      	movs	r0, r5
     aa6:	692b      	ldr	r3, [r5, #16]
     aa8:	4798      	blx	r3
     aaa:	e007      	b.n	abc <_usart_interrupt_handler+0x14c>
     aac:	0a1b      	lsrs	r3, r3, #8
     aae:	7053      	strb	r3, [r2, #1]
     ab0:	6a6b      	ldr	r3, [r5, #36]	; 0x24
     ab2:	3301      	adds	r3, #1
     ab4:	626b      	str	r3, [r5, #36]	; 0x24
     ab6:	e7e8      	b.n	a8a <_usart_interrupt_handler+0x11a>
     ab8:	2304      	movs	r3, #4
     aba:	7523      	strb	r3, [r4, #20]
     abc:	06f3      	lsls	r3, r6, #27
     abe:	d504      	bpl.n	aca <_usart_interrupt_handler+0x15a>
     ac0:	2310      	movs	r3, #16
     ac2:	7523      	strb	r3, [r4, #20]
     ac4:	7623      	strb	r3, [r4, #24]
     ac6:	06fb      	lsls	r3, r7, #27
     ac8:	d40e      	bmi.n	ae8 <_usart_interrupt_handler+0x178>
     aca:	06b3      	lsls	r3, r6, #26
     acc:	d504      	bpl.n	ad8 <_usart_interrupt_handler+0x168>
     ace:	2320      	movs	r3, #32
     ad0:	7523      	strb	r3, [r4, #20]
     ad2:	7623      	strb	r3, [r4, #24]
     ad4:	073b      	lsls	r3, r7, #28
     ad6:	d40b      	bmi.n	af0 <_usart_interrupt_handler+0x180>
     ad8:	0733      	lsls	r3, r6, #28
     ada:	d504      	bpl.n	ae6 <_usart_interrupt_handler+0x176>
     adc:	2308      	movs	r3, #8
     ade:	7523      	strb	r3, [r4, #20]
     ae0:	7623      	strb	r3, [r4, #24]
     ae2:	06bb      	lsls	r3, r7, #26
     ae4:	d408      	bmi.n	af8 <_usart_interrupt_handler+0x188>
     ae6:	bdf8      	pop	{r3, r4, r5, r6, r7, pc}
     ae8:	0028      	movs	r0, r5
     aea:	69eb      	ldr	r3, [r5, #28]
     aec:	4798      	blx	r3
     aee:	e7ec      	b.n	aca <_usart_interrupt_handler+0x15a>
     af0:	0028      	movs	r0, r5
     af2:	69ab      	ldr	r3, [r5, #24]
     af4:	4798      	blx	r3
     af6:	e7ef      	b.n	ad8 <_usart_interrupt_handler+0x168>
     af8:	6a2b      	ldr	r3, [r5, #32]
     afa:	0028      	movs	r0, r5
     afc:	4798      	blx	r3
     afe:	e7f2      	b.n	ae6 <_usart_interrupt_handler+0x176>
     b00:	20000244 	.word	0x20000244

00000b04 <_sercom_default_handler>:
     b04:	4770      	bx	lr
	...

00000b08 <_sercom_set_handler>:
     b08:	b5f0      	push	{r4, r5, r6, r7, lr}
     b0a:	4b0a      	ldr	r3, [pc, #40]	; (b34 <_sercom_set_handler+0x2c>)
     b0c:	781b      	ldrb	r3, [r3, #0]
     b0e:	2b00      	cmp	r3, #0
     b10:	d10c      	bne.n	b2c <_sercom_set_handler+0x24>
     b12:	4f09      	ldr	r7, [pc, #36]	; (b38 <_sercom_set_handler+0x30>)
     b14:	4e09      	ldr	r6, [pc, #36]	; (b3c <_sercom_set_handler+0x34>)
     b16:	4d0a      	ldr	r5, [pc, #40]	; (b40 <_sercom_set_handler+0x38>)
     b18:	2400      	movs	r4, #0
     b1a:	51de      	str	r6, [r3, r7]
     b1c:	195a      	adds	r2, r3, r5
     b1e:	6014      	str	r4, [r2, #0]
     b20:	3304      	adds	r3, #4
     b22:	2b18      	cmp	r3, #24
     b24:	d1f9      	bne.n	b1a <_sercom_set_handler+0x12>
     b26:	2201      	movs	r2, #1
     b28:	4b02      	ldr	r3, [pc, #8]	; (b34 <_sercom_set_handler+0x2c>)
     b2a:	701a      	strb	r2, [r3, #0]
     b2c:	0080      	lsls	r0, r0, #2
     b2e:	4b02      	ldr	r3, [pc, #8]	; (b38 <_sercom_set_handler+0x30>)
     b30:	50c1      	str	r1, [r0, r3]
     b32:	bdf0      	pop	{r4, r5, r6, r7, pc}
     b34:	200001f2 	.word	0x200001f2
     b38:	200001f4 	.word	0x200001f4
     b3c:	00000b05 	.word	0x00000b05
     b40:	20000244 	.word	0x20000244

00000b44 <_sercom_get_interrupt_vector>:
     b44:	b500      	push	{lr}
     b46:	b083      	sub	sp, #12
     b48:	2309      	movs	r3, #9
     b4a:	466a      	mov	r2, sp
     b4c:	7013      	strb	r3, [r2, #0]
     b4e:	3301      	adds	r3, #1
     b50:	7053      	strb	r3, [r2, #1]
     b52:	3301      	adds	r3, #1
     b54:	7093      	strb	r3, [r2, #2]
     b56:	3301      	adds	r3, #1
     b58:	70d3      	strb	r3, [r2, #3]
     b5a:	3301      	adds	r3, #1
     b5c:	7113      	strb	r3, [r2, #4]
     b5e:	3301      	adds	r3, #1
     b60:	7153      	strb	r3, [r2, #5]
     b62:	4b03      	ldr	r3, [pc, #12]	; (b70 <_sercom_get_interrupt_vector+0x2c>)
     b64:	4798      	blx	r3
     b66:	466b      	mov	r3, sp
     b68:	5618      	ldrsb	r0, [r3, r0]
     b6a:	b003      	add	sp, #12
     b6c:	bd00      	pop	{pc}
     b6e:	46c0      	nop			; (mov r8, r8)
     b70:	00000451 	.word	0x00000451

00000b74 <SERCOM0_Handler>:
     b74:	b510      	push	{r4, lr}
     b76:	4b02      	ldr	r3, [pc, #8]	; (b80 <SERCOM0_Handler+0xc>)
     b78:	681b      	ldr	r3, [r3, #0]
     b7a:	2000      	movs	r0, #0
     b7c:	4798      	blx	r3
     b7e:	bd10      	pop	{r4, pc}
     b80:	200001f4 	.word	0x200001f4

00000b84 <SERCOM1_Handler>:
     b84:	b510      	push	{r4, lr}
     b86:	4b02      	ldr	r3, [pc, #8]	; (b90 <SERCOM1_Handler+0xc>)
     b88:	685b      	ldr	r3, [r3, #4]
     b8a:	2001      	movs	r0, #1
     b8c:	4798      	blx	r3
     b8e:	bd10      	pop	{r4, pc}
     b90:	200001f4 	.word	0x200001f4

00000b94 <SERCOM2_Handler>:
     b94:	b510      	push	{r4, lr}
     b96:	4b02      	ldr	r3, [pc, #8]	; (ba0 <SERCOM2_Handler+0xc>)
     b98:	689b      	ldr	r3, [r3, #8]
     b9a:	2002      	movs	r0, #2
     b9c:	4798      	blx	r3
     b9e:	bd10      	pop	{r4, pc}
     ba0:	200001f4 	.word	0x200001f4

00000ba4 <SERCOM3_Handler>:
     ba4:	b510      	push	{r4, lr}
     ba6:	4b02      	ldr	r3, [pc, #8]	; (bb0 <SERCOM3_Handler+0xc>)
     ba8:	68db      	ldr	r3, [r3, #12]
     baa:	2003      	movs	r0, #3
     bac:	4798      	blx	r3
     bae:	bd10      	pop	{r4, pc}
     bb0:	200001f4 	.word	0x200001f4

00000bb4 <SERCOM4_Handler>:
     bb4:	b510      	push	{r4, lr}
     bb6:	4b02      	ldr	r3, [pc, #8]	; (bc0 <SERCOM4_Handler+0xc>)
     bb8:	691b      	ldr	r3, [r3, #16]
     bba:	2004      	movs	r0, #4
     bbc:	4798      	blx	r3
     bbe:	bd10      	pop	{r4, pc}
     bc0:	200001f4 	.word	0x200001f4

00000bc4 <SERCOM5_Handler>:
     bc4:	b510      	push	{r4, lr}
     bc6:	4b02      	ldr	r3, [pc, #8]	; (bd0 <SERCOM5_Handler+0xc>)
     bc8:	695b      	ldr	r3, [r3, #20]
     bca:	2005      	movs	r0, #5
     bcc:	4798      	blx	r3
     bce:	bd10      	pop	{r4, pc}
     bd0:	200001f4 	.word	0x200001f4

00000bd4 <cpu_irq_enter_critical>:
     bd4:	4b0c      	ldr	r3, [pc, #48]	; (c08 <cpu_irq_enter_critical+0x34>)
     bd6:	681b      	ldr	r3, [r3, #0]
     bd8:	2b00      	cmp	r3, #0
     bda:	d106      	bne.n	bea <cpu_irq_enter_critical+0x16>
     bdc:	f3ef 8310 	mrs	r3, PRIMASK
     be0:	2b00      	cmp	r3, #0
     be2:	d007      	beq.n	bf4 <cpu_irq_enter_critical+0x20>
     be4:	2200      	movs	r2, #0
     be6:	4b09      	ldr	r3, [pc, #36]	; (c0c <cpu_irq_enter_critical+0x38>)
     be8:	701a      	strb	r2, [r3, #0]
     bea:	4a07      	ldr	r2, [pc, #28]	; (c08 <cpu_irq_enter_critical+0x34>)
     bec:	6813      	ldr	r3, [r2, #0]
     bee:	3301      	adds	r3, #1
     bf0:	6013      	str	r3, [r2, #0]
     bf2:	4770      	bx	lr
     bf4:	b672      	cpsid	i
     bf6:	f3bf 8f5f 	dmb	sy
     bfa:	2200      	movs	r2, #0
     bfc:	4b04      	ldr	r3, [pc, #16]	; (c10 <cpu_irq_enter_critical+0x3c>)
     bfe:	701a      	strb	r2, [r3, #0]
     c00:	3201      	adds	r2, #1
     c02:	4b02      	ldr	r3, [pc, #8]	; (c0c <cpu_irq_enter_critical+0x38>)
     c04:	701a      	strb	r2, [r3, #0]
     c06:	e7f0      	b.n	bea <cpu_irq_enter_critical+0x16>
     c08:	2000020c 	.word	0x2000020c
     c0c:	20000210 	.word	0x20000210
     c10:	20000000 	.word	0x20000000

00000c14 <cpu_irq_leave_critical>:
     c14:	4b08      	ldr	r3, [pc, #32]	; (c38 <cpu_irq_leave_critical+0x24>)
     c16:	681a      	ldr	r2, [r3, #0]
     c18:	3a01      	subs	r2, #1
     c1a:	601a      	str	r2, [r3, #0]
     c1c:	681b      	ldr	r3, [r3, #0]
     c1e:	2b00      	cmp	r3, #0
     c20:	d109      	bne.n	c36 <cpu_irq_leave_critical+0x22>
     c22:	4b06      	ldr	r3, [pc, #24]	; (c3c <cpu_irq_leave_critical+0x28>)
     c24:	781b      	ldrb	r3, [r3, #0]
     c26:	2b00      	cmp	r3, #0
     c28:	d005      	beq.n	c36 <cpu_irq_leave_critical+0x22>
     c2a:	2201      	movs	r2, #1
     c2c:	4b04      	ldr	r3, [pc, #16]	; (c40 <cpu_irq_leave_critical+0x2c>)
     c2e:	701a      	strb	r2, [r3, #0]
     c30:	f3bf 8f5f 	dmb	sy
     c34:	b662      	cpsie	i
     c36:	4770      	bx	lr
     c38:	2000020c 	.word	0x2000020c
     c3c:	20000210 	.word	0x20000210
     c40:	20000000 	.word	0x20000000

00000c44 <system_board_init>:
     c44:	b5f0      	push	{r4, r5, r6, r7, lr}
     c46:	b083      	sub	sp, #12
     c48:	ac01      	add	r4, sp, #4
     c4a:	2501      	movs	r5, #1
     c4c:	7065      	strb	r5, [r4, #1]
     c4e:	2700      	movs	r7, #0
     c50:	70a7      	strb	r7, [r4, #2]
     c52:	7025      	strb	r5, [r4, #0]
     c54:	0021      	movs	r1, r4
     c56:	2017      	movs	r0, #23
     c58:	4e06      	ldr	r6, [pc, #24]	; (c74 <system_board_init+0x30>)
     c5a:	47b0      	blx	r6
     c5c:	2280      	movs	r2, #128	; 0x80
     c5e:	0412      	lsls	r2, r2, #16
     c60:	4b05      	ldr	r3, [pc, #20]	; (c78 <system_board_init+0x34>)
     c62:	619a      	str	r2, [r3, #24]
     c64:	7027      	strb	r7, [r4, #0]
     c66:	7065      	strb	r5, [r4, #1]
     c68:	0021      	movs	r1, r4
     c6a:	2037      	movs	r0, #55	; 0x37
     c6c:	47b0      	blx	r6
     c6e:	b003      	add	sp, #12
     c70:	bdf0      	pop	{r4, r5, r6, r7, pc}
     c72:	46c0      	nop			; (mov r8, r8)
     c74:	00000c7d 	.word	0x00000c7d
     c78:	41004400 	.word	0x41004400

00000c7c <port_pin_set_config>:
     c7c:	b500      	push	{lr}
     c7e:	b083      	sub	sp, #12
     c80:	ab01      	add	r3, sp, #4
     c82:	2280      	movs	r2, #128	; 0x80
     c84:	701a      	strb	r2, [r3, #0]
     c86:	780a      	ldrb	r2, [r1, #0]
     c88:	705a      	strb	r2, [r3, #1]
     c8a:	784a      	ldrb	r2, [r1, #1]
     c8c:	709a      	strb	r2, [r3, #2]
     c8e:	788a      	ldrb	r2, [r1, #2]
     c90:	70da      	strb	r2, [r3, #3]
     c92:	0019      	movs	r1, r3
     c94:	4b01      	ldr	r3, [pc, #4]	; (c9c <port_pin_set_config+0x20>)
     c96:	4798      	blx	r3
     c98:	b003      	add	sp, #12
     c9a:	bd00      	pop	{pc}
     c9c:	000013dd 	.word	0x000013dd

00000ca0 <system_clock_source_get_hz>:
     ca0:	b510      	push	{r4, lr}
     ca2:	2808      	cmp	r0, #8
     ca4:	d803      	bhi.n	cae <system_clock_source_get_hz+0xe>
     ca6:	0080      	lsls	r0, r0, #2
     ca8:	4b1b      	ldr	r3, [pc, #108]	; (d18 <system_clock_source_get_hz+0x78>)
     caa:	581b      	ldr	r3, [r3, r0]
     cac:	469f      	mov	pc, r3
     cae:	2000      	movs	r0, #0
     cb0:	e030      	b.n	d14 <system_clock_source_get_hz+0x74>
     cb2:	4b1a      	ldr	r3, [pc, #104]	; (d1c <system_clock_source_get_hz+0x7c>)
     cb4:	6918      	ldr	r0, [r3, #16]
     cb6:	e02d      	b.n	d14 <system_clock_source_get_hz+0x74>
     cb8:	4b19      	ldr	r3, [pc, #100]	; (d20 <system_clock_source_get_hz+0x80>)
     cba:	6a1b      	ldr	r3, [r3, #32]
     cbc:	059b      	lsls	r3, r3, #22
     cbe:	0f9b      	lsrs	r3, r3, #30
     cc0:	4818      	ldr	r0, [pc, #96]	; (d24 <system_clock_source_get_hz+0x84>)
     cc2:	40d8      	lsrs	r0, r3
     cc4:	e026      	b.n	d14 <system_clock_source_get_hz+0x74>
     cc6:	4b15      	ldr	r3, [pc, #84]	; (d1c <system_clock_source_get_hz+0x7c>)
     cc8:	6958      	ldr	r0, [r3, #20]
     cca:	e023      	b.n	d14 <system_clock_source_get_hz+0x74>
     ccc:	4b13      	ldr	r3, [pc, #76]	; (d1c <system_clock_source_get_hz+0x7c>)
     cce:	681b      	ldr	r3, [r3, #0]
     cd0:	2000      	movs	r0, #0
     cd2:	079b      	lsls	r3, r3, #30
     cd4:	d51e      	bpl.n	d14 <system_clock_source_get_hz+0x74>
     cd6:	4912      	ldr	r1, [pc, #72]	; (d20 <system_clock_source_get_hz+0x80>)
     cd8:	2210      	movs	r2, #16
     cda:	68cb      	ldr	r3, [r1, #12]
     cdc:	421a      	tst	r2, r3
     cde:	d0fc      	beq.n	cda <system_clock_source_get_hz+0x3a>
     ce0:	4b0e      	ldr	r3, [pc, #56]	; (d1c <system_clock_source_get_hz+0x7c>)
     ce2:	681b      	ldr	r3, [r3, #0]
     ce4:	075b      	lsls	r3, r3, #29
     ce6:	d401      	bmi.n	cec <system_clock_source_get_hz+0x4c>
     ce8:	480f      	ldr	r0, [pc, #60]	; (d28 <system_clock_source_get_hz+0x88>)
     cea:	e013      	b.n	d14 <system_clock_source_get_hz+0x74>
     cec:	2000      	movs	r0, #0
     cee:	4b0f      	ldr	r3, [pc, #60]	; (d2c <system_clock_source_get_hz+0x8c>)
     cf0:	4798      	blx	r3
     cf2:	4b0a      	ldr	r3, [pc, #40]	; (d1c <system_clock_source_get_hz+0x7c>)
     cf4:	689b      	ldr	r3, [r3, #8]
     cf6:	041b      	lsls	r3, r3, #16
     cf8:	0c1b      	lsrs	r3, r3, #16
     cfa:	4358      	muls	r0, r3
     cfc:	e00a      	b.n	d14 <system_clock_source_get_hz+0x74>
     cfe:	2350      	movs	r3, #80	; 0x50
     d00:	4a07      	ldr	r2, [pc, #28]	; (d20 <system_clock_source_get_hz+0x80>)
     d02:	5cd3      	ldrb	r3, [r2, r3]
     d04:	2000      	movs	r0, #0
     d06:	075b      	lsls	r3, r3, #29
     d08:	d504      	bpl.n	d14 <system_clock_source_get_hz+0x74>
     d0a:	4b04      	ldr	r3, [pc, #16]	; (d1c <system_clock_source_get_hz+0x7c>)
     d0c:	68d8      	ldr	r0, [r3, #12]
     d0e:	e001      	b.n	d14 <system_clock_source_get_hz+0x74>
     d10:	2080      	movs	r0, #128	; 0x80
     d12:	0200      	lsls	r0, r0, #8
     d14:	bd10      	pop	{r4, pc}
     d16:	46c0      	nop			; (mov r8, r8)
     d18:	00003600 	.word	0x00003600
     d1c:	20000214 	.word	0x20000214
     d20:	40000800 	.word	0x40000800
     d24:	007a1200 	.word	0x007a1200
     d28:	02dc6c00 	.word	0x02dc6c00
     d2c:	00001301 	.word	0x00001301

00000d30 <system_clock_source_osc8m_set_config>:
     d30:	b570      	push	{r4, r5, r6, lr}
     d32:	490c      	ldr	r1, [pc, #48]	; (d64 <system_clock_source_osc8m_set_config+0x34>)
     d34:	6a0b      	ldr	r3, [r1, #32]
     d36:	7804      	ldrb	r4, [r0, #0]
     d38:	7885      	ldrb	r5, [r0, #2]
     d3a:	7840      	ldrb	r0, [r0, #1]
     d3c:	2201      	movs	r2, #1
     d3e:	4010      	ands	r0, r2
     d40:	0180      	lsls	r0, r0, #6
     d42:	2640      	movs	r6, #64	; 0x40
     d44:	43b3      	bics	r3, r6
     d46:	4303      	orrs	r3, r0
     d48:	402a      	ands	r2, r5
     d4a:	01d2      	lsls	r2, r2, #7
     d4c:	2080      	movs	r0, #128	; 0x80
     d4e:	4383      	bics	r3, r0
     d50:	4313      	orrs	r3, r2
     d52:	2203      	movs	r2, #3
     d54:	4022      	ands	r2, r4
     d56:	0212      	lsls	r2, r2, #8
     d58:	4803      	ldr	r0, [pc, #12]	; (d68 <system_clock_source_osc8m_set_config+0x38>)
     d5a:	4003      	ands	r3, r0
     d5c:	4313      	orrs	r3, r2
     d5e:	620b      	str	r3, [r1, #32]
     d60:	bd70      	pop	{r4, r5, r6, pc}
     d62:	46c0      	nop			; (mov r8, r8)
     d64:	40000800 	.word	0x40000800
     d68:	fffffcff 	.word	0xfffffcff

00000d6c <system_clock_source_xosc32k_set_config>:
     d6c:	b5f0      	push	{r4, r5, r6, r7, lr}
     d6e:	46de      	mov	lr, fp
     d70:	4657      	mov	r7, sl
     d72:	464e      	mov	r6, r9
     d74:	4645      	mov	r5, r8
     d76:	b5e0      	push	{r5, r6, r7, lr}
     d78:	0001      	movs	r1, r0
     d7a:	4b26      	ldr	r3, [pc, #152]	; (e14 <system_clock_source_xosc32k_set_config+0xa8>)
     d7c:	469b      	mov	fp, r3
     d7e:	8a9b      	ldrh	r3, [r3, #20]
     d80:	7845      	ldrb	r5, [r0, #1]
     d82:	7800      	ldrb	r0, [r0, #0]
     d84:	4242      	negs	r2, r0
     d86:	4142      	adcs	r2, r0
     d88:	4691      	mov	r9, r2
     d8a:	7888      	ldrb	r0, [r1, #2]
     d8c:	78ca      	ldrb	r2, [r1, #3]
     d8e:	4694      	mov	ip, r2
     d90:	790a      	ldrb	r2, [r1, #4]
     d92:	4690      	mov	r8, r2
     d94:	7b4e      	ldrb	r6, [r1, #13]
     d96:	7b0f      	ldrb	r7, [r1, #12]
     d98:	7b8c      	ldrb	r4, [r1, #14]
     d9a:	688a      	ldr	r2, [r1, #8]
     d9c:	491e      	ldr	r1, [pc, #120]	; (e18 <system_clock_source_xosc32k_set_config+0xac>)
     d9e:	614a      	str	r2, [r1, #20]
     da0:	2101      	movs	r1, #1
     da2:	464a      	mov	r2, r9
     da4:	0092      	lsls	r2, r2, #2
     da6:	4691      	mov	r9, r2
     da8:	2204      	movs	r2, #4
     daa:	4393      	bics	r3, r2
     dac:	464a      	mov	r2, r9
     dae:	4313      	orrs	r3, r2
     db0:	4642      	mov	r2, r8
     db2:	400a      	ands	r2, r1
     db4:	00d2      	lsls	r2, r2, #3
     db6:	4690      	mov	r8, r2
     db8:	2208      	movs	r2, #8
     dba:	4393      	bics	r3, r2
     dbc:	4642      	mov	r2, r8
     dbe:	4313      	orrs	r3, r2
     dc0:	4662      	mov	r2, ip
     dc2:	400a      	ands	r2, r1
     dc4:	0112      	lsls	r2, r2, #4
     dc6:	4694      	mov	ip, r2
     dc8:	2210      	movs	r2, #16
     dca:	4393      	bics	r3, r2
     dcc:	4662      	mov	r2, ip
     dce:	4313      	orrs	r3, r2
     dd0:	4008      	ands	r0, r1
     dd2:	0140      	lsls	r0, r0, #5
     dd4:	2220      	movs	r2, #32
     dd6:	4393      	bics	r3, r2
     dd8:	4303      	orrs	r3, r0
     dda:	400f      	ands	r7, r1
     ddc:	01bf      	lsls	r7, r7, #6
     dde:	2040      	movs	r0, #64	; 0x40
     de0:	4383      	bics	r3, r0
     de2:	433b      	orrs	r3, r7
     de4:	400e      	ands	r6, r1
     de6:	01f6      	lsls	r6, r6, #7
     de8:	3040      	adds	r0, #64	; 0x40
     dea:	4383      	bics	r3, r0
     dec:	4333      	orrs	r3, r6
     dee:	3879      	subs	r0, #121	; 0x79
     df0:	4005      	ands	r5, r0
     df2:	022d      	lsls	r5, r5, #8
     df4:	4809      	ldr	r0, [pc, #36]	; (e1c <system_clock_source_xosc32k_set_config+0xb0>)
     df6:	4003      	ands	r3, r0
     df8:	432b      	orrs	r3, r5
     dfa:	4021      	ands	r1, r4
     dfc:	0309      	lsls	r1, r1, #12
     dfe:	4808      	ldr	r0, [pc, #32]	; (e20 <system_clock_source_xosc32k_set_config+0xb4>)
     e00:	4003      	ands	r3, r0
     e02:	430b      	orrs	r3, r1
     e04:	465a      	mov	r2, fp
     e06:	8293      	strh	r3, [r2, #20]
     e08:	bc3c      	pop	{r2, r3, r4, r5}
     e0a:	4690      	mov	r8, r2
     e0c:	4699      	mov	r9, r3
     e0e:	46a2      	mov	sl, r4
     e10:	46ab      	mov	fp, r5
     e12:	bdf0      	pop	{r4, r5, r6, r7, pc}
     e14:	40000800 	.word	0x40000800
     e18:	20000214 	.word	0x20000214
     e1c:	fffff8ff 	.word	0xfffff8ff
     e20:	ffffefff 	.word	0xffffefff

00000e24 <system_clock_source_dfll_set_config>:
     e24:	b510      	push	{r4, lr}
     e26:	7a03      	ldrb	r3, [r0, #8]
     e28:	069b      	lsls	r3, r3, #26
     e2a:	0c1b      	lsrs	r3, r3, #16
     e2c:	8942      	ldrh	r2, [r0, #10]
     e2e:	0592      	lsls	r2, r2, #22
     e30:	0d92      	lsrs	r2, r2, #22
     e32:	4313      	orrs	r3, r2
     e34:	4918      	ldr	r1, [pc, #96]	; (e98 <system_clock_source_dfll_set_config+0x74>)
     e36:	604b      	str	r3, [r1, #4]
     e38:	7983      	ldrb	r3, [r0, #6]
     e3a:	79c2      	ldrb	r2, [r0, #7]
     e3c:	4313      	orrs	r3, r2
     e3e:	8842      	ldrh	r2, [r0, #2]
     e40:	8884      	ldrh	r4, [r0, #4]
     e42:	4322      	orrs	r2, r4
     e44:	4313      	orrs	r3, r2
     e46:	7842      	ldrb	r2, [r0, #1]
     e48:	01d2      	lsls	r2, r2, #7
     e4a:	4313      	orrs	r3, r2
     e4c:	600b      	str	r3, [r1, #0]
     e4e:	7803      	ldrb	r3, [r0, #0]
     e50:	2b04      	cmp	r3, #4
     e52:	d011      	beq.n	e78 <system_clock_source_dfll_set_config+0x54>
     e54:	2b20      	cmp	r3, #32
     e56:	d10e      	bne.n	e76 <system_clock_source_dfll_set_config+0x52>
     e58:	7b03      	ldrb	r3, [r0, #12]
     e5a:	069b      	lsls	r3, r3, #26
     e5c:	8a02      	ldrh	r2, [r0, #16]
     e5e:	4313      	orrs	r3, r2
     e60:	89c2      	ldrh	r2, [r0, #14]
     e62:	0412      	lsls	r2, r2, #16
     e64:	490d      	ldr	r1, [pc, #52]	; (e9c <system_clock_source_dfll_set_config+0x78>)
     e66:	400a      	ands	r2, r1
     e68:	4313      	orrs	r3, r2
     e6a:	4a0b      	ldr	r2, [pc, #44]	; (e98 <system_clock_source_dfll_set_config+0x74>)
     e6c:	6093      	str	r3, [r2, #8]
     e6e:	6811      	ldr	r1, [r2, #0]
     e70:	4b0b      	ldr	r3, [pc, #44]	; (ea0 <system_clock_source_dfll_set_config+0x7c>)
     e72:	430b      	orrs	r3, r1
     e74:	6013      	str	r3, [r2, #0]
     e76:	bd10      	pop	{r4, pc}
     e78:	7b03      	ldrb	r3, [r0, #12]
     e7a:	069b      	lsls	r3, r3, #26
     e7c:	8a02      	ldrh	r2, [r0, #16]
     e7e:	4313      	orrs	r3, r2
     e80:	89c2      	ldrh	r2, [r0, #14]
     e82:	0412      	lsls	r2, r2, #16
     e84:	4905      	ldr	r1, [pc, #20]	; (e9c <system_clock_source_dfll_set_config+0x78>)
     e86:	400a      	ands	r2, r1
     e88:	4313      	orrs	r3, r2
     e8a:	4a03      	ldr	r2, [pc, #12]	; (e98 <system_clock_source_dfll_set_config+0x74>)
     e8c:	6093      	str	r3, [r2, #8]
     e8e:	6813      	ldr	r3, [r2, #0]
     e90:	2104      	movs	r1, #4
     e92:	430b      	orrs	r3, r1
     e94:	6013      	str	r3, [r2, #0]
     e96:	e7ee      	b.n	e76 <system_clock_source_dfll_set_config+0x52>
     e98:	20000214 	.word	0x20000214
     e9c:	03ff0000 	.word	0x03ff0000
     ea0:	00000424 	.word	0x00000424

00000ea4 <system_clock_source_enable>:
     ea4:	2808      	cmp	r0, #8
     ea6:	d803      	bhi.n	eb0 <system_clock_source_enable+0xc>
     ea8:	0080      	lsls	r0, r0, #2
     eaa:	4b25      	ldr	r3, [pc, #148]	; (f40 <system_clock_source_enable+0x9c>)
     eac:	581b      	ldr	r3, [r3, r0]
     eae:	469f      	mov	pc, r3
     eb0:	2017      	movs	r0, #23
     eb2:	e044      	b.n	f3e <system_clock_source_enable+0x9a>
     eb4:	4a23      	ldr	r2, [pc, #140]	; (f44 <system_clock_source_enable+0xa0>)
     eb6:	6a13      	ldr	r3, [r2, #32]
     eb8:	2102      	movs	r1, #2
     eba:	430b      	orrs	r3, r1
     ebc:	6213      	str	r3, [r2, #32]
     ebe:	2000      	movs	r0, #0
     ec0:	e03d      	b.n	f3e <system_clock_source_enable+0x9a>
     ec2:	4a20      	ldr	r2, [pc, #128]	; (f44 <system_clock_source_enable+0xa0>)
     ec4:	6993      	ldr	r3, [r2, #24]
     ec6:	2102      	movs	r1, #2
     ec8:	430b      	orrs	r3, r1
     eca:	6193      	str	r3, [r2, #24]
     ecc:	2000      	movs	r0, #0
     ece:	e036      	b.n	f3e <system_clock_source_enable+0x9a>
     ed0:	4a1c      	ldr	r2, [pc, #112]	; (f44 <system_clock_source_enable+0xa0>)
     ed2:	8a13      	ldrh	r3, [r2, #16]
     ed4:	2102      	movs	r1, #2
     ed6:	430b      	orrs	r3, r1
     ed8:	8213      	strh	r3, [r2, #16]
     eda:	2000      	movs	r0, #0
     edc:	e02f      	b.n	f3e <system_clock_source_enable+0x9a>
     ede:	4a19      	ldr	r2, [pc, #100]	; (f44 <system_clock_source_enable+0xa0>)
     ee0:	8a93      	ldrh	r3, [r2, #20]
     ee2:	2102      	movs	r1, #2
     ee4:	430b      	orrs	r3, r1
     ee6:	8293      	strh	r3, [r2, #20]
     ee8:	2000      	movs	r0, #0
     eea:	e028      	b.n	f3e <system_clock_source_enable+0x9a>
     eec:	4916      	ldr	r1, [pc, #88]	; (f48 <system_clock_source_enable+0xa4>)
     eee:	680b      	ldr	r3, [r1, #0]
     ef0:	2202      	movs	r2, #2
     ef2:	4313      	orrs	r3, r2
     ef4:	600b      	str	r3, [r1, #0]
     ef6:	4b13      	ldr	r3, [pc, #76]	; (f44 <system_clock_source_enable+0xa0>)
     ef8:	849a      	strh	r2, [r3, #36]	; 0x24
     efa:	0019      	movs	r1, r3
     efc:	320e      	adds	r2, #14
     efe:	68cb      	ldr	r3, [r1, #12]
     f00:	421a      	tst	r2, r3
     f02:	d0fc      	beq.n	efe <system_clock_source_enable+0x5a>
     f04:	4a10      	ldr	r2, [pc, #64]	; (f48 <system_clock_source_enable+0xa4>)
     f06:	6891      	ldr	r1, [r2, #8]
     f08:	4b0e      	ldr	r3, [pc, #56]	; (f44 <system_clock_source_enable+0xa0>)
     f0a:	62d9      	str	r1, [r3, #44]	; 0x2c
     f0c:	6852      	ldr	r2, [r2, #4]
     f0e:	629a      	str	r2, [r3, #40]	; 0x28
     f10:	2200      	movs	r2, #0
     f12:	849a      	strh	r2, [r3, #36]	; 0x24
     f14:	0019      	movs	r1, r3
     f16:	3210      	adds	r2, #16
     f18:	68cb      	ldr	r3, [r1, #12]
     f1a:	421a      	tst	r2, r3
     f1c:	d0fc      	beq.n	f18 <system_clock_source_enable+0x74>
     f1e:	4b0a      	ldr	r3, [pc, #40]	; (f48 <system_clock_source_enable+0xa4>)
     f20:	681b      	ldr	r3, [r3, #0]
     f22:	b29b      	uxth	r3, r3
     f24:	4a07      	ldr	r2, [pc, #28]	; (f44 <system_clock_source_enable+0xa0>)
     f26:	8493      	strh	r3, [r2, #36]	; 0x24
     f28:	2000      	movs	r0, #0
     f2a:	e008      	b.n	f3e <system_clock_source_enable+0x9a>
     f2c:	4905      	ldr	r1, [pc, #20]	; (f44 <system_clock_source_enable+0xa0>)
     f2e:	2244      	movs	r2, #68	; 0x44
     f30:	5c8b      	ldrb	r3, [r1, r2]
     f32:	2002      	movs	r0, #2
     f34:	4303      	orrs	r3, r0
     f36:	548b      	strb	r3, [r1, r2]
     f38:	2000      	movs	r0, #0
     f3a:	e000      	b.n	f3e <system_clock_source_enable+0x9a>
     f3c:	2000      	movs	r0, #0
     f3e:	4770      	bx	lr
     f40:	00003624 	.word	0x00003624
     f44:	40000800 	.word	0x40000800
     f48:	20000214 	.word	0x20000214

00000f4c <system_clock_init>:
     f4c:	b5f0      	push	{r4, r5, r6, r7, lr}
     f4e:	b08f      	sub	sp, #60	; 0x3c
     f50:	22c2      	movs	r2, #194	; 0xc2
     f52:	00d2      	lsls	r2, r2, #3
     f54:	4b47      	ldr	r3, [pc, #284]	; (1074 <system_clock_init+0x128>)
     f56:	609a      	str	r2, [r3, #8]
     f58:	4a47      	ldr	r2, [pc, #284]	; (1078 <system_clock_init+0x12c>)
     f5a:	6853      	ldr	r3, [r2, #4]
     f5c:	211e      	movs	r1, #30
     f5e:	438b      	bics	r3, r1
     f60:	391a      	subs	r1, #26
     f62:	430b      	orrs	r3, r1
     f64:	6053      	str	r3, [r2, #4]
     f66:	2202      	movs	r2, #2
     f68:	ab01      	add	r3, sp, #4
     f6a:	701a      	strb	r2, [r3, #0]
     f6c:	2400      	movs	r4, #0
     f6e:	4d43      	ldr	r5, [pc, #268]	; (107c <system_clock_init+0x130>)
     f70:	b2e0      	uxtb	r0, r4
     f72:	a901      	add	r1, sp, #4
     f74:	47a8      	blx	r5
     f76:	3401      	adds	r4, #1
     f78:	2c25      	cmp	r4, #37	; 0x25
     f7a:	d1f9      	bne.n	f70 <system_clock_init+0x24>
     f7c:	a80a      	add	r0, sp, #40	; 0x28
     f7e:	2300      	movs	r3, #0
     f80:	7003      	strb	r3, [r0, #0]
     f82:	7083      	strb	r3, [r0, #2]
     f84:	2280      	movs	r2, #128	; 0x80
     f86:	0212      	lsls	r2, r2, #8
     f88:	6082      	str	r2, [r0, #8]
     f8a:	70c3      	strb	r3, [r0, #3]
     f8c:	2201      	movs	r2, #1
     f8e:	7102      	strb	r2, [r0, #4]
     f90:	7303      	strb	r3, [r0, #12]
     f92:	7383      	strb	r3, [r0, #14]
     f94:	3202      	adds	r2, #2
     f96:	7042      	strb	r2, [r0, #1]
     f98:	7343      	strb	r3, [r0, #13]
     f9a:	4b39      	ldr	r3, [pc, #228]	; (1080 <system_clock_init+0x134>)
     f9c:	4798      	blx	r3
     f9e:	2005      	movs	r0, #5
     fa0:	4b38      	ldr	r3, [pc, #224]	; (1084 <system_clock_init+0x138>)
     fa2:	4798      	blx	r3
     fa4:	4933      	ldr	r1, [pc, #204]	; (1074 <system_clock_init+0x128>)
     fa6:	2202      	movs	r2, #2
     fa8:	68cb      	ldr	r3, [r1, #12]
     faa:	421a      	tst	r2, r3
     fac:	d0fc      	beq.n	fa8 <system_clock_init+0x5c>
     fae:	4a31      	ldr	r2, [pc, #196]	; (1074 <system_clock_init+0x128>)
     fb0:	8a93      	ldrh	r3, [r2, #20]
     fb2:	2180      	movs	r1, #128	; 0x80
     fb4:	430b      	orrs	r3, r1
     fb6:	8293      	strh	r3, [r2, #20]
     fb8:	ab05      	add	r3, sp, #20
     fba:	2100      	movs	r1, #0
     fbc:	2200      	movs	r2, #0
     fbe:	8059      	strh	r1, [r3, #2]
     fc0:	8099      	strh	r1, [r3, #4]
     fc2:	719a      	strb	r2, [r3, #6]
     fc4:	71da      	strb	r2, [r3, #7]
     fc6:	313f      	adds	r1, #63	; 0x3f
     fc8:	8159      	strh	r1, [r3, #10]
     fca:	393b      	subs	r1, #59	; 0x3b
     fcc:	7019      	strb	r1, [r3, #0]
     fce:	705a      	strb	r2, [r3, #1]
     fd0:	4b2d      	ldr	r3, [pc, #180]	; (1088 <system_clock_init+0x13c>)
     fd2:	681b      	ldr	r3, [r3, #0]
     fd4:	0e9b      	lsrs	r3, r3, #26
     fd6:	2b3f      	cmp	r3, #63	; 0x3f
     fd8:	d04a      	beq.n	1070 <system_clock_init+0x124>
     fda:	a805      	add	r0, sp, #20
     fdc:	7203      	strb	r3, [r0, #8]
     fde:	4b2b      	ldr	r3, [pc, #172]	; (108c <system_clock_init+0x140>)
     fe0:	8203      	strh	r3, [r0, #16]
     fe2:	2307      	movs	r3, #7
     fe4:	7303      	strb	r3, [r0, #12]
     fe6:	3338      	adds	r3, #56	; 0x38
     fe8:	81c3      	strh	r3, [r0, #14]
     fea:	4b29      	ldr	r3, [pc, #164]	; (1090 <system_clock_init+0x144>)
     fec:	4798      	blx	r3
     fee:	a804      	add	r0, sp, #16
     ff0:	2500      	movs	r5, #0
     ff2:	7045      	strb	r5, [r0, #1]
     ff4:	2601      	movs	r6, #1
     ff6:	7086      	strb	r6, [r0, #2]
     ff8:	7005      	strb	r5, [r0, #0]
     ffa:	4b26      	ldr	r3, [pc, #152]	; (1094 <system_clock_init+0x148>)
     ffc:	4798      	blx	r3
     ffe:	2006      	movs	r0, #6
    1000:	4f20      	ldr	r7, [pc, #128]	; (1084 <system_clock_init+0x138>)
    1002:	47b8      	blx	r7
    1004:	4b24      	ldr	r3, [pc, #144]	; (1098 <system_clock_init+0x14c>)
    1006:	4798      	blx	r3
    1008:	ac01      	add	r4, sp, #4
    100a:	9602      	str	r6, [sp, #8]
    100c:	7065      	strb	r5, [r4, #1]
    100e:	7225      	strb	r5, [r4, #8]
    1010:	7265      	strb	r5, [r4, #9]
    1012:	2305      	movs	r3, #5
    1014:	7023      	strb	r3, [r4, #0]
    1016:	0021      	movs	r1, r4
    1018:	2001      	movs	r0, #1
    101a:	4b20      	ldr	r3, [pc, #128]	; (109c <system_clock_init+0x150>)
    101c:	4798      	blx	r3
    101e:	2001      	movs	r0, #1
    1020:	4b1f      	ldr	r3, [pc, #124]	; (10a0 <system_clock_init+0x154>)
    1022:	4798      	blx	r3
    1024:	7026      	strb	r6, [r4, #0]
    1026:	0021      	movs	r1, r4
    1028:	2000      	movs	r0, #0
    102a:	4b14      	ldr	r3, [pc, #80]	; (107c <system_clock_init+0x130>)
    102c:	4798      	blx	r3
    102e:	2000      	movs	r0, #0
    1030:	4b1c      	ldr	r3, [pc, #112]	; (10a4 <system_clock_init+0x158>)
    1032:	4798      	blx	r3
    1034:	2007      	movs	r0, #7
    1036:	47b8      	blx	r7
    1038:	490e      	ldr	r1, [pc, #56]	; (1074 <system_clock_init+0x128>)
    103a:	22d0      	movs	r2, #208	; 0xd0
    103c:	68cb      	ldr	r3, [r1, #12]
    103e:	4013      	ands	r3, r2
    1040:	2bd0      	cmp	r3, #208	; 0xd0
    1042:	d1fb      	bne.n	103c <system_clock_init+0xf0>
    1044:	4a18      	ldr	r2, [pc, #96]	; (10a8 <system_clock_init+0x15c>)
    1046:	2300      	movs	r3, #0
    1048:	7213      	strb	r3, [r2, #8]
    104a:	7253      	strb	r3, [r2, #9]
    104c:	7293      	strb	r3, [r2, #10]
    104e:	72d3      	strb	r3, [r2, #11]
    1050:	a901      	add	r1, sp, #4
    1052:	2201      	movs	r2, #1
    1054:	604a      	str	r2, [r1, #4]
    1056:	704b      	strb	r3, [r1, #1]
    1058:	720b      	strb	r3, [r1, #8]
    105a:	724b      	strb	r3, [r1, #9]
    105c:	3307      	adds	r3, #7
    105e:	700b      	strb	r3, [r1, #0]
    1060:	2000      	movs	r0, #0
    1062:	4b0e      	ldr	r3, [pc, #56]	; (109c <system_clock_init+0x150>)
    1064:	4798      	blx	r3
    1066:	2000      	movs	r0, #0
    1068:	4b0d      	ldr	r3, [pc, #52]	; (10a0 <system_clock_init+0x154>)
    106a:	4798      	blx	r3
    106c:	b00f      	add	sp, #60	; 0x3c
    106e:	bdf0      	pop	{r4, r5, r6, r7, pc}
    1070:	3b20      	subs	r3, #32
    1072:	e7b2      	b.n	fda <system_clock_init+0x8e>
    1074:	40000800 	.word	0x40000800
    1078:	41004000 	.word	0x41004000
    107c:	000012e5 	.word	0x000012e5
    1080:	00000d6d 	.word	0x00000d6d
    1084:	00000ea5 	.word	0x00000ea5
    1088:	00806024 	.word	0x00806024
    108c:	000005b9 	.word	0x000005b9
    1090:	00000e25 	.word	0x00000e25
    1094:	00000d31 	.word	0x00000d31
    1098:	000010ad 	.word	0x000010ad
    109c:	000010d1 	.word	0x000010d1
    10a0:	00001189 	.word	0x00001189
    10a4:	00001259 	.word	0x00001259
    10a8:	40000400 	.word	0x40000400

000010ac <system_gclk_init>:
    10ac:	4a06      	ldr	r2, [pc, #24]	; (10c8 <system_gclk_init+0x1c>)
    10ae:	6993      	ldr	r3, [r2, #24]
    10b0:	2108      	movs	r1, #8
    10b2:	430b      	orrs	r3, r1
    10b4:	6193      	str	r3, [r2, #24]
    10b6:	2201      	movs	r2, #1
    10b8:	4b04      	ldr	r3, [pc, #16]	; (10cc <system_gclk_init+0x20>)
    10ba:	701a      	strb	r2, [r3, #0]
    10bc:	0019      	movs	r1, r3
    10be:	780b      	ldrb	r3, [r1, #0]
    10c0:	4213      	tst	r3, r2
    10c2:	d1fc      	bne.n	10be <system_gclk_init+0x12>
    10c4:	4770      	bx	lr
    10c6:	46c0      	nop			; (mov r8, r8)
    10c8:	40000400 	.word	0x40000400
    10cc:	40000c00 	.word	0x40000c00

000010d0 <system_gclk_gen_set_config>:
    10d0:	b570      	push	{r4, r5, r6, lr}
    10d2:	0006      	movs	r6, r0
    10d4:	0004      	movs	r4, r0
    10d6:	780d      	ldrb	r5, [r1, #0]
    10d8:	022d      	lsls	r5, r5, #8
    10da:	4305      	orrs	r5, r0
    10dc:	784b      	ldrb	r3, [r1, #1]
    10de:	2b00      	cmp	r3, #0
    10e0:	d002      	beq.n	10e8 <system_gclk_gen_set_config+0x18>
    10e2:	2380      	movs	r3, #128	; 0x80
    10e4:	02db      	lsls	r3, r3, #11
    10e6:	431d      	orrs	r5, r3
    10e8:	7a4b      	ldrb	r3, [r1, #9]
    10ea:	2b00      	cmp	r3, #0
    10ec:	d002      	beq.n	10f4 <system_gclk_gen_set_config+0x24>
    10ee:	2380      	movs	r3, #128	; 0x80
    10f0:	031b      	lsls	r3, r3, #12
    10f2:	431d      	orrs	r5, r3
    10f4:	6848      	ldr	r0, [r1, #4]
    10f6:	2801      	cmp	r0, #1
    10f8:	d910      	bls.n	111c <system_gclk_gen_set_config+0x4c>
    10fa:	1e43      	subs	r3, r0, #1
    10fc:	4218      	tst	r0, r3
    10fe:	d134      	bne.n	116a <system_gclk_gen_set_config+0x9a>
    1100:	2802      	cmp	r0, #2
    1102:	d930      	bls.n	1166 <system_gclk_gen_set_config+0x96>
    1104:	2302      	movs	r3, #2
    1106:	2200      	movs	r2, #0
    1108:	3201      	adds	r2, #1
    110a:	005b      	lsls	r3, r3, #1
    110c:	4298      	cmp	r0, r3
    110e:	d8fb      	bhi.n	1108 <system_gclk_gen_set_config+0x38>
    1110:	0212      	lsls	r2, r2, #8
    1112:	4332      	orrs	r2, r6
    1114:	0014      	movs	r4, r2
    1116:	2380      	movs	r3, #128	; 0x80
    1118:	035b      	lsls	r3, r3, #13
    111a:	431d      	orrs	r5, r3
    111c:	7a0b      	ldrb	r3, [r1, #8]
    111e:	2b00      	cmp	r3, #0
    1120:	d002      	beq.n	1128 <system_gclk_gen_set_config+0x58>
    1122:	2380      	movs	r3, #128	; 0x80
    1124:	039b      	lsls	r3, r3, #14
    1126:	431d      	orrs	r5, r3
    1128:	4a13      	ldr	r2, [pc, #76]	; (1178 <system_gclk_gen_set_config+0xa8>)
    112a:	7853      	ldrb	r3, [r2, #1]
    112c:	b25b      	sxtb	r3, r3
    112e:	2b00      	cmp	r3, #0
    1130:	dbfb      	blt.n	112a <system_gclk_gen_set_config+0x5a>
    1132:	4b12      	ldr	r3, [pc, #72]	; (117c <system_gclk_gen_set_config+0xac>)
    1134:	4798      	blx	r3
    1136:	4b12      	ldr	r3, [pc, #72]	; (1180 <system_gclk_gen_set_config+0xb0>)
    1138:	701e      	strb	r6, [r3, #0]
    113a:	4a0f      	ldr	r2, [pc, #60]	; (1178 <system_gclk_gen_set_config+0xa8>)
    113c:	7853      	ldrb	r3, [r2, #1]
    113e:	b25b      	sxtb	r3, r3
    1140:	2b00      	cmp	r3, #0
    1142:	dbfb      	blt.n	113c <system_gclk_gen_set_config+0x6c>
    1144:	4b0c      	ldr	r3, [pc, #48]	; (1178 <system_gclk_gen_set_config+0xa8>)
    1146:	609c      	str	r4, [r3, #8]
    1148:	001a      	movs	r2, r3
    114a:	7853      	ldrb	r3, [r2, #1]
    114c:	b25b      	sxtb	r3, r3
    114e:	2b00      	cmp	r3, #0
    1150:	dbfb      	blt.n	114a <system_gclk_gen_set_config+0x7a>
    1152:	4a09      	ldr	r2, [pc, #36]	; (1178 <system_gclk_gen_set_config+0xa8>)
    1154:	6853      	ldr	r3, [r2, #4]
    1156:	2180      	movs	r1, #128	; 0x80
    1158:	0249      	lsls	r1, r1, #9
    115a:	400b      	ands	r3, r1
    115c:	431d      	orrs	r5, r3
    115e:	6055      	str	r5, [r2, #4]
    1160:	4b08      	ldr	r3, [pc, #32]	; (1184 <system_gclk_gen_set_config+0xb4>)
    1162:	4798      	blx	r3
    1164:	bd70      	pop	{r4, r5, r6, pc}
    1166:	2200      	movs	r2, #0
    1168:	e7d2      	b.n	1110 <system_gclk_gen_set_config+0x40>
    116a:	0204      	lsls	r4, r0, #8
    116c:	4334      	orrs	r4, r6
    116e:	2380      	movs	r3, #128	; 0x80
    1170:	029b      	lsls	r3, r3, #10
    1172:	431d      	orrs	r5, r3
    1174:	e7d2      	b.n	111c <system_gclk_gen_set_config+0x4c>
    1176:	46c0      	nop			; (mov r8, r8)
    1178:	40000c00 	.word	0x40000c00
    117c:	00000bd5 	.word	0x00000bd5
    1180:	40000c08 	.word	0x40000c08
    1184:	00000c15 	.word	0x00000c15

00001188 <system_gclk_gen_enable>:
    1188:	b510      	push	{r4, lr}
    118a:	0004      	movs	r4, r0
    118c:	4a0b      	ldr	r2, [pc, #44]	; (11bc <system_gclk_gen_enable+0x34>)
    118e:	7853      	ldrb	r3, [r2, #1]
    1190:	b25b      	sxtb	r3, r3
    1192:	2b00      	cmp	r3, #0
    1194:	dbfb      	blt.n	118e <system_gclk_gen_enable+0x6>
    1196:	4b0a      	ldr	r3, [pc, #40]	; (11c0 <system_gclk_gen_enable+0x38>)
    1198:	4798      	blx	r3
    119a:	4b0a      	ldr	r3, [pc, #40]	; (11c4 <system_gclk_gen_enable+0x3c>)
    119c:	701c      	strb	r4, [r3, #0]
    119e:	4a07      	ldr	r2, [pc, #28]	; (11bc <system_gclk_gen_enable+0x34>)
    11a0:	7853      	ldrb	r3, [r2, #1]
    11a2:	b25b      	sxtb	r3, r3
    11a4:	2b00      	cmp	r3, #0
    11a6:	dbfb      	blt.n	11a0 <system_gclk_gen_enable+0x18>
    11a8:	4a04      	ldr	r2, [pc, #16]	; (11bc <system_gclk_gen_enable+0x34>)
    11aa:	6851      	ldr	r1, [r2, #4]
    11ac:	2380      	movs	r3, #128	; 0x80
    11ae:	025b      	lsls	r3, r3, #9
    11b0:	430b      	orrs	r3, r1
    11b2:	6053      	str	r3, [r2, #4]
    11b4:	4b04      	ldr	r3, [pc, #16]	; (11c8 <system_gclk_gen_enable+0x40>)
    11b6:	4798      	blx	r3
    11b8:	bd10      	pop	{r4, pc}
    11ba:	46c0      	nop			; (mov r8, r8)
    11bc:	40000c00 	.word	0x40000c00
    11c0:	00000bd5 	.word	0x00000bd5
    11c4:	40000c04 	.word	0x40000c04
    11c8:	00000c15 	.word	0x00000c15

000011cc <system_gclk_gen_get_hz>:
    11cc:	b570      	push	{r4, r5, r6, lr}
    11ce:	0004      	movs	r4, r0
    11d0:	4a1a      	ldr	r2, [pc, #104]	; (123c <system_gclk_gen_get_hz+0x70>)
    11d2:	7853      	ldrb	r3, [r2, #1]
    11d4:	b25b      	sxtb	r3, r3
    11d6:	2b00      	cmp	r3, #0
    11d8:	dbfb      	blt.n	11d2 <system_gclk_gen_get_hz+0x6>
    11da:	4b19      	ldr	r3, [pc, #100]	; (1240 <system_gclk_gen_get_hz+0x74>)
    11dc:	4798      	blx	r3
    11de:	4b19      	ldr	r3, [pc, #100]	; (1244 <system_gclk_gen_get_hz+0x78>)
    11e0:	701c      	strb	r4, [r3, #0]
    11e2:	4a16      	ldr	r2, [pc, #88]	; (123c <system_gclk_gen_get_hz+0x70>)
    11e4:	7853      	ldrb	r3, [r2, #1]
    11e6:	b25b      	sxtb	r3, r3
    11e8:	2b00      	cmp	r3, #0
    11ea:	dbfb      	blt.n	11e4 <system_gclk_gen_get_hz+0x18>
    11ec:	4e13      	ldr	r6, [pc, #76]	; (123c <system_gclk_gen_get_hz+0x70>)
    11ee:	6870      	ldr	r0, [r6, #4]
    11f0:	04c0      	lsls	r0, r0, #19
    11f2:	0ec0      	lsrs	r0, r0, #27
    11f4:	4b14      	ldr	r3, [pc, #80]	; (1248 <system_gclk_gen_get_hz+0x7c>)
    11f6:	4798      	blx	r3
    11f8:	0005      	movs	r5, r0
    11fa:	4b12      	ldr	r3, [pc, #72]	; (1244 <system_gclk_gen_get_hz+0x78>)
    11fc:	701c      	strb	r4, [r3, #0]
    11fe:	6876      	ldr	r6, [r6, #4]
    1200:	02f6      	lsls	r6, r6, #11
    1202:	0ff6      	lsrs	r6, r6, #31
    1204:	4b11      	ldr	r3, [pc, #68]	; (124c <system_gclk_gen_get_hz+0x80>)
    1206:	701c      	strb	r4, [r3, #0]
    1208:	4a0c      	ldr	r2, [pc, #48]	; (123c <system_gclk_gen_get_hz+0x70>)
    120a:	7853      	ldrb	r3, [r2, #1]
    120c:	b25b      	sxtb	r3, r3
    120e:	2b00      	cmp	r3, #0
    1210:	dbfb      	blt.n	120a <system_gclk_gen_get_hz+0x3e>
    1212:	4b0a      	ldr	r3, [pc, #40]	; (123c <system_gclk_gen_get_hz+0x70>)
    1214:	689c      	ldr	r4, [r3, #8]
    1216:	0224      	lsls	r4, r4, #8
    1218:	0c24      	lsrs	r4, r4, #16
    121a:	4b0d      	ldr	r3, [pc, #52]	; (1250 <system_gclk_gen_get_hz+0x84>)
    121c:	4798      	blx	r3
    121e:	2e00      	cmp	r6, #0
    1220:	d107      	bne.n	1232 <system_gclk_gen_get_hz+0x66>
    1222:	2c01      	cmp	r4, #1
    1224:	d907      	bls.n	1236 <system_gclk_gen_get_hz+0x6a>
    1226:	0021      	movs	r1, r4
    1228:	0028      	movs	r0, r5
    122a:	4b0a      	ldr	r3, [pc, #40]	; (1254 <system_gclk_gen_get_hz+0x88>)
    122c:	4798      	blx	r3
    122e:	0005      	movs	r5, r0
    1230:	e001      	b.n	1236 <system_gclk_gen_get_hz+0x6a>
    1232:	3401      	adds	r4, #1
    1234:	40e5      	lsrs	r5, r4
    1236:	0028      	movs	r0, r5
    1238:	bd70      	pop	{r4, r5, r6, pc}
    123a:	46c0      	nop			; (mov r8, r8)
    123c:	40000c00 	.word	0x40000c00
    1240:	00000bd5 	.word	0x00000bd5
    1244:	40000c04 	.word	0x40000c04
    1248:	00000ca1 	.word	0x00000ca1
    124c:	40000c08 	.word	0x40000c08
    1250:	00000c15 	.word	0x00000c15
    1254:	00001765 	.word	0x00001765

00001258 <system_gclk_chan_enable>:
    1258:	b510      	push	{r4, lr}
    125a:	0004      	movs	r4, r0
    125c:	4b06      	ldr	r3, [pc, #24]	; (1278 <system_gclk_chan_enable+0x20>)
    125e:	4798      	blx	r3
    1260:	4b06      	ldr	r3, [pc, #24]	; (127c <system_gclk_chan_enable+0x24>)
    1262:	701c      	strb	r4, [r3, #0]
    1264:	4a06      	ldr	r2, [pc, #24]	; (1280 <system_gclk_chan_enable+0x28>)
    1266:	8853      	ldrh	r3, [r2, #2]
    1268:	2180      	movs	r1, #128	; 0x80
    126a:	01c9      	lsls	r1, r1, #7
    126c:	430b      	orrs	r3, r1
    126e:	8053      	strh	r3, [r2, #2]
    1270:	4b04      	ldr	r3, [pc, #16]	; (1284 <system_gclk_chan_enable+0x2c>)
    1272:	4798      	blx	r3
    1274:	bd10      	pop	{r4, pc}
    1276:	46c0      	nop			; (mov r8, r8)
    1278:	00000bd5 	.word	0x00000bd5
    127c:	40000c02 	.word	0x40000c02
    1280:	40000c00 	.word	0x40000c00
    1284:	00000c15 	.word	0x00000c15

00001288 <system_gclk_chan_disable>:
    1288:	b510      	push	{r4, lr}
    128a:	0004      	movs	r4, r0
    128c:	4b0f      	ldr	r3, [pc, #60]	; (12cc <system_gclk_chan_disable+0x44>)
    128e:	4798      	blx	r3
    1290:	4b0f      	ldr	r3, [pc, #60]	; (12d0 <system_gclk_chan_disable+0x48>)
    1292:	701c      	strb	r4, [r3, #0]
    1294:	4a0f      	ldr	r2, [pc, #60]	; (12d4 <system_gclk_chan_disable+0x4c>)
    1296:	8853      	ldrh	r3, [r2, #2]
    1298:	051b      	lsls	r3, r3, #20
    129a:	0f18      	lsrs	r0, r3, #28
    129c:	8853      	ldrh	r3, [r2, #2]
    129e:	490e      	ldr	r1, [pc, #56]	; (12d8 <system_gclk_chan_disable+0x50>)
    12a0:	400b      	ands	r3, r1
    12a2:	8053      	strh	r3, [r2, #2]
    12a4:	8853      	ldrh	r3, [r2, #2]
    12a6:	490d      	ldr	r1, [pc, #52]	; (12dc <system_gclk_chan_disable+0x54>)
    12a8:	400b      	ands	r3, r1
    12aa:	8053      	strh	r3, [r2, #2]
    12ac:	0011      	movs	r1, r2
    12ae:	2280      	movs	r2, #128	; 0x80
    12b0:	01d2      	lsls	r2, r2, #7
    12b2:	884b      	ldrh	r3, [r1, #2]
    12b4:	4213      	tst	r3, r2
    12b6:	d1fc      	bne.n	12b2 <system_gclk_chan_disable+0x2a>
    12b8:	4906      	ldr	r1, [pc, #24]	; (12d4 <system_gclk_chan_disable+0x4c>)
    12ba:	884a      	ldrh	r2, [r1, #2]
    12bc:	0203      	lsls	r3, r0, #8
    12be:	4806      	ldr	r0, [pc, #24]	; (12d8 <system_gclk_chan_disable+0x50>)
    12c0:	4002      	ands	r2, r0
    12c2:	4313      	orrs	r3, r2
    12c4:	804b      	strh	r3, [r1, #2]
    12c6:	4b06      	ldr	r3, [pc, #24]	; (12e0 <system_gclk_chan_disable+0x58>)
    12c8:	4798      	blx	r3
    12ca:	bd10      	pop	{r4, pc}
    12cc:	00000bd5 	.word	0x00000bd5
    12d0:	40000c02 	.word	0x40000c02
    12d4:	40000c00 	.word	0x40000c00
    12d8:	fffff0ff 	.word	0xfffff0ff
    12dc:	ffffbfff 	.word	0xffffbfff
    12e0:	00000c15 	.word	0x00000c15

000012e4 <system_gclk_chan_set_config>:
    12e4:	b510      	push	{r4, lr}
    12e6:	780c      	ldrb	r4, [r1, #0]
    12e8:	0224      	lsls	r4, r4, #8
    12ea:	4304      	orrs	r4, r0
    12ec:	4b02      	ldr	r3, [pc, #8]	; (12f8 <system_gclk_chan_set_config+0x14>)
    12ee:	4798      	blx	r3
    12f0:	b2a4      	uxth	r4, r4
    12f2:	4b02      	ldr	r3, [pc, #8]	; (12fc <system_gclk_chan_set_config+0x18>)
    12f4:	805c      	strh	r4, [r3, #2]
    12f6:	bd10      	pop	{r4, pc}
    12f8:	00001289 	.word	0x00001289
    12fc:	40000c00 	.word	0x40000c00

00001300 <system_gclk_chan_get_hz>:
    1300:	b510      	push	{r4, lr}
    1302:	0004      	movs	r4, r0
    1304:	4b06      	ldr	r3, [pc, #24]	; (1320 <system_gclk_chan_get_hz+0x20>)
    1306:	4798      	blx	r3
    1308:	4b06      	ldr	r3, [pc, #24]	; (1324 <system_gclk_chan_get_hz+0x24>)
    130a:	701c      	strb	r4, [r3, #0]
    130c:	4b06      	ldr	r3, [pc, #24]	; (1328 <system_gclk_chan_get_hz+0x28>)
    130e:	885c      	ldrh	r4, [r3, #2]
    1310:	0524      	lsls	r4, r4, #20
    1312:	0f24      	lsrs	r4, r4, #28
    1314:	4b05      	ldr	r3, [pc, #20]	; (132c <system_gclk_chan_get_hz+0x2c>)
    1316:	4798      	blx	r3
    1318:	0020      	movs	r0, r4
    131a:	4b05      	ldr	r3, [pc, #20]	; (1330 <system_gclk_chan_get_hz+0x30>)
    131c:	4798      	blx	r3
    131e:	bd10      	pop	{r4, pc}
    1320:	00000bd5 	.word	0x00000bd5
    1324:	40000c02 	.word	0x40000c02
    1328:	40000c00 	.word	0x40000c00
    132c:	00000c15 	.word	0x00000c15
    1330:	000011cd 	.word	0x000011cd

00001334 <_system_pinmux_config>:
    1334:	b530      	push	{r4, r5, lr}
    1336:	78d3      	ldrb	r3, [r2, #3]
    1338:	2b00      	cmp	r3, #0
    133a:	d135      	bne.n	13a8 <_system_pinmux_config+0x74>
    133c:	7813      	ldrb	r3, [r2, #0]
    133e:	2b80      	cmp	r3, #128	; 0x80
    1340:	d029      	beq.n	1396 <_system_pinmux_config+0x62>
    1342:	061b      	lsls	r3, r3, #24
    1344:	2480      	movs	r4, #128	; 0x80
    1346:	0264      	lsls	r4, r4, #9
    1348:	4323      	orrs	r3, r4
    134a:	7854      	ldrb	r4, [r2, #1]
    134c:	2502      	movs	r5, #2
    134e:	43ac      	bics	r4, r5
    1350:	d106      	bne.n	1360 <_system_pinmux_config+0x2c>
    1352:	7894      	ldrb	r4, [r2, #2]
    1354:	2c00      	cmp	r4, #0
    1356:	d120      	bne.n	139a <_system_pinmux_config+0x66>
    1358:	2480      	movs	r4, #128	; 0x80
    135a:	02a4      	lsls	r4, r4, #10
    135c:	4323      	orrs	r3, r4
    135e:	6041      	str	r1, [r0, #4]
    1360:	7854      	ldrb	r4, [r2, #1]
    1362:	3c01      	subs	r4, #1
    1364:	2c01      	cmp	r4, #1
    1366:	d91c      	bls.n	13a2 <_system_pinmux_config+0x6e>
    1368:	040d      	lsls	r5, r1, #16
    136a:	0c2d      	lsrs	r5, r5, #16
    136c:	24a0      	movs	r4, #160	; 0xa0
    136e:	05e4      	lsls	r4, r4, #23
    1370:	432c      	orrs	r4, r5
    1372:	431c      	orrs	r4, r3
    1374:	6284      	str	r4, [r0, #40]	; 0x28
    1376:	0c0d      	lsrs	r5, r1, #16
    1378:	24d0      	movs	r4, #208	; 0xd0
    137a:	0624      	lsls	r4, r4, #24
    137c:	432c      	orrs	r4, r5
    137e:	431c      	orrs	r4, r3
    1380:	6284      	str	r4, [r0, #40]	; 0x28
    1382:	78d4      	ldrb	r4, [r2, #3]
    1384:	2c00      	cmp	r4, #0
    1386:	d122      	bne.n	13ce <_system_pinmux_config+0x9a>
    1388:	035b      	lsls	r3, r3, #13
    138a:	d51c      	bpl.n	13c6 <_system_pinmux_config+0x92>
    138c:	7893      	ldrb	r3, [r2, #2]
    138e:	2b01      	cmp	r3, #1
    1390:	d01e      	beq.n	13d0 <_system_pinmux_config+0x9c>
    1392:	6141      	str	r1, [r0, #20]
    1394:	e017      	b.n	13c6 <_system_pinmux_config+0x92>
    1396:	2300      	movs	r3, #0
    1398:	e7d7      	b.n	134a <_system_pinmux_config+0x16>
    139a:	24c0      	movs	r4, #192	; 0xc0
    139c:	02e4      	lsls	r4, r4, #11
    139e:	4323      	orrs	r3, r4
    13a0:	e7dd      	b.n	135e <_system_pinmux_config+0x2a>
    13a2:	4c0d      	ldr	r4, [pc, #52]	; (13d8 <_system_pinmux_config+0xa4>)
    13a4:	4023      	ands	r3, r4
    13a6:	e7df      	b.n	1368 <_system_pinmux_config+0x34>
    13a8:	6041      	str	r1, [r0, #4]
    13aa:	040c      	lsls	r4, r1, #16
    13ac:	0c24      	lsrs	r4, r4, #16
    13ae:	23a0      	movs	r3, #160	; 0xa0
    13b0:	05db      	lsls	r3, r3, #23
    13b2:	4323      	orrs	r3, r4
    13b4:	6283      	str	r3, [r0, #40]	; 0x28
    13b6:	0c0c      	lsrs	r4, r1, #16
    13b8:	23d0      	movs	r3, #208	; 0xd0
    13ba:	061b      	lsls	r3, r3, #24
    13bc:	4323      	orrs	r3, r4
    13be:	6283      	str	r3, [r0, #40]	; 0x28
    13c0:	78d3      	ldrb	r3, [r2, #3]
    13c2:	2b00      	cmp	r3, #0
    13c4:	d103      	bne.n	13ce <_system_pinmux_config+0x9a>
    13c6:	7853      	ldrb	r3, [r2, #1]
    13c8:	3b01      	subs	r3, #1
    13ca:	2b01      	cmp	r3, #1
    13cc:	d902      	bls.n	13d4 <_system_pinmux_config+0xa0>
    13ce:	bd30      	pop	{r4, r5, pc}
    13d0:	6181      	str	r1, [r0, #24]
    13d2:	e7f8      	b.n	13c6 <_system_pinmux_config+0x92>
    13d4:	6081      	str	r1, [r0, #8]
    13d6:	e7fa      	b.n	13ce <_system_pinmux_config+0x9a>
    13d8:	fffbffff 	.word	0xfffbffff

000013dc <system_pinmux_pin_set_config>:
    13dc:	b510      	push	{r4, lr}
    13de:	000a      	movs	r2, r1
    13e0:	09c1      	lsrs	r1, r0, #7
    13e2:	2300      	movs	r3, #0
    13e4:	2900      	cmp	r1, #0
    13e6:	d104      	bne.n	13f2 <system_pinmux_pin_set_config+0x16>
    13e8:	0943      	lsrs	r3, r0, #5
    13ea:	01db      	lsls	r3, r3, #7
    13ec:	4905      	ldr	r1, [pc, #20]	; (1404 <system_pinmux_pin_set_config+0x28>)
    13ee:	468c      	mov	ip, r1
    13f0:	4463      	add	r3, ip
    13f2:	241f      	movs	r4, #31
    13f4:	4020      	ands	r0, r4
    13f6:	2101      	movs	r1, #1
    13f8:	4081      	lsls	r1, r0
    13fa:	0018      	movs	r0, r3
    13fc:	4b02      	ldr	r3, [pc, #8]	; (1408 <system_pinmux_pin_set_config+0x2c>)
    13fe:	4798      	blx	r3
    1400:	bd10      	pop	{r4, pc}
    1402:	46c0      	nop			; (mov r8, r8)
    1404:	41004400 	.word	0x41004400
    1408:	00001335 	.word	0x00001335

0000140c <_system_dummy_init>:
    140c:	4770      	bx	lr
	...

00001410 <system_init>:
    1410:	b510      	push	{r4, lr}
    1412:	4b05      	ldr	r3, [pc, #20]	; (1428 <system_init+0x18>)
    1414:	4798      	blx	r3
    1416:	4b05      	ldr	r3, [pc, #20]	; (142c <system_init+0x1c>)
    1418:	4798      	blx	r3
    141a:	4b05      	ldr	r3, [pc, #20]	; (1430 <system_init+0x20>)
    141c:	4798      	blx	r3
    141e:	4b05      	ldr	r3, [pc, #20]	; (1434 <system_init+0x24>)
    1420:	4798      	blx	r3
    1422:	4b05      	ldr	r3, [pc, #20]	; (1438 <system_init+0x28>)
    1424:	4798      	blx	r3
    1426:	bd10      	pop	{r4, pc}
    1428:	00000f4d 	.word	0x00000f4d
    142c:	00000c45 	.word	0x00000c45
    1430:	0000140d 	.word	0x0000140d
    1434:	0000140d 	.word	0x0000140d
    1438:	0000140d 	.word	0x0000140d

0000143c <Dummy_Handler>:
    143c:	e7fe      	b.n	143c <Dummy_Handler>
	...

00001440 <Reset_Handler>:
    1440:	b5f8      	push	{r3, r4, r5, r6, r7, lr}
    1442:	4a2a      	ldr	r2, [pc, #168]	; (14ec <Reset_Handler+0xac>)
    1444:	4b2a      	ldr	r3, [pc, #168]	; (14f0 <Reset_Handler+0xb0>)
    1446:	429a      	cmp	r2, r3
    1448:	d011      	beq.n	146e <Reset_Handler+0x2e>
    144a:	001a      	movs	r2, r3
    144c:	4b29      	ldr	r3, [pc, #164]	; (14f4 <Reset_Handler+0xb4>)
    144e:	429a      	cmp	r2, r3
    1450:	d20d      	bcs.n	146e <Reset_Handler+0x2e>
    1452:	4a29      	ldr	r2, [pc, #164]	; (14f8 <Reset_Handler+0xb8>)
    1454:	3303      	adds	r3, #3
    1456:	1a9b      	subs	r3, r3, r2
    1458:	089b      	lsrs	r3, r3, #2
    145a:	3301      	adds	r3, #1
    145c:	009b      	lsls	r3, r3, #2
    145e:	2200      	movs	r2, #0
    1460:	4823      	ldr	r0, [pc, #140]	; (14f0 <Reset_Handler+0xb0>)
    1462:	4922      	ldr	r1, [pc, #136]	; (14ec <Reset_Handler+0xac>)
    1464:	588c      	ldr	r4, [r1, r2]
    1466:	5084      	str	r4, [r0, r2]
    1468:	3204      	adds	r2, #4
    146a:	429a      	cmp	r2, r3
    146c:	d1fa      	bne.n	1464 <Reset_Handler+0x24>
    146e:	4a23      	ldr	r2, [pc, #140]	; (14fc <Reset_Handler+0xbc>)
    1470:	4b23      	ldr	r3, [pc, #140]	; (1500 <Reset_Handler+0xc0>)
    1472:	429a      	cmp	r2, r3
    1474:	d20a      	bcs.n	148c <Reset_Handler+0x4c>
    1476:	43d3      	mvns	r3, r2
    1478:	4921      	ldr	r1, [pc, #132]	; (1500 <Reset_Handler+0xc0>)
    147a:	185b      	adds	r3, r3, r1
    147c:	2103      	movs	r1, #3
    147e:	438b      	bics	r3, r1
    1480:	3304      	adds	r3, #4
    1482:	189b      	adds	r3, r3, r2
    1484:	2100      	movs	r1, #0
    1486:	c202      	stmia	r2!, {r1}
    1488:	4293      	cmp	r3, r2
    148a:	d1fc      	bne.n	1486 <Reset_Handler+0x46>
    148c:	4a1d      	ldr	r2, [pc, #116]	; (1504 <Reset_Handler+0xc4>)
    148e:	21ff      	movs	r1, #255	; 0xff
    1490:	4b1d      	ldr	r3, [pc, #116]	; (1508 <Reset_Handler+0xc8>)
    1492:	438b      	bics	r3, r1
    1494:	6093      	str	r3, [r2, #8]
    1496:	39fd      	subs	r1, #253	; 0xfd
    1498:	2390      	movs	r3, #144	; 0x90
    149a:	005b      	lsls	r3, r3, #1
    149c:	4a1b      	ldr	r2, [pc, #108]	; (150c <Reset_Handler+0xcc>)
    149e:	50d1      	str	r1, [r2, r3]
    14a0:	4a1b      	ldr	r2, [pc, #108]	; (1510 <Reset_Handler+0xd0>)
    14a2:	78d3      	ldrb	r3, [r2, #3]
    14a4:	2503      	movs	r5, #3
    14a6:	43ab      	bics	r3, r5
    14a8:	2402      	movs	r4, #2
    14aa:	4323      	orrs	r3, r4
    14ac:	70d3      	strb	r3, [r2, #3]
    14ae:	78d3      	ldrb	r3, [r2, #3]
    14b0:	270c      	movs	r7, #12
    14b2:	43bb      	bics	r3, r7
    14b4:	2608      	movs	r6, #8
    14b6:	4333      	orrs	r3, r6
    14b8:	70d3      	strb	r3, [r2, #3]
    14ba:	4b16      	ldr	r3, [pc, #88]	; (1514 <Reset_Handler+0xd4>)
    14bc:	7b98      	ldrb	r0, [r3, #14]
    14be:	2230      	movs	r2, #48	; 0x30
    14c0:	4390      	bics	r0, r2
    14c2:	2220      	movs	r2, #32
    14c4:	4310      	orrs	r0, r2
    14c6:	7398      	strb	r0, [r3, #14]
    14c8:	7b99      	ldrb	r1, [r3, #14]
    14ca:	43b9      	bics	r1, r7
    14cc:	4331      	orrs	r1, r6
    14ce:	7399      	strb	r1, [r3, #14]
    14d0:	7b9a      	ldrb	r2, [r3, #14]
    14d2:	43aa      	bics	r2, r5
    14d4:	4322      	orrs	r2, r4
    14d6:	739a      	strb	r2, [r3, #14]
    14d8:	4a0f      	ldr	r2, [pc, #60]	; (1518 <Reset_Handler+0xd8>)
    14da:	6853      	ldr	r3, [r2, #4]
    14dc:	2180      	movs	r1, #128	; 0x80
    14de:	430b      	orrs	r3, r1
    14e0:	6053      	str	r3, [r2, #4]
    14e2:	4b0e      	ldr	r3, [pc, #56]	; (151c <Reset_Handler+0xdc>)
    14e4:	4798      	blx	r3
    14e6:	4b0e      	ldr	r3, [pc, #56]	; (1520 <Reset_Handler+0xe0>)
    14e8:	4798      	blx	r3
    14ea:	e7fe      	b.n	14ea <Reset_Handler+0xaa>
    14ec:	00003860 	.word	0x00003860
    14f0:	20000000 	.word	0x20000000
    14f4:	200001d4 	.word	0x200001d4
    14f8:	20000004 	.word	0x20000004
    14fc:	200001d4 	.word	0x200001d4
    1500:	2000029c 	.word	0x2000029c
    1504:	e000ed00 	.word	0xe000ed00
    1508:	00000000 	.word	0x00000000
    150c:	41007000 	.word	0x41007000
    1510:	41005000 	.word	0x41005000
    1514:	41004800 	.word	0x41004800
    1518:	41004000 	.word	0x41004000
    151c:	000018d1 	.word	0x000018d1
    1520:	000016f9 	.word	0x000016f9

00001524 <_sbrk>:
    1524:	0003      	movs	r3, r0
    1526:	4a06      	ldr	r2, [pc, #24]	; (1540 <_sbrk+0x1c>)
    1528:	6812      	ldr	r2, [r2, #0]
    152a:	2a00      	cmp	r2, #0
    152c:	d004      	beq.n	1538 <_sbrk+0x14>
    152e:	4a04      	ldr	r2, [pc, #16]	; (1540 <_sbrk+0x1c>)
    1530:	6810      	ldr	r0, [r2, #0]
    1532:	18c3      	adds	r3, r0, r3
    1534:	6013      	str	r3, [r2, #0]
    1536:	4770      	bx	lr
    1538:	4902      	ldr	r1, [pc, #8]	; (1544 <_sbrk+0x20>)
    153a:	4a01      	ldr	r2, [pc, #4]	; (1540 <_sbrk+0x1c>)
    153c:	6011      	str	r1, [r2, #0]
    153e:	e7f6      	b.n	152e <_sbrk+0xa>
    1540:	2000022c 	.word	0x2000022c
    1544:	200022a0 	.word	0x200022a0

00001548 <_close>:
    1548:	2001      	movs	r0, #1
    154a:	4240      	negs	r0, r0
    154c:	4770      	bx	lr

0000154e <_fstat>:
    154e:	2380      	movs	r3, #128	; 0x80
    1550:	019b      	lsls	r3, r3, #6
    1552:	604b      	str	r3, [r1, #4]
    1554:	2000      	movs	r0, #0
    1556:	4770      	bx	lr

00001558 <_isatty>:
    1558:	2001      	movs	r0, #1
    155a:	4770      	bx	lr

0000155c <_lseek>:
    155c:	2000      	movs	r0, #0
    155e:	4770      	bx	lr

00001560 <usart_write_callback>:
{
	PortGroup *const port_base = port_get_group_from_gpio_pin(gpio_pin);
	uint32_t pin_mask  = (1UL << (gpio_pin % 32));

	/* Toggle pin output level */
	port_base->OUTTGL.reg = pin_mask;
    1560:	2280      	movs	r2, #128	; 0x80
    1562:	0412      	lsls	r2, r2, #16
    1564:	4b01      	ldr	r3, [pc, #4]	; (156c <usart_write_callback+0xc>)
    1566:	61da      	str	r2, [r3, #28]
}

void usart_write_callback(const struct usart_module *const usart_module)
{
	port_pin_toggle_output_level(LED_0_PIN);
}
    1568:	4770      	bx	lr
    156a:	46c0      	nop			; (mov r8, r8)
    156c:	41004400 	.word	0x41004400

00001570 <usart_serial_getchar>:
 * \param[out]    c       Destination for the read character.
 */
static inline void usart_serial_getchar(
		struct usart_module *const module,
		uint8_t *c)
{
    1570:	b570      	push	{r4, r5, r6, lr}
    1572:	b082      	sub	sp, #8
    1574:	0005      	movs	r5, r0
    1576:	000e      	movs	r6, r1
	uint16_t temp = 0;
    1578:	2200      	movs	r2, #0
    157a:	466b      	mov	r3, sp
    157c:	80da      	strh	r2, [r3, #6]

	while(STATUS_OK != usart_read_wait(module, &temp));
    157e:	4c06      	ldr	r4, [pc, #24]	; (1598 <usart_serial_getchar+0x28>)
    1580:	466b      	mov	r3, sp
    1582:	1d99      	adds	r1, r3, #6
    1584:	0028      	movs	r0, r5
    1586:	47a0      	blx	r4
    1588:	2800      	cmp	r0, #0
    158a:	d1f9      	bne.n	1580 <usart_serial_getchar+0x10>

	*c = temp;
    158c:	466b      	mov	r3, sp
    158e:	3306      	adds	r3, #6
    1590:	881b      	ldrh	r3, [r3, #0]
    1592:	7033      	strb	r3, [r6, #0]
}
    1594:	b002      	add	sp, #8
    1596:	bd70      	pop	{r4, r5, r6, pc}
    1598:	0000088d 	.word	0x0000088d

0000159c <usart_serial_putchar>:
{
    159c:	b570      	push	{r4, r5, r6, lr}
    159e:	0005      	movs	r5, r0
	while(STATUS_OK !=usart_write_wait(module, c));
    15a0:	b28c      	uxth	r4, r1
    15a2:	4e03      	ldr	r6, [pc, #12]	; (15b0 <usart_serial_putchar+0x14>)
    15a4:	0021      	movs	r1, r4
    15a6:	0028      	movs	r0, r5
    15a8:	47b0      	blx	r6
    15aa:	2800      	cmp	r0, #0
    15ac:	d1fa      	bne.n	15a4 <usart_serial_putchar+0x8>
}
    15ae:	bd70      	pop	{r4, r5, r6, pc}
    15b0:	00000861 	.word	0x00000861

000015b4 <usart_read_callback>:
{
    15b4:	b510      	push	{r4, lr}
	usart_write_buffer_job(&usart_instance,
    15b6:	2205      	movs	r2, #5
    15b8:	4902      	ldr	r1, [pc, #8]	; (15c4 <usart_read_callback+0x10>)
    15ba:	4803      	ldr	r0, [pc, #12]	; (15c8 <usart_read_callback+0x14>)
    15bc:	4b03      	ldr	r3, [pc, #12]	; (15cc <usart_read_callback+0x18>)
    15be:	4798      	blx	r3
}
    15c0:	bd10      	pop	{r4, pc}
    15c2:	46c0      	nop			; (mov r8, r8)
    15c4:	20000290 	.word	0x20000290
    15c8:	2000025c 	.word	0x2000025c
    15cc:	00000951 	.word	0x00000951

000015d0 <configure_usart>:
{
    15d0:	b5f0      	push	{r4, r5, r6, r7, lr}
    15d2:	b091      	sub	sp, #68	; 0x44
{
	/* Sanity check arguments */
	Assert(config);

	/* Set default config in the config struct */
	config->data_order       = USART_DATAORDER_LSB;
    15d4:	2380      	movs	r3, #128	; 0x80
    15d6:	05db      	lsls	r3, r3, #23
    15d8:	9300      	str	r3, [sp, #0]
	config->transfer_mode    = USART_TRANSFER_ASYNCHRONOUSLY;
    15da:	2300      	movs	r3, #0
    15dc:	9301      	str	r3, [sp, #4]
	config->parity           = USART_PARITY_NONE;
    15de:	22ff      	movs	r2, #255	; 0xff
    15e0:	4669      	mov	r1, sp
    15e2:	810a      	strh	r2, [r1, #8]
	config->stopbits         = USART_STOPBITS_1;
    15e4:	2200      	movs	r2, #0
    15e6:	728b      	strb	r3, [r1, #10]
	config->character_size   = USART_CHARACTER_SIZE_8BIT;
    15e8:	72cb      	strb	r3, [r1, #11]
	config->baudrate         = 9600;
	config->receiver_enable  = true;
    15ea:	2401      	movs	r4, #1
    15ec:	2124      	movs	r1, #36	; 0x24
    15ee:	4668      	mov	r0, sp
    15f0:	5444      	strb	r4, [r0, r1]
	config->transmitter_enable = true;
    15f2:	3101      	adds	r1, #1
    15f4:	5444      	strb	r4, [r0, r1]
	config->clock_polarity_inverted = false;
    15f6:	3101      	adds	r1, #1
    15f8:	5443      	strb	r3, [r0, r1]
	config->use_external_clock = false;
    15fa:	3101      	adds	r1, #1
    15fc:	5443      	strb	r3, [r0, r1]
	config->ext_clock_freq   = 0;
    15fe:	930a      	str	r3, [sp, #40]	; 0x28
	config->mux_setting      = USART_RX_1_TX_2_XCK_3;
	config->run_in_standby   = false;
    1600:	3105      	adds	r1, #5
    1602:	5443      	strb	r3, [r0, r1]
	config->generator_source = GCLK_GENERATOR_0;
    1604:	3101      	adds	r1, #1
    1606:	5443      	strb	r3, [r0, r1]
	config->pinmux_pad0      = PINMUX_DEFAULT;
	config->pinmux_pad1      = PINMUX_DEFAULT;
	config->pinmux_pad2      = PINMUX_DEFAULT;
	config->pinmux_pad3      = PINMUX_DEFAULT;
#ifdef FEATURE_USART_OVER_SAMPLE
	config->sample_adjustment     = USART_SAMPLE_ADJUSTMENT_7_8_9;
    1608:	9305      	str	r3, [sp, #20]
	config->sample_rate           = USART_SAMPLE_RATE_16X_ARITHMETIC;
    160a:	8203      	strh	r3, [r0, #16]
#endif
#ifdef FEATURE_USART_LIN_SLAVE
	config->lin_slave_enable      = false;
    160c:	76c3      	strb	r3, [r0, #27]
	config->lin_header_delay = LIN_MASTER_HEADER_DELAY_0;
	config->lin_break_length = LIN_MASTER_BREAK_LENGTH_13_BIT;
#endif

#ifdef FEATURE_USART_IMMEDIATE_BUFFER_OVERFLOW_NOTIFICATION
	config->immediate_buffer_overflow_notification  = false;
    160e:	7602      	strb	r2, [r0, #24]
#endif
#ifdef FEATURE_USART_START_FRAME_DECTION
	config->start_frame_detection_enable            = false;
    1610:	7702      	strb	r2, [r0, #28]
#endif
#ifdef FEATURE_USART_IRDA
	config->encoding_format_enable                  = false;
    1612:	7642      	strb	r2, [r0, #25]
	config->receive_pulse_length                    = 19;
    1614:	2313      	movs	r3, #19
    1616:	7683      	strb	r3, [r0, #26]
	config->iso7816_config.inhibit_nack             = ISO7816_INHIBIT_NACK_DISABLE;
	config->iso7816_config.successive_recv_nack     = ISO7816_SUCCESSIVE_RECV_NACK_DISABLE;
	config->iso7816_config.max_iterations           = 7;
#endif
#ifdef FEATURE_USART_COLLISION_DECTION
	config->collision_detection_enable              = false;
    1618:	7742      	strb	r2, [r0, #29]
	config_usart.baudrate    = 115200;
    161a:	23e1      	movs	r3, #225	; 0xe1
    161c:	025b      	lsls	r3, r3, #9
    161e:	9308      	str	r3, [sp, #32]
	config_usart.mux_setting = USART_RX_3_TX_2_XCK_3;
    1620:	23c4      	movs	r3, #196	; 0xc4
    1622:	039b      	lsls	r3, r3, #14
    1624:	9303      	str	r3, [sp, #12]
	config_usart.pinmux_pad0 = PINMUX_UNUSED;
    1626:	2301      	movs	r3, #1
    1628:	425b      	negs	r3, r3
    162a:	930c      	str	r3, [sp, #48]	; 0x30
	config_usart.pinmux_pad1 = PINMUX_UNUSED;
    162c:	930d      	str	r3, [sp, #52]	; 0x34
	config_usart.pinmux_pad2 = PINMUX_PA20D_SERCOM3_PAD2;
    162e:	4b17      	ldr	r3, [pc, #92]	; (168c <configure_usart+0xbc>)
    1630:	930e      	str	r3, [sp, #56]	; 0x38
	config_usart.pinmux_pad3 = PINMUX_PA21D_SERCOM3_PAD3;
    1632:	4b17      	ldr	r3, [pc, #92]	; (1690 <configure_usart+0xc0>)
    1634:	930f      	str	r3, [sp, #60]	; 0x3c
static inline void stdio_serial_init(
		struct usart_module *const module,
		usart_inst_t const hw,
		const struct usart_config *const config)
{
	stdio_base = (void *)module;
    1636:	4d17      	ldr	r5, [pc, #92]	; (1694 <configure_usart+0xc4>)
    1638:	4b17      	ldr	r3, [pc, #92]	; (1698 <configure_usart+0xc8>)
    163a:	601d      	str	r5, [r3, #0]
	ptr_put = (int (*)(void volatile*,char))&usart_serial_putchar;
    163c:	4a17      	ldr	r2, [pc, #92]	; (169c <configure_usart+0xcc>)
    163e:	4b18      	ldr	r3, [pc, #96]	; (16a0 <configure_usart+0xd0>)
    1640:	601a      	str	r2, [r3, #0]
	ptr_get = (void (*)(void volatile*,char*))&usart_serial_getchar;
    1642:	4a18      	ldr	r2, [pc, #96]	; (16a4 <configure_usart+0xd4>)
    1644:	4b18      	ldr	r3, [pc, #96]	; (16a8 <configure_usart+0xd8>)
    1646:	601a      	str	r2, [r3, #0]
	if (usart_init(module, hw, config) == STATUS_OK) {
    1648:	466a      	mov	r2, sp
    164a:	4918      	ldr	r1, [pc, #96]	; (16ac <configure_usart+0xdc>)
    164c:	0028      	movs	r0, r5
    164e:	4b18      	ldr	r3, [pc, #96]	; (16b0 <configure_usart+0xe0>)
    1650:	4798      	blx	r3

	usart_serial_init(module, hw, config);
# if defined(__GNUC__)
	// Specify that stdout and stdin should not be buffered.
	setbuf(stdout, NULL);
    1652:	4f18      	ldr	r7, [pc, #96]	; (16b4 <configure_usart+0xe4>)
    1654:	683b      	ldr	r3, [r7, #0]
    1656:	6898      	ldr	r0, [r3, #8]
    1658:	2100      	movs	r1, #0
    165a:	4e17      	ldr	r6, [pc, #92]	; (16b8 <configure_usart+0xe8>)
    165c:	47b0      	blx	r6
	setbuf(stdin, NULL);
    165e:	683b      	ldr	r3, [r7, #0]
    1660:	6858      	ldr	r0, [r3, #4]
    1662:	2100      	movs	r1, #0
    1664:	47b0      	blx	r6
	/* Sanity check arguments */
	Assert(module);
	Assert(module->hw);

	/* Get a pointer to the hardware module instance */
	SercomUsart *const usart_hw = &(module->hw->USART);
    1666:	682e      	ldr	r6, [r5, #0]

#if USART_CALLBACK_MODE == true
	/* Enable Global interrupt for module */
	system_interrupt_enable(_sercom_get_interrupt_vector(module->hw));
    1668:	0030      	movs	r0, r6
    166a:	4b14      	ldr	r3, [pc, #80]	; (16bc <configure_usart+0xec>)
    166c:	4798      	blx	r3
 * \param[in] vector Interrupt vector to enable
 */
static inline void system_interrupt_enable(
		const enum system_interrupt_vector vector)
{
	NVIC->ISER[0] = (uint32_t)(1 << ((uint32_t)vector & 0x0000001f));
    166e:	231f      	movs	r3, #31
    1670:	4018      	ands	r0, r3
    1672:	4084      	lsls	r4, r0
    1674:	4b12      	ldr	r3, [pc, #72]	; (16c0 <configure_usart+0xf0>)
    1676:	601c      	str	r4, [r3, #0]
	SercomUsart *const usart_hw = &(module->hw->USART);
    1678:	682a      	ldr	r2, [r5, #0]
	return (usart_hw->SYNCBUSY.reg);
    167a:	69d3      	ldr	r3, [r2, #28]
	while (usart_is_syncing(module)) {
    167c:	2b00      	cmp	r3, #0
    167e:	d1fc      	bne.n	167a <configure_usart+0xaa>

	/* Wait until synchronization is complete */
	_usart_wait_for_sync(module);

	/* Enable USART module */
	usart_hw->CTRLA.reg |= SERCOM_USART_CTRLA_ENABLE;
    1680:	6833      	ldr	r3, [r6, #0]
    1682:	2202      	movs	r2, #2
    1684:	4313      	orrs	r3, r2
    1686:	6033      	str	r3, [r6, #0]
}
    1688:	b011      	add	sp, #68	; 0x44
    168a:	bdf0      	pop	{r4, r5, r6, r7, pc}
    168c:	00140003 	.word	0x00140003
    1690:	00150003 	.word	0x00150003
    1694:	2000025c 	.word	0x2000025c
    1698:	20000240 	.word	0x20000240
    169c:	0000159d 	.word	0x0000159d
    16a0:	2000023c 	.word	0x2000023c
    16a4:	00001571 	.word	0x00001571
    16a8:	20000238 	.word	0x20000238
    16ac:	42001400 	.word	0x42001400
    16b0:	0000051d 	.word	0x0000051d
    16b4:	20000004 	.word	0x20000004
    16b8:	00001991 	.word	0x00001991
    16bc:	00000b45 	.word	0x00000b45
    16c0:	e000e100 	.word	0xe000e100

000016c4 <configure_usart_callbacks>:

void configure_usart_callbacks(void)
{
    16c4:	b570      	push	{r4, r5, r6, lr}
	usart_register_callback(&usart_instance,
    16c6:	4c08      	ldr	r4, [pc, #32]	; (16e8 <configure_usart_callbacks+0x24>)
    16c8:	2200      	movs	r2, #0
    16ca:	4908      	ldr	r1, [pc, #32]	; (16ec <configure_usart_callbacks+0x28>)
    16cc:	0020      	movs	r0, r4
    16ce:	4d08      	ldr	r5, [pc, #32]	; (16f0 <configure_usart_callbacks+0x2c>)
    16d0:	47a8      	blx	r5
	usart_write_callback, USART_CALLBACK_BUFFER_TRANSMITTED);
	usart_register_callback(&usart_instance,
    16d2:	2201      	movs	r2, #1
    16d4:	4907      	ldr	r1, [pc, #28]	; (16f4 <configure_usart_callbacks+0x30>)
    16d6:	0020      	movs	r0, r4
    16d8:	47a8      	blx	r5
{
	/* Sanity check arguments */
	Assert(module);

	/* Enable callback */
	module->callback_enable_mask |= (1 << callback_type);
    16da:	2231      	movs	r2, #49	; 0x31
    16dc:	5ca3      	ldrb	r3, [r4, r2]
    16de:	2103      	movs	r1, #3
    16e0:	430b      	orrs	r3, r1
    16e2:	54a3      	strb	r3, [r4, r2]
	usart_read_callback, USART_CALLBACK_BUFFER_RECEIVED);
	usart_enable_callback(&usart_instance, USART_CALLBACK_BUFFER_TRANSMITTED);
	usart_enable_callback(&usart_instance, USART_CALLBACK_BUFFER_RECEIVED);
}
    16e4:	bd70      	pop	{r4, r5, r6, pc}
    16e6:	46c0      	nop			; (mov r8, r8)
    16e8:	2000025c 	.word	0x2000025c
    16ec:	00001561 	.word	0x00001561
    16f0:	00000939 	.word	0x00000939
    16f4:	000015b5 	.word	0x000015b5

000016f8 <main>:


int main (void)
{
    16f8:	b570      	push	{r4, r5, r6, lr}
    16fa:	b092      	sub	sp, #72	; 0x48
	system_init();
    16fc:	4b10      	ldr	r3, [pc, #64]	; (1740 <main+0x48>)
    16fe:	4798      	blx	r3
	cpu_irq_enable();
    1700:	2201      	movs	r2, #1
    1702:	4b10      	ldr	r3, [pc, #64]	; (1744 <main+0x4c>)
    1704:	701a      	strb	r2, [r3, #0]
    This function ensures the apparent order of the explicit memory operations before
    and after the instruction, without ensuring their completion.
 */
__attribute__( ( always_inline ) ) __STATIC_INLINE void __DMB(void)
{
  __ASM volatile ("dmb");
    1706:	f3bf 8f5f 	dmb	sy
  This function enables IRQ interrupts by clearing the I-bit in the CPSR.
  Can only be executed in Privileged modes.
 */
__attribute__( ( always_inline ) ) __STATIC_INLINE void __enable_irq(void)
{
  __ASM volatile ("cpsie i" : : : "memory");
    170a:	b662      	cpsie	i
	system_interrupt_enable_global();
	configure_usart();
    170c:	4b0e      	ldr	r3, [pc, #56]	; (1748 <main+0x50>)
    170e:	4798      	blx	r3
	configure_usart_callbacks();
    1710:	4b0e      	ldr	r3, [pc, #56]	; (174c <main+0x54>)
    1712:	4798      	blx	r3
	
	
	
	uint8_t string[] = "Hello World!\r\n";
    1714:	a80e      	add	r0, sp, #56	; 0x38
    1716:	4b0e      	ldr	r3, [pc, #56]	; (1750 <main+0x58>)
    1718:	0002      	movs	r2, r0
    171a:	cb32      	ldmia	r3!, {r1, r4, r5}
    171c:	c232      	stmia	r2!, {r1, r4, r5}
    171e:	8819      	ldrh	r1, [r3, #0]
    1720:	8011      	strh	r1, [r2, #0]
    1722:	789b      	ldrb	r3, [r3, #2]
    1724:	7093      	strb	r3, [r2, #2]
	printf(string);
    1726:	4b0b      	ldr	r3, [pc, #44]	; (1754 <main+0x5c>)
    1728:	4798      	blx	r3
	    
		while (1) {
			uint8_t buffer[50];
		    scanf("%s", buffer);
    172a:	4e0b      	ldr	r6, [pc, #44]	; (1758 <main+0x60>)
    172c:	4d0b      	ldr	r5, [pc, #44]	; (175c <main+0x64>)
		    
		    if (buffer) {
			    printf("got the following: %s\r\n", buffer);
    172e:	4c0c      	ldr	r4, [pc, #48]	; (1760 <main+0x68>)
		    scanf("%s", buffer);
    1730:	a901      	add	r1, sp, #4
    1732:	0030      	movs	r0, r6
    1734:	47a8      	blx	r5
			    printf("got the following: %s\r\n", buffer);
    1736:	a901      	add	r1, sp, #4
    1738:	0020      	movs	r0, r4
    173a:	4b06      	ldr	r3, [pc, #24]	; (1754 <main+0x5c>)
    173c:	4798      	blx	r3
    173e:	e7f7      	b.n	1730 <main+0x38>
    1740:	00001411 	.word	0x00001411
    1744:	20000000 	.word	0x20000000
    1748:	000015d1 	.word	0x000015d1
    174c:	000016c5 	.word	0x000016c5
    1750:	00003664 	.word	0x00003664
    1754:	00001929 	.word	0x00001929
    1758:	00003648 	.word	0x00003648
    175c:	0000195d 	.word	0x0000195d
    1760:	0000364c 	.word	0x0000364c

00001764 <__udivsi3>:
    1764:	2200      	movs	r2, #0
    1766:	0843      	lsrs	r3, r0, #1
    1768:	428b      	cmp	r3, r1
    176a:	d374      	bcc.n	1856 <__udivsi3+0xf2>
    176c:	0903      	lsrs	r3, r0, #4
    176e:	428b      	cmp	r3, r1
    1770:	d35f      	bcc.n	1832 <__udivsi3+0xce>
    1772:	0a03      	lsrs	r3, r0, #8
    1774:	428b      	cmp	r3, r1
    1776:	d344      	bcc.n	1802 <__udivsi3+0x9e>
    1778:	0b03      	lsrs	r3, r0, #12
    177a:	428b      	cmp	r3, r1
    177c:	d328      	bcc.n	17d0 <__udivsi3+0x6c>
    177e:	0c03      	lsrs	r3, r0, #16
    1780:	428b      	cmp	r3, r1
    1782:	d30d      	bcc.n	17a0 <__udivsi3+0x3c>
    1784:	22ff      	movs	r2, #255	; 0xff
    1786:	0209      	lsls	r1, r1, #8
    1788:	ba12      	rev	r2, r2
    178a:	0c03      	lsrs	r3, r0, #16
    178c:	428b      	cmp	r3, r1
    178e:	d302      	bcc.n	1796 <__udivsi3+0x32>
    1790:	1212      	asrs	r2, r2, #8
    1792:	0209      	lsls	r1, r1, #8
    1794:	d065      	beq.n	1862 <__udivsi3+0xfe>
    1796:	0b03      	lsrs	r3, r0, #12
    1798:	428b      	cmp	r3, r1
    179a:	d319      	bcc.n	17d0 <__udivsi3+0x6c>
    179c:	e000      	b.n	17a0 <__udivsi3+0x3c>
    179e:	0a09      	lsrs	r1, r1, #8
    17a0:	0bc3      	lsrs	r3, r0, #15
    17a2:	428b      	cmp	r3, r1
    17a4:	d301      	bcc.n	17aa <__udivsi3+0x46>
    17a6:	03cb      	lsls	r3, r1, #15
    17a8:	1ac0      	subs	r0, r0, r3
    17aa:	4152      	adcs	r2, r2
    17ac:	0b83      	lsrs	r3, r0, #14
    17ae:	428b      	cmp	r3, r1
    17b0:	d301      	bcc.n	17b6 <__udivsi3+0x52>
    17b2:	038b      	lsls	r3, r1, #14
    17b4:	1ac0      	subs	r0, r0, r3
    17b6:	4152      	adcs	r2, r2
    17b8:	0b43      	lsrs	r3, r0, #13
    17ba:	428b      	cmp	r3, r1
    17bc:	d301      	bcc.n	17c2 <__udivsi3+0x5e>
    17be:	034b      	lsls	r3, r1, #13
    17c0:	1ac0      	subs	r0, r0, r3
    17c2:	4152      	adcs	r2, r2
    17c4:	0b03      	lsrs	r3, r0, #12
    17c6:	428b      	cmp	r3, r1
    17c8:	d301      	bcc.n	17ce <__udivsi3+0x6a>
    17ca:	030b      	lsls	r3, r1, #12
    17cc:	1ac0      	subs	r0, r0, r3
    17ce:	4152      	adcs	r2, r2
    17d0:	0ac3      	lsrs	r3, r0, #11
    17d2:	428b      	cmp	r3, r1
    17d4:	d301      	bcc.n	17da <__udivsi3+0x76>
    17d6:	02cb      	lsls	r3, r1, #11
    17d8:	1ac0      	subs	r0, r0, r3
    17da:	4152      	adcs	r2, r2
    17dc:	0a83      	lsrs	r3, r0, #10
    17de:	428b      	cmp	r3, r1
    17e0:	d301      	bcc.n	17e6 <__udivsi3+0x82>
    17e2:	028b      	lsls	r3, r1, #10
    17e4:	1ac0      	subs	r0, r0, r3
    17e6:	4152      	adcs	r2, r2
    17e8:	0a43      	lsrs	r3, r0, #9
    17ea:	428b      	cmp	r3, r1
    17ec:	d301      	bcc.n	17f2 <__udivsi3+0x8e>
    17ee:	024b      	lsls	r3, r1, #9
    17f0:	1ac0      	subs	r0, r0, r3
    17f2:	4152      	adcs	r2, r2
    17f4:	0a03      	lsrs	r3, r0, #8
    17f6:	428b      	cmp	r3, r1
    17f8:	d301      	bcc.n	17fe <__udivsi3+0x9a>
    17fa:	020b      	lsls	r3, r1, #8
    17fc:	1ac0      	subs	r0, r0, r3
    17fe:	4152      	adcs	r2, r2
    1800:	d2cd      	bcs.n	179e <__udivsi3+0x3a>
    1802:	09c3      	lsrs	r3, r0, #7
    1804:	428b      	cmp	r3, r1
    1806:	d301      	bcc.n	180c <__udivsi3+0xa8>
    1808:	01cb      	lsls	r3, r1, #7
    180a:	1ac0      	subs	r0, r0, r3
    180c:	4152      	adcs	r2, r2
    180e:	0983      	lsrs	r3, r0, #6
    1810:	428b      	cmp	r3, r1
    1812:	d301      	bcc.n	1818 <__udivsi3+0xb4>
    1814:	018b      	lsls	r3, r1, #6
    1816:	1ac0      	subs	r0, r0, r3
    1818:	4152      	adcs	r2, r2
    181a:	0943      	lsrs	r3, r0, #5
    181c:	428b      	cmp	r3, r1
    181e:	d301      	bcc.n	1824 <__udivsi3+0xc0>
    1820:	014b      	lsls	r3, r1, #5
    1822:	1ac0      	subs	r0, r0, r3
    1824:	4152      	adcs	r2, r2
    1826:	0903      	lsrs	r3, r0, #4
    1828:	428b      	cmp	r3, r1
    182a:	d301      	bcc.n	1830 <__udivsi3+0xcc>
    182c:	010b      	lsls	r3, r1, #4
    182e:	1ac0      	subs	r0, r0, r3
    1830:	4152      	adcs	r2, r2
    1832:	08c3      	lsrs	r3, r0, #3
    1834:	428b      	cmp	r3, r1
    1836:	d301      	bcc.n	183c <__udivsi3+0xd8>
    1838:	00cb      	lsls	r3, r1, #3
    183a:	1ac0      	subs	r0, r0, r3
    183c:	4152      	adcs	r2, r2
    183e:	0883      	lsrs	r3, r0, #2
    1840:	428b      	cmp	r3, r1
    1842:	d301      	bcc.n	1848 <__udivsi3+0xe4>
    1844:	008b      	lsls	r3, r1, #2
    1846:	1ac0      	subs	r0, r0, r3
    1848:	4152      	adcs	r2, r2
    184a:	0843      	lsrs	r3, r0, #1
    184c:	428b      	cmp	r3, r1
    184e:	d301      	bcc.n	1854 <__udivsi3+0xf0>
    1850:	004b      	lsls	r3, r1, #1
    1852:	1ac0      	subs	r0, r0, r3
    1854:	4152      	adcs	r2, r2
    1856:	1a41      	subs	r1, r0, r1
    1858:	d200      	bcs.n	185c <__udivsi3+0xf8>
    185a:	4601      	mov	r1, r0
    185c:	4152      	adcs	r2, r2
    185e:	4610      	mov	r0, r2
    1860:	4770      	bx	lr
    1862:	e7ff      	b.n	1864 <__udivsi3+0x100>
    1864:	b501      	push	{r0, lr}
    1866:	2000      	movs	r0, #0
    1868:	f000 f806 	bl	1878 <__aeabi_idiv0>
    186c:	bd02      	pop	{r1, pc}
    186e:	46c0      	nop			; (mov r8, r8)

00001870 <__aeabi_uidivmod>:
    1870:	2900      	cmp	r1, #0
    1872:	d0f7      	beq.n	1864 <__udivsi3+0x100>
    1874:	e776      	b.n	1764 <__udivsi3>
    1876:	4770      	bx	lr

00001878 <__aeabi_idiv0>:
    1878:	4770      	bx	lr
    187a:	46c0      	nop			; (mov r8, r8)

0000187c <__aeabi_lmul>:
    187c:	b5f0      	push	{r4, r5, r6, r7, lr}
    187e:	46ce      	mov	lr, r9
    1880:	4647      	mov	r7, r8
    1882:	0415      	lsls	r5, r2, #16
    1884:	0c2d      	lsrs	r5, r5, #16
    1886:	002e      	movs	r6, r5
    1888:	b580      	push	{r7, lr}
    188a:	0407      	lsls	r7, r0, #16
    188c:	0c14      	lsrs	r4, r2, #16
    188e:	0c3f      	lsrs	r7, r7, #16
    1890:	4699      	mov	r9, r3
    1892:	0c03      	lsrs	r3, r0, #16
    1894:	437e      	muls	r6, r7
    1896:	435d      	muls	r5, r3
    1898:	4367      	muls	r7, r4
    189a:	4363      	muls	r3, r4
    189c:	197f      	adds	r7, r7, r5
    189e:	0c34      	lsrs	r4, r6, #16
    18a0:	19e4      	adds	r4, r4, r7
    18a2:	469c      	mov	ip, r3
    18a4:	42a5      	cmp	r5, r4
    18a6:	d903      	bls.n	18b0 <__aeabi_lmul+0x34>
    18a8:	2380      	movs	r3, #128	; 0x80
    18aa:	025b      	lsls	r3, r3, #9
    18ac:	4698      	mov	r8, r3
    18ae:	44c4      	add	ip, r8
    18b0:	464b      	mov	r3, r9
    18b2:	4351      	muls	r1, r2
    18b4:	4343      	muls	r3, r0
    18b6:	0436      	lsls	r6, r6, #16
    18b8:	0c36      	lsrs	r6, r6, #16
    18ba:	0c25      	lsrs	r5, r4, #16
    18bc:	0424      	lsls	r4, r4, #16
    18be:	4465      	add	r5, ip
    18c0:	19a4      	adds	r4, r4, r6
    18c2:	1859      	adds	r1, r3, r1
    18c4:	1949      	adds	r1, r1, r5
    18c6:	0020      	movs	r0, r4
    18c8:	bc0c      	pop	{r2, r3}
    18ca:	4690      	mov	r8, r2
    18cc:	4699      	mov	r9, r3
    18ce:	bdf0      	pop	{r4, r5, r6, r7, pc}

000018d0 <__libc_init_array>:
    18d0:	b570      	push	{r4, r5, r6, lr}
    18d2:	2600      	movs	r6, #0
    18d4:	4d0c      	ldr	r5, [pc, #48]	; (1908 <__libc_init_array+0x38>)
    18d6:	4c0d      	ldr	r4, [pc, #52]	; (190c <__libc_init_array+0x3c>)
    18d8:	1b64      	subs	r4, r4, r5
    18da:	10a4      	asrs	r4, r4, #2
    18dc:	42a6      	cmp	r6, r4
    18de:	d109      	bne.n	18f4 <__libc_init_array+0x24>
    18e0:	2600      	movs	r6, #0
    18e2:	f001 ffad 	bl	3840 <_init>
    18e6:	4d0a      	ldr	r5, [pc, #40]	; (1910 <__libc_init_array+0x40>)
    18e8:	4c0a      	ldr	r4, [pc, #40]	; (1914 <__libc_init_array+0x44>)
    18ea:	1b64      	subs	r4, r4, r5
    18ec:	10a4      	asrs	r4, r4, #2
    18ee:	42a6      	cmp	r6, r4
    18f0:	d105      	bne.n	18fe <__libc_init_array+0x2e>
    18f2:	bd70      	pop	{r4, r5, r6, pc}
    18f4:	00b3      	lsls	r3, r6, #2
    18f6:	58eb      	ldr	r3, [r5, r3]
    18f8:	4798      	blx	r3
    18fa:	3601      	adds	r6, #1
    18fc:	e7ee      	b.n	18dc <__libc_init_array+0xc>
    18fe:	00b3      	lsls	r3, r6, #2
    1900:	58eb      	ldr	r3, [r5, r3]
    1902:	4798      	blx	r3
    1904:	3601      	adds	r6, #1
    1906:	e7f2      	b.n	18ee <__libc_init_array+0x1e>
    1908:	0000384c 	.word	0x0000384c
    190c:	0000384c 	.word	0x0000384c
    1910:	0000384c 	.word	0x0000384c
    1914:	00003850 	.word	0x00003850

00001918 <memset>:
    1918:	0003      	movs	r3, r0
    191a:	1882      	adds	r2, r0, r2
    191c:	4293      	cmp	r3, r2
    191e:	d100      	bne.n	1922 <memset+0xa>
    1920:	4770      	bx	lr
    1922:	7019      	strb	r1, [r3, #0]
    1924:	3301      	adds	r3, #1
    1926:	e7f9      	b.n	191c <memset+0x4>

00001928 <iprintf>:
    1928:	b40f      	push	{r0, r1, r2, r3}
    192a:	4b0b      	ldr	r3, [pc, #44]	; (1958 <iprintf+0x30>)
    192c:	b513      	push	{r0, r1, r4, lr}
    192e:	681c      	ldr	r4, [r3, #0]
    1930:	2c00      	cmp	r4, #0
    1932:	d005      	beq.n	1940 <iprintf+0x18>
    1934:	69a3      	ldr	r3, [r4, #24]
    1936:	2b00      	cmp	r3, #0
    1938:	d102      	bne.n	1940 <iprintf+0x18>
    193a:	0020      	movs	r0, r4
    193c:	f000 f9ea 	bl	1d14 <__sinit>
    1940:	ab05      	add	r3, sp, #20
    1942:	9a04      	ldr	r2, [sp, #16]
    1944:	68a1      	ldr	r1, [r4, #8]
    1946:	0020      	movs	r0, r4
    1948:	9301      	str	r3, [sp, #4]
    194a:	f000 fbdb 	bl	2104 <_vfiprintf_r>
    194e:	bc16      	pop	{r1, r2, r4}
    1950:	bc08      	pop	{r3}
    1952:	b004      	add	sp, #16
    1954:	4718      	bx	r3
    1956:	46c0      	nop			; (mov r8, r8)
    1958:	20000004 	.word	0x20000004

0000195c <iscanf>:
    195c:	b40f      	push	{r0, r1, r2, r3}
    195e:	4b0b      	ldr	r3, [pc, #44]	; (198c <iscanf+0x30>)
    1960:	b513      	push	{r0, r1, r4, lr}
    1962:	681c      	ldr	r4, [r3, #0]
    1964:	2c00      	cmp	r4, #0
    1966:	d005      	beq.n	1974 <iscanf+0x18>
    1968:	69a3      	ldr	r3, [r4, #24]
    196a:	2b00      	cmp	r3, #0
    196c:	d102      	bne.n	1974 <iscanf+0x18>
    196e:	0020      	movs	r0, r4
    1970:	f000 f9d0 	bl	1d14 <__sinit>
    1974:	ab05      	add	r3, sp, #20
    1976:	9a04      	ldr	r2, [sp, #16]
    1978:	6861      	ldr	r1, [r4, #4]
    197a:	0020      	movs	r0, r4
    197c:	9301      	str	r3, [sp, #4]
    197e:	f000 ffeb 	bl	2958 <_vfiscanf_r>
    1982:	bc16      	pop	{r1, r2, r4}
    1984:	bc08      	pop	{r3}
    1986:	b004      	add	sp, #16
    1988:	4718      	bx	r3
    198a:	46c0      	nop			; (mov r8, r8)
    198c:	20000004 	.word	0x20000004

00001990 <setbuf>:
    1990:	424a      	negs	r2, r1
    1992:	414a      	adcs	r2, r1
    1994:	2380      	movs	r3, #128	; 0x80
    1996:	b510      	push	{r4, lr}
    1998:	0052      	lsls	r2, r2, #1
    199a:	00db      	lsls	r3, r3, #3
    199c:	f000 f802 	bl	19a4 <setvbuf>
    19a0:	bd10      	pop	{r4, pc}
	...

000019a4 <setvbuf>:
    19a4:	b5f0      	push	{r4, r5, r6, r7, lr}
    19a6:	001d      	movs	r5, r3
    19a8:	4b4f      	ldr	r3, [pc, #316]	; (1ae8 <setvbuf+0x144>)
    19aa:	b085      	sub	sp, #20
    19ac:	681e      	ldr	r6, [r3, #0]
    19ae:	0004      	movs	r4, r0
    19b0:	000f      	movs	r7, r1
    19b2:	9200      	str	r2, [sp, #0]
    19b4:	2e00      	cmp	r6, #0
    19b6:	d005      	beq.n	19c4 <setvbuf+0x20>
    19b8:	69b3      	ldr	r3, [r6, #24]
    19ba:	2b00      	cmp	r3, #0
    19bc:	d102      	bne.n	19c4 <setvbuf+0x20>
    19be:	0030      	movs	r0, r6
    19c0:	f000 f9a8 	bl	1d14 <__sinit>
    19c4:	4b49      	ldr	r3, [pc, #292]	; (1aec <setvbuf+0x148>)
    19c6:	429c      	cmp	r4, r3
    19c8:	d150      	bne.n	1a6c <setvbuf+0xc8>
    19ca:	6874      	ldr	r4, [r6, #4]
    19cc:	9b00      	ldr	r3, [sp, #0]
    19ce:	2b02      	cmp	r3, #2
    19d0:	d005      	beq.n	19de <setvbuf+0x3a>
    19d2:	2b01      	cmp	r3, #1
    19d4:	d900      	bls.n	19d8 <setvbuf+0x34>
    19d6:	e084      	b.n	1ae2 <setvbuf+0x13e>
    19d8:	2d00      	cmp	r5, #0
    19da:	da00      	bge.n	19de <setvbuf+0x3a>
    19dc:	e081      	b.n	1ae2 <setvbuf+0x13e>
    19de:	0021      	movs	r1, r4
    19e0:	0030      	movs	r0, r6
    19e2:	f000 f915 	bl	1c10 <_fflush_r>
    19e6:	6b61      	ldr	r1, [r4, #52]	; 0x34
    19e8:	2900      	cmp	r1, #0
    19ea:	d008      	beq.n	19fe <setvbuf+0x5a>
    19ec:	0023      	movs	r3, r4
    19ee:	3344      	adds	r3, #68	; 0x44
    19f0:	4299      	cmp	r1, r3
    19f2:	d002      	beq.n	19fa <setvbuf+0x56>
    19f4:	0030      	movs	r0, r6
    19f6:	f000 fab5 	bl	1f64 <_free_r>
    19fa:	2300      	movs	r3, #0
    19fc:	6363      	str	r3, [r4, #52]	; 0x34
    19fe:	2300      	movs	r3, #0
    1a00:	61a3      	str	r3, [r4, #24]
    1a02:	6063      	str	r3, [r4, #4]
    1a04:	89a3      	ldrh	r3, [r4, #12]
    1a06:	061b      	lsls	r3, r3, #24
    1a08:	d503      	bpl.n	1a12 <setvbuf+0x6e>
    1a0a:	6921      	ldr	r1, [r4, #16]
    1a0c:	0030      	movs	r0, r6
    1a0e:	f000 faa9 	bl	1f64 <_free_r>
    1a12:	89a3      	ldrh	r3, [r4, #12]
    1a14:	4a36      	ldr	r2, [pc, #216]	; (1af0 <setvbuf+0x14c>)
    1a16:	4013      	ands	r3, r2
    1a18:	81a3      	strh	r3, [r4, #12]
    1a1a:	9b00      	ldr	r3, [sp, #0]
    1a1c:	2b02      	cmp	r3, #2
    1a1e:	d05a      	beq.n	1ad6 <setvbuf+0x132>
    1a20:	ab03      	add	r3, sp, #12
    1a22:	aa02      	add	r2, sp, #8
    1a24:	0021      	movs	r1, r4
    1a26:	0030      	movs	r0, r6
    1a28:	f000 fa26 	bl	1e78 <__swhatbuf_r>
    1a2c:	89a3      	ldrh	r3, [r4, #12]
    1a2e:	4318      	orrs	r0, r3
    1a30:	81a0      	strh	r0, [r4, #12]
    1a32:	2d00      	cmp	r5, #0
    1a34:	d124      	bne.n	1a80 <setvbuf+0xdc>
    1a36:	9d02      	ldr	r5, [sp, #8]
    1a38:	0028      	movs	r0, r5
    1a3a:	f000 fa89 	bl	1f50 <malloc>
    1a3e:	9501      	str	r5, [sp, #4]
    1a40:	1e07      	subs	r7, r0, #0
    1a42:	d142      	bne.n	1aca <setvbuf+0x126>
    1a44:	9b02      	ldr	r3, [sp, #8]
    1a46:	9301      	str	r3, [sp, #4]
    1a48:	42ab      	cmp	r3, r5
    1a4a:	d139      	bne.n	1ac0 <setvbuf+0x11c>
    1a4c:	2001      	movs	r0, #1
    1a4e:	4240      	negs	r0, r0
    1a50:	2302      	movs	r3, #2
    1a52:	89a2      	ldrh	r2, [r4, #12]
    1a54:	4313      	orrs	r3, r2
    1a56:	81a3      	strh	r3, [r4, #12]
    1a58:	2300      	movs	r3, #0
    1a5a:	60a3      	str	r3, [r4, #8]
    1a5c:	0023      	movs	r3, r4
    1a5e:	3347      	adds	r3, #71	; 0x47
    1a60:	6023      	str	r3, [r4, #0]
    1a62:	6123      	str	r3, [r4, #16]
    1a64:	2301      	movs	r3, #1
    1a66:	6163      	str	r3, [r4, #20]
    1a68:	b005      	add	sp, #20
    1a6a:	bdf0      	pop	{r4, r5, r6, r7, pc}
    1a6c:	4b21      	ldr	r3, [pc, #132]	; (1af4 <setvbuf+0x150>)
    1a6e:	429c      	cmp	r4, r3
    1a70:	d101      	bne.n	1a76 <setvbuf+0xd2>
    1a72:	68b4      	ldr	r4, [r6, #8]
    1a74:	e7aa      	b.n	19cc <setvbuf+0x28>
    1a76:	4b20      	ldr	r3, [pc, #128]	; (1af8 <setvbuf+0x154>)
    1a78:	429c      	cmp	r4, r3
    1a7a:	d1a7      	bne.n	19cc <setvbuf+0x28>
    1a7c:	68f4      	ldr	r4, [r6, #12]
    1a7e:	e7a5      	b.n	19cc <setvbuf+0x28>
    1a80:	2f00      	cmp	r7, #0
    1a82:	d0d9      	beq.n	1a38 <setvbuf+0x94>
    1a84:	69b3      	ldr	r3, [r6, #24]
    1a86:	2b00      	cmp	r3, #0
    1a88:	d102      	bne.n	1a90 <setvbuf+0xec>
    1a8a:	0030      	movs	r0, r6
    1a8c:	f000 f942 	bl	1d14 <__sinit>
    1a90:	9b00      	ldr	r3, [sp, #0]
    1a92:	2b01      	cmp	r3, #1
    1a94:	d103      	bne.n	1a9e <setvbuf+0xfa>
    1a96:	89a3      	ldrh	r3, [r4, #12]
    1a98:	9a00      	ldr	r2, [sp, #0]
    1a9a:	431a      	orrs	r2, r3
    1a9c:	81a2      	strh	r2, [r4, #12]
    1a9e:	2008      	movs	r0, #8
    1aa0:	89a3      	ldrh	r3, [r4, #12]
    1aa2:	6027      	str	r7, [r4, #0]
    1aa4:	6127      	str	r7, [r4, #16]
    1aa6:	6165      	str	r5, [r4, #20]
    1aa8:	4018      	ands	r0, r3
    1aaa:	d018      	beq.n	1ade <setvbuf+0x13a>
    1aac:	2001      	movs	r0, #1
    1aae:	4018      	ands	r0, r3
    1ab0:	2300      	movs	r3, #0
    1ab2:	4298      	cmp	r0, r3
    1ab4:	d011      	beq.n	1ada <setvbuf+0x136>
    1ab6:	426d      	negs	r5, r5
    1ab8:	60a3      	str	r3, [r4, #8]
    1aba:	61a5      	str	r5, [r4, #24]
    1abc:	0018      	movs	r0, r3
    1abe:	e7d3      	b.n	1a68 <setvbuf+0xc4>
    1ac0:	9801      	ldr	r0, [sp, #4]
    1ac2:	f000 fa45 	bl	1f50 <malloc>
    1ac6:	1e07      	subs	r7, r0, #0
    1ac8:	d0c0      	beq.n	1a4c <setvbuf+0xa8>
    1aca:	2380      	movs	r3, #128	; 0x80
    1acc:	89a2      	ldrh	r2, [r4, #12]
    1ace:	9d01      	ldr	r5, [sp, #4]
    1ad0:	4313      	orrs	r3, r2
    1ad2:	81a3      	strh	r3, [r4, #12]
    1ad4:	e7d6      	b.n	1a84 <setvbuf+0xe0>
    1ad6:	2000      	movs	r0, #0
    1ad8:	e7ba      	b.n	1a50 <setvbuf+0xac>
    1ada:	60a5      	str	r5, [r4, #8]
    1adc:	e7c4      	b.n	1a68 <setvbuf+0xc4>
    1ade:	60a0      	str	r0, [r4, #8]
    1ae0:	e7c2      	b.n	1a68 <setvbuf+0xc4>
    1ae2:	2001      	movs	r0, #1
    1ae4:	4240      	negs	r0, r0
    1ae6:	e7bf      	b.n	1a68 <setvbuf+0xc4>
    1ae8:	20000004 	.word	0x20000004
    1aec:	00003698 	.word	0x00003698
    1af0:	fffff35c 	.word	0xfffff35c
    1af4:	000036b8 	.word	0x000036b8
    1af8:	00003678 	.word	0x00003678

00001afc <__sflush_r>:
    1afc:	b5f7      	push	{r0, r1, r2, r4, r5, r6, r7, lr}
    1afe:	898a      	ldrh	r2, [r1, #12]
    1b00:	0005      	movs	r5, r0
    1b02:	000c      	movs	r4, r1
    1b04:	0713      	lsls	r3, r2, #28
    1b06:	d460      	bmi.n	1bca <__sflush_r+0xce>
    1b08:	684b      	ldr	r3, [r1, #4]
    1b0a:	2b00      	cmp	r3, #0
    1b0c:	dc04      	bgt.n	1b18 <__sflush_r+0x1c>
    1b0e:	6c0b      	ldr	r3, [r1, #64]	; 0x40
    1b10:	2b00      	cmp	r3, #0
    1b12:	dc01      	bgt.n	1b18 <__sflush_r+0x1c>
    1b14:	2000      	movs	r0, #0
    1b16:	bdfe      	pop	{r1, r2, r3, r4, r5, r6, r7, pc}
    1b18:	6ae7      	ldr	r7, [r4, #44]	; 0x2c
    1b1a:	2f00      	cmp	r7, #0
    1b1c:	d0fa      	beq.n	1b14 <__sflush_r+0x18>
    1b1e:	2300      	movs	r3, #0
    1b20:	682e      	ldr	r6, [r5, #0]
    1b22:	602b      	str	r3, [r5, #0]
    1b24:	2380      	movs	r3, #128	; 0x80
    1b26:	015b      	lsls	r3, r3, #5
    1b28:	401a      	ands	r2, r3
    1b2a:	d034      	beq.n	1b96 <__sflush_r+0x9a>
    1b2c:	6d60      	ldr	r0, [r4, #84]	; 0x54
    1b2e:	89a3      	ldrh	r3, [r4, #12]
    1b30:	075b      	lsls	r3, r3, #29
    1b32:	d506      	bpl.n	1b42 <__sflush_r+0x46>
    1b34:	6863      	ldr	r3, [r4, #4]
    1b36:	1ac0      	subs	r0, r0, r3
    1b38:	6b63      	ldr	r3, [r4, #52]	; 0x34
    1b3a:	2b00      	cmp	r3, #0
    1b3c:	d001      	beq.n	1b42 <__sflush_r+0x46>
    1b3e:	6c23      	ldr	r3, [r4, #64]	; 0x40
    1b40:	1ac0      	subs	r0, r0, r3
    1b42:	0002      	movs	r2, r0
    1b44:	6a21      	ldr	r1, [r4, #32]
    1b46:	2300      	movs	r3, #0
    1b48:	0028      	movs	r0, r5
    1b4a:	6ae7      	ldr	r7, [r4, #44]	; 0x2c
    1b4c:	47b8      	blx	r7
    1b4e:	89a1      	ldrh	r1, [r4, #12]
    1b50:	1c43      	adds	r3, r0, #1
    1b52:	d106      	bne.n	1b62 <__sflush_r+0x66>
    1b54:	682b      	ldr	r3, [r5, #0]
    1b56:	2b1d      	cmp	r3, #29
    1b58:	d831      	bhi.n	1bbe <__sflush_r+0xc2>
    1b5a:	4a2c      	ldr	r2, [pc, #176]	; (1c0c <__sflush_r+0x110>)
    1b5c:	40da      	lsrs	r2, r3
    1b5e:	07d3      	lsls	r3, r2, #31
    1b60:	d52d      	bpl.n	1bbe <__sflush_r+0xc2>
    1b62:	2300      	movs	r3, #0
    1b64:	6063      	str	r3, [r4, #4]
    1b66:	6923      	ldr	r3, [r4, #16]
    1b68:	6023      	str	r3, [r4, #0]
    1b6a:	04cb      	lsls	r3, r1, #19
    1b6c:	d505      	bpl.n	1b7a <__sflush_r+0x7e>
    1b6e:	1c43      	adds	r3, r0, #1
    1b70:	d102      	bne.n	1b78 <__sflush_r+0x7c>
    1b72:	682b      	ldr	r3, [r5, #0]
    1b74:	2b00      	cmp	r3, #0
    1b76:	d100      	bne.n	1b7a <__sflush_r+0x7e>
    1b78:	6560      	str	r0, [r4, #84]	; 0x54
    1b7a:	6b61      	ldr	r1, [r4, #52]	; 0x34
    1b7c:	602e      	str	r6, [r5, #0]
    1b7e:	2900      	cmp	r1, #0
    1b80:	d0c8      	beq.n	1b14 <__sflush_r+0x18>
    1b82:	0023      	movs	r3, r4
    1b84:	3344      	adds	r3, #68	; 0x44
    1b86:	4299      	cmp	r1, r3
    1b88:	d002      	beq.n	1b90 <__sflush_r+0x94>
    1b8a:	0028      	movs	r0, r5
    1b8c:	f000 f9ea 	bl	1f64 <_free_r>
    1b90:	2000      	movs	r0, #0
    1b92:	6360      	str	r0, [r4, #52]	; 0x34
    1b94:	e7bf      	b.n	1b16 <__sflush_r+0x1a>
    1b96:	2301      	movs	r3, #1
    1b98:	6a21      	ldr	r1, [r4, #32]
    1b9a:	0028      	movs	r0, r5
    1b9c:	47b8      	blx	r7
    1b9e:	1c43      	adds	r3, r0, #1
    1ba0:	d1c5      	bne.n	1b2e <__sflush_r+0x32>
    1ba2:	682b      	ldr	r3, [r5, #0]
    1ba4:	2b00      	cmp	r3, #0
    1ba6:	d0c2      	beq.n	1b2e <__sflush_r+0x32>
    1ba8:	2b1d      	cmp	r3, #29
    1baa:	d001      	beq.n	1bb0 <__sflush_r+0xb4>
    1bac:	2b16      	cmp	r3, #22
    1bae:	d101      	bne.n	1bb4 <__sflush_r+0xb8>
    1bb0:	602e      	str	r6, [r5, #0]
    1bb2:	e7af      	b.n	1b14 <__sflush_r+0x18>
    1bb4:	2340      	movs	r3, #64	; 0x40
    1bb6:	89a2      	ldrh	r2, [r4, #12]
    1bb8:	4313      	orrs	r3, r2
    1bba:	81a3      	strh	r3, [r4, #12]
    1bbc:	e7ab      	b.n	1b16 <__sflush_r+0x1a>
    1bbe:	2340      	movs	r3, #64	; 0x40
    1bc0:	430b      	orrs	r3, r1
    1bc2:	2001      	movs	r0, #1
    1bc4:	81a3      	strh	r3, [r4, #12]
    1bc6:	4240      	negs	r0, r0
    1bc8:	e7a5      	b.n	1b16 <__sflush_r+0x1a>
    1bca:	690f      	ldr	r7, [r1, #16]
    1bcc:	2f00      	cmp	r7, #0
    1bce:	d0a1      	beq.n	1b14 <__sflush_r+0x18>
    1bd0:	680b      	ldr	r3, [r1, #0]
    1bd2:	600f      	str	r7, [r1, #0]
    1bd4:	1bdb      	subs	r3, r3, r7
    1bd6:	9301      	str	r3, [sp, #4]
    1bd8:	2300      	movs	r3, #0
    1bda:	0792      	lsls	r2, r2, #30
    1bdc:	d100      	bne.n	1be0 <__sflush_r+0xe4>
    1bde:	694b      	ldr	r3, [r1, #20]
    1be0:	60a3      	str	r3, [r4, #8]
    1be2:	9b01      	ldr	r3, [sp, #4]
    1be4:	2b00      	cmp	r3, #0
    1be6:	dc00      	bgt.n	1bea <__sflush_r+0xee>
    1be8:	e794      	b.n	1b14 <__sflush_r+0x18>
    1bea:	9b01      	ldr	r3, [sp, #4]
    1bec:	003a      	movs	r2, r7
    1bee:	6a21      	ldr	r1, [r4, #32]
    1bf0:	0028      	movs	r0, r5
    1bf2:	6aa6      	ldr	r6, [r4, #40]	; 0x28
    1bf4:	47b0      	blx	r6
    1bf6:	2800      	cmp	r0, #0
    1bf8:	dc03      	bgt.n	1c02 <__sflush_r+0x106>
    1bfa:	2340      	movs	r3, #64	; 0x40
    1bfc:	89a2      	ldrh	r2, [r4, #12]
    1bfe:	4313      	orrs	r3, r2
    1c00:	e7df      	b.n	1bc2 <__sflush_r+0xc6>
    1c02:	9b01      	ldr	r3, [sp, #4]
    1c04:	183f      	adds	r7, r7, r0
    1c06:	1a1b      	subs	r3, r3, r0
    1c08:	9301      	str	r3, [sp, #4]
    1c0a:	e7ea      	b.n	1be2 <__sflush_r+0xe6>
    1c0c:	20400001 	.word	0x20400001

00001c10 <_fflush_r>:
    1c10:	690b      	ldr	r3, [r1, #16]
    1c12:	b570      	push	{r4, r5, r6, lr}
    1c14:	0005      	movs	r5, r0
    1c16:	000c      	movs	r4, r1
    1c18:	2b00      	cmp	r3, #0
    1c1a:	d101      	bne.n	1c20 <_fflush_r+0x10>
    1c1c:	2000      	movs	r0, #0
    1c1e:	bd70      	pop	{r4, r5, r6, pc}
    1c20:	2800      	cmp	r0, #0
    1c22:	d004      	beq.n	1c2e <_fflush_r+0x1e>
    1c24:	6983      	ldr	r3, [r0, #24]
    1c26:	2b00      	cmp	r3, #0
    1c28:	d101      	bne.n	1c2e <_fflush_r+0x1e>
    1c2a:	f000 f873 	bl	1d14 <__sinit>
    1c2e:	4b0b      	ldr	r3, [pc, #44]	; (1c5c <_fflush_r+0x4c>)
    1c30:	429c      	cmp	r4, r3
    1c32:	d109      	bne.n	1c48 <_fflush_r+0x38>
    1c34:	686c      	ldr	r4, [r5, #4]
    1c36:	220c      	movs	r2, #12
    1c38:	5ea3      	ldrsh	r3, [r4, r2]
    1c3a:	2b00      	cmp	r3, #0
    1c3c:	d0ee      	beq.n	1c1c <_fflush_r+0xc>
    1c3e:	0021      	movs	r1, r4
    1c40:	0028      	movs	r0, r5
    1c42:	f7ff ff5b 	bl	1afc <__sflush_r>
    1c46:	e7ea      	b.n	1c1e <_fflush_r+0xe>
    1c48:	4b05      	ldr	r3, [pc, #20]	; (1c60 <_fflush_r+0x50>)
    1c4a:	429c      	cmp	r4, r3
    1c4c:	d101      	bne.n	1c52 <_fflush_r+0x42>
    1c4e:	68ac      	ldr	r4, [r5, #8]
    1c50:	e7f1      	b.n	1c36 <_fflush_r+0x26>
    1c52:	4b04      	ldr	r3, [pc, #16]	; (1c64 <_fflush_r+0x54>)
    1c54:	429c      	cmp	r4, r3
    1c56:	d1ee      	bne.n	1c36 <_fflush_r+0x26>
    1c58:	68ec      	ldr	r4, [r5, #12]
    1c5a:	e7ec      	b.n	1c36 <_fflush_r+0x26>
    1c5c:	00003698 	.word	0x00003698
    1c60:	000036b8 	.word	0x000036b8
    1c64:	00003678 	.word	0x00003678

00001c68 <fflush>:
    1c68:	b510      	push	{r4, lr}
    1c6a:	1e01      	subs	r1, r0, #0
    1c6c:	d105      	bne.n	1c7a <fflush+0x12>
    1c6e:	4b05      	ldr	r3, [pc, #20]	; (1c84 <fflush+0x1c>)
    1c70:	4905      	ldr	r1, [pc, #20]	; (1c88 <fflush+0x20>)
    1c72:	6818      	ldr	r0, [r3, #0]
    1c74:	f000 f8de 	bl	1e34 <_fwalk_reent>
    1c78:	bd10      	pop	{r4, pc}
    1c7a:	4b04      	ldr	r3, [pc, #16]	; (1c8c <fflush+0x24>)
    1c7c:	6818      	ldr	r0, [r3, #0]
    1c7e:	f7ff ffc7 	bl	1c10 <_fflush_r>
    1c82:	e7f9      	b.n	1c78 <fflush+0x10>
    1c84:	00003674 	.word	0x00003674
    1c88:	00001c11 	.word	0x00001c11
    1c8c:	20000004 	.word	0x20000004

00001c90 <_cleanup_r>:
    1c90:	b510      	push	{r4, lr}
    1c92:	4902      	ldr	r1, [pc, #8]	; (1c9c <_cleanup_r+0xc>)
    1c94:	f000 f8ce 	bl	1e34 <_fwalk_reent>
    1c98:	bd10      	pop	{r4, pc}
    1c9a:	46c0      	nop			; (mov r8, r8)
    1c9c:	00001c11 	.word	0x00001c11

00001ca0 <std.isra.0>:
    1ca0:	2300      	movs	r3, #0
    1ca2:	b510      	push	{r4, lr}
    1ca4:	0004      	movs	r4, r0
    1ca6:	6003      	str	r3, [r0, #0]
    1ca8:	6043      	str	r3, [r0, #4]
    1caa:	6083      	str	r3, [r0, #8]
    1cac:	8181      	strh	r1, [r0, #12]
    1cae:	6643      	str	r3, [r0, #100]	; 0x64
    1cb0:	81c2      	strh	r2, [r0, #14]
    1cb2:	6103      	str	r3, [r0, #16]
    1cb4:	6143      	str	r3, [r0, #20]
    1cb6:	6183      	str	r3, [r0, #24]
    1cb8:	0019      	movs	r1, r3
    1cba:	2208      	movs	r2, #8
    1cbc:	305c      	adds	r0, #92	; 0x5c
    1cbe:	f7ff fe2b 	bl	1918 <memset>
    1cc2:	4b05      	ldr	r3, [pc, #20]	; (1cd8 <std.isra.0+0x38>)
    1cc4:	6224      	str	r4, [r4, #32]
    1cc6:	6263      	str	r3, [r4, #36]	; 0x24
    1cc8:	4b04      	ldr	r3, [pc, #16]	; (1cdc <std.isra.0+0x3c>)
    1cca:	62a3      	str	r3, [r4, #40]	; 0x28
    1ccc:	4b04      	ldr	r3, [pc, #16]	; (1ce0 <std.isra.0+0x40>)
    1cce:	62e3      	str	r3, [r4, #44]	; 0x2c
    1cd0:	4b04      	ldr	r3, [pc, #16]	; (1ce4 <std.isra.0+0x44>)
    1cd2:	6323      	str	r3, [r4, #48]	; 0x30
    1cd4:	bd10      	pop	{r4, pc}
    1cd6:	46c0      	nop			; (mov r8, r8)
    1cd8:	00002e31 	.word	0x00002e31
    1cdc:	00002e59 	.word	0x00002e59
    1ce0:	00002e91 	.word	0x00002e91
    1ce4:	00002ebd 	.word	0x00002ebd

00001ce8 <__sfmoreglue>:
    1ce8:	b570      	push	{r4, r5, r6, lr}
    1cea:	2568      	movs	r5, #104	; 0x68
    1cec:	1e4a      	subs	r2, r1, #1
    1cee:	4355      	muls	r5, r2
    1cf0:	000e      	movs	r6, r1
    1cf2:	0029      	movs	r1, r5
    1cf4:	3174      	adds	r1, #116	; 0x74
    1cf6:	f000 f97f 	bl	1ff8 <_malloc_r>
    1cfa:	1e04      	subs	r4, r0, #0
    1cfc:	d008      	beq.n	1d10 <__sfmoreglue+0x28>
    1cfe:	2100      	movs	r1, #0
    1d00:	002a      	movs	r2, r5
    1d02:	6001      	str	r1, [r0, #0]
    1d04:	6046      	str	r6, [r0, #4]
    1d06:	300c      	adds	r0, #12
    1d08:	60a0      	str	r0, [r4, #8]
    1d0a:	3268      	adds	r2, #104	; 0x68
    1d0c:	f7ff fe04 	bl	1918 <memset>
    1d10:	0020      	movs	r0, r4
    1d12:	bd70      	pop	{r4, r5, r6, pc}

00001d14 <__sinit>:
    1d14:	6983      	ldr	r3, [r0, #24]
    1d16:	b513      	push	{r0, r1, r4, lr}
    1d18:	0004      	movs	r4, r0
    1d1a:	2b00      	cmp	r3, #0
    1d1c:	d128      	bne.n	1d70 <__sinit+0x5c>
    1d1e:	6483      	str	r3, [r0, #72]	; 0x48
    1d20:	64c3      	str	r3, [r0, #76]	; 0x4c
    1d22:	6503      	str	r3, [r0, #80]	; 0x50
    1d24:	4b13      	ldr	r3, [pc, #76]	; (1d74 <__sinit+0x60>)
    1d26:	4a14      	ldr	r2, [pc, #80]	; (1d78 <__sinit+0x64>)
    1d28:	681b      	ldr	r3, [r3, #0]
    1d2a:	6282      	str	r2, [r0, #40]	; 0x28
    1d2c:	9301      	str	r3, [sp, #4]
    1d2e:	4298      	cmp	r0, r3
    1d30:	d101      	bne.n	1d36 <__sinit+0x22>
    1d32:	2301      	movs	r3, #1
    1d34:	6183      	str	r3, [r0, #24]
    1d36:	0020      	movs	r0, r4
    1d38:	f000 f820 	bl	1d7c <__sfp>
    1d3c:	6060      	str	r0, [r4, #4]
    1d3e:	0020      	movs	r0, r4
    1d40:	f000 f81c 	bl	1d7c <__sfp>
    1d44:	60a0      	str	r0, [r4, #8]
    1d46:	0020      	movs	r0, r4
    1d48:	f000 f818 	bl	1d7c <__sfp>
    1d4c:	2200      	movs	r2, #0
    1d4e:	60e0      	str	r0, [r4, #12]
    1d50:	2104      	movs	r1, #4
    1d52:	6860      	ldr	r0, [r4, #4]
    1d54:	f7ff ffa4 	bl	1ca0 <std.isra.0>
    1d58:	2201      	movs	r2, #1
    1d5a:	2109      	movs	r1, #9
    1d5c:	68a0      	ldr	r0, [r4, #8]
    1d5e:	f7ff ff9f 	bl	1ca0 <std.isra.0>
    1d62:	2202      	movs	r2, #2
    1d64:	2112      	movs	r1, #18
    1d66:	68e0      	ldr	r0, [r4, #12]
    1d68:	f7ff ff9a 	bl	1ca0 <std.isra.0>
    1d6c:	2301      	movs	r3, #1
    1d6e:	61a3      	str	r3, [r4, #24]
    1d70:	bd13      	pop	{r0, r1, r4, pc}
    1d72:	46c0      	nop			; (mov r8, r8)
    1d74:	00003674 	.word	0x00003674
    1d78:	00001c91 	.word	0x00001c91

00001d7c <__sfp>:
    1d7c:	b5f8      	push	{r3, r4, r5, r6, r7, lr}
    1d7e:	4b1e      	ldr	r3, [pc, #120]	; (1df8 <__sfp+0x7c>)
    1d80:	0007      	movs	r7, r0
    1d82:	681e      	ldr	r6, [r3, #0]
    1d84:	69b3      	ldr	r3, [r6, #24]
    1d86:	2b00      	cmp	r3, #0
    1d88:	d102      	bne.n	1d90 <__sfp+0x14>
    1d8a:	0030      	movs	r0, r6
    1d8c:	f7ff ffc2 	bl	1d14 <__sinit>
    1d90:	3648      	adds	r6, #72	; 0x48
    1d92:	68b4      	ldr	r4, [r6, #8]
    1d94:	6873      	ldr	r3, [r6, #4]
    1d96:	3b01      	subs	r3, #1
    1d98:	d504      	bpl.n	1da4 <__sfp+0x28>
    1d9a:	6833      	ldr	r3, [r6, #0]
    1d9c:	2b00      	cmp	r3, #0
    1d9e:	d007      	beq.n	1db0 <__sfp+0x34>
    1da0:	6836      	ldr	r6, [r6, #0]
    1da2:	e7f6      	b.n	1d92 <__sfp+0x16>
    1da4:	220c      	movs	r2, #12
    1da6:	5ea5      	ldrsh	r5, [r4, r2]
    1da8:	2d00      	cmp	r5, #0
    1daa:	d00d      	beq.n	1dc8 <__sfp+0x4c>
    1dac:	3468      	adds	r4, #104	; 0x68
    1dae:	e7f2      	b.n	1d96 <__sfp+0x1a>
    1db0:	2104      	movs	r1, #4
    1db2:	0038      	movs	r0, r7
    1db4:	f7ff ff98 	bl	1ce8 <__sfmoreglue>
    1db8:	6030      	str	r0, [r6, #0]
    1dba:	2800      	cmp	r0, #0
    1dbc:	d1f0      	bne.n	1da0 <__sfp+0x24>
    1dbe:	230c      	movs	r3, #12
    1dc0:	0004      	movs	r4, r0
    1dc2:	603b      	str	r3, [r7, #0]
    1dc4:	0020      	movs	r0, r4
    1dc6:	bdf8      	pop	{r3, r4, r5, r6, r7, pc}
    1dc8:	2301      	movs	r3, #1
    1dca:	0020      	movs	r0, r4
    1dcc:	425b      	negs	r3, r3
    1dce:	81e3      	strh	r3, [r4, #14]
    1dd0:	3302      	adds	r3, #2
    1dd2:	81a3      	strh	r3, [r4, #12]
    1dd4:	6665      	str	r5, [r4, #100]	; 0x64
    1dd6:	6025      	str	r5, [r4, #0]
    1dd8:	60a5      	str	r5, [r4, #8]
    1dda:	6065      	str	r5, [r4, #4]
    1ddc:	6125      	str	r5, [r4, #16]
    1dde:	6165      	str	r5, [r4, #20]
    1de0:	61a5      	str	r5, [r4, #24]
    1de2:	2208      	movs	r2, #8
    1de4:	0029      	movs	r1, r5
    1de6:	305c      	adds	r0, #92	; 0x5c
    1de8:	f7ff fd96 	bl	1918 <memset>
    1dec:	6365      	str	r5, [r4, #52]	; 0x34
    1dee:	63a5      	str	r5, [r4, #56]	; 0x38
    1df0:	64a5      	str	r5, [r4, #72]	; 0x48
    1df2:	64e5      	str	r5, [r4, #76]	; 0x4c
    1df4:	e7e6      	b.n	1dc4 <__sfp+0x48>
    1df6:	46c0      	nop			; (mov r8, r8)
    1df8:	00003674 	.word	0x00003674

00001dfc <_fwalk>:
    1dfc:	b5f7      	push	{r0, r1, r2, r4, r5, r6, r7, lr}
    1dfe:	3048      	adds	r0, #72	; 0x48
    1e00:	0004      	movs	r4, r0
    1e02:	2600      	movs	r6, #0
    1e04:	9101      	str	r1, [sp, #4]
    1e06:	2c00      	cmp	r4, #0
    1e08:	d101      	bne.n	1e0e <_fwalk+0x12>
    1e0a:	0030      	movs	r0, r6
    1e0c:	bdfe      	pop	{r1, r2, r3, r4, r5, r6, r7, pc}
    1e0e:	68a5      	ldr	r5, [r4, #8]
    1e10:	6867      	ldr	r7, [r4, #4]
    1e12:	3f01      	subs	r7, #1
    1e14:	d501      	bpl.n	1e1a <_fwalk+0x1e>
    1e16:	6824      	ldr	r4, [r4, #0]
    1e18:	e7f5      	b.n	1e06 <_fwalk+0xa>
    1e1a:	89ab      	ldrh	r3, [r5, #12]
    1e1c:	2b01      	cmp	r3, #1
    1e1e:	d907      	bls.n	1e30 <_fwalk+0x34>
    1e20:	220e      	movs	r2, #14
    1e22:	5eab      	ldrsh	r3, [r5, r2]
    1e24:	3301      	adds	r3, #1
    1e26:	d003      	beq.n	1e30 <_fwalk+0x34>
    1e28:	0028      	movs	r0, r5
    1e2a:	9b01      	ldr	r3, [sp, #4]
    1e2c:	4798      	blx	r3
    1e2e:	4306      	orrs	r6, r0
    1e30:	3568      	adds	r5, #104	; 0x68
    1e32:	e7ee      	b.n	1e12 <_fwalk+0x16>

00001e34 <_fwalk_reent>:
    1e34:	b5f7      	push	{r0, r1, r2, r4, r5, r6, r7, lr}
    1e36:	0004      	movs	r4, r0
    1e38:	0007      	movs	r7, r0
    1e3a:	2600      	movs	r6, #0
    1e3c:	9101      	str	r1, [sp, #4]
    1e3e:	3448      	adds	r4, #72	; 0x48
    1e40:	2c00      	cmp	r4, #0
    1e42:	d101      	bne.n	1e48 <_fwalk_reent+0x14>
    1e44:	0030      	movs	r0, r6
    1e46:	bdfe      	pop	{r1, r2, r3, r4, r5, r6, r7, pc}
    1e48:	6863      	ldr	r3, [r4, #4]
    1e4a:	68a5      	ldr	r5, [r4, #8]
    1e4c:	9300      	str	r3, [sp, #0]
    1e4e:	9b00      	ldr	r3, [sp, #0]
    1e50:	3b01      	subs	r3, #1
    1e52:	9300      	str	r3, [sp, #0]
    1e54:	d501      	bpl.n	1e5a <_fwalk_reent+0x26>
    1e56:	6824      	ldr	r4, [r4, #0]
    1e58:	e7f2      	b.n	1e40 <_fwalk_reent+0xc>
    1e5a:	89ab      	ldrh	r3, [r5, #12]
    1e5c:	2b01      	cmp	r3, #1
    1e5e:	d908      	bls.n	1e72 <_fwalk_reent+0x3e>
    1e60:	220e      	movs	r2, #14
    1e62:	5eab      	ldrsh	r3, [r5, r2]
    1e64:	3301      	adds	r3, #1
    1e66:	d004      	beq.n	1e72 <_fwalk_reent+0x3e>
    1e68:	0029      	movs	r1, r5
    1e6a:	0038      	movs	r0, r7
    1e6c:	9b01      	ldr	r3, [sp, #4]
    1e6e:	4798      	blx	r3
    1e70:	4306      	orrs	r6, r0
    1e72:	3568      	adds	r5, #104	; 0x68
    1e74:	e7eb      	b.n	1e4e <_fwalk_reent+0x1a>
	...

00001e78 <__swhatbuf_r>:
    1e78:	b570      	push	{r4, r5, r6, lr}
    1e7a:	000e      	movs	r6, r1
    1e7c:	001d      	movs	r5, r3
    1e7e:	230e      	movs	r3, #14
    1e80:	5ec9      	ldrsh	r1, [r1, r3]
    1e82:	b090      	sub	sp, #64	; 0x40
    1e84:	0014      	movs	r4, r2
    1e86:	2900      	cmp	r1, #0
    1e88:	da07      	bge.n	1e9a <__swhatbuf_r+0x22>
    1e8a:	2300      	movs	r3, #0
    1e8c:	602b      	str	r3, [r5, #0]
    1e8e:	89b3      	ldrh	r3, [r6, #12]
    1e90:	061b      	lsls	r3, r3, #24
    1e92:	d411      	bmi.n	1eb8 <__swhatbuf_r+0x40>
    1e94:	2380      	movs	r3, #128	; 0x80
    1e96:	00db      	lsls	r3, r3, #3
    1e98:	e00f      	b.n	1eba <__swhatbuf_r+0x42>
    1e9a:	aa01      	add	r2, sp, #4
    1e9c:	f001 fae4 	bl	3468 <_fstat_r>
    1ea0:	2800      	cmp	r0, #0
    1ea2:	dbf2      	blt.n	1e8a <__swhatbuf_r+0x12>
    1ea4:	22f0      	movs	r2, #240	; 0xf0
    1ea6:	9b02      	ldr	r3, [sp, #8]
    1ea8:	0212      	lsls	r2, r2, #8
    1eaa:	4013      	ands	r3, r2
    1eac:	4a05      	ldr	r2, [pc, #20]	; (1ec4 <__swhatbuf_r+0x4c>)
    1eae:	189b      	adds	r3, r3, r2
    1eb0:	425a      	negs	r2, r3
    1eb2:	4153      	adcs	r3, r2
    1eb4:	602b      	str	r3, [r5, #0]
    1eb6:	e7ed      	b.n	1e94 <__swhatbuf_r+0x1c>
    1eb8:	2340      	movs	r3, #64	; 0x40
    1eba:	2000      	movs	r0, #0
    1ebc:	6023      	str	r3, [r4, #0]
    1ebe:	b010      	add	sp, #64	; 0x40
    1ec0:	bd70      	pop	{r4, r5, r6, pc}
    1ec2:	46c0      	nop			; (mov r8, r8)
    1ec4:	ffffe000 	.word	0xffffe000

00001ec8 <__smakebuf_r>:
    1ec8:	b5f7      	push	{r0, r1, r2, r4, r5, r6, r7, lr}
    1eca:	2602      	movs	r6, #2
    1ecc:	898b      	ldrh	r3, [r1, #12]
    1ece:	0005      	movs	r5, r0
    1ed0:	000c      	movs	r4, r1
    1ed2:	4233      	tst	r3, r6
    1ed4:	d006      	beq.n	1ee4 <__smakebuf_r+0x1c>
    1ed6:	0023      	movs	r3, r4
    1ed8:	3347      	adds	r3, #71	; 0x47
    1eda:	6023      	str	r3, [r4, #0]
    1edc:	6123      	str	r3, [r4, #16]
    1ede:	2301      	movs	r3, #1
    1ee0:	6163      	str	r3, [r4, #20]
    1ee2:	bdf7      	pop	{r0, r1, r2, r4, r5, r6, r7, pc}
    1ee4:	ab01      	add	r3, sp, #4
    1ee6:	466a      	mov	r2, sp
    1ee8:	f7ff ffc6 	bl	1e78 <__swhatbuf_r>
    1eec:	9900      	ldr	r1, [sp, #0]
    1eee:	0007      	movs	r7, r0
    1ef0:	0028      	movs	r0, r5
    1ef2:	f000 f881 	bl	1ff8 <_malloc_r>
    1ef6:	2800      	cmp	r0, #0
    1ef8:	d108      	bne.n	1f0c <__smakebuf_r+0x44>
    1efa:	220c      	movs	r2, #12
    1efc:	5ea3      	ldrsh	r3, [r4, r2]
    1efe:	059a      	lsls	r2, r3, #22
    1f00:	d4ef      	bmi.n	1ee2 <__smakebuf_r+0x1a>
    1f02:	2203      	movs	r2, #3
    1f04:	4393      	bics	r3, r2
    1f06:	431e      	orrs	r6, r3
    1f08:	81a6      	strh	r6, [r4, #12]
    1f0a:	e7e4      	b.n	1ed6 <__smakebuf_r+0xe>
    1f0c:	4b0f      	ldr	r3, [pc, #60]	; (1f4c <__smakebuf_r+0x84>)
    1f0e:	62ab      	str	r3, [r5, #40]	; 0x28
    1f10:	2380      	movs	r3, #128	; 0x80
    1f12:	89a2      	ldrh	r2, [r4, #12]
    1f14:	6020      	str	r0, [r4, #0]
    1f16:	4313      	orrs	r3, r2
    1f18:	81a3      	strh	r3, [r4, #12]
    1f1a:	9b00      	ldr	r3, [sp, #0]
    1f1c:	6120      	str	r0, [r4, #16]
    1f1e:	6163      	str	r3, [r4, #20]
    1f20:	9b01      	ldr	r3, [sp, #4]
    1f22:	2b00      	cmp	r3, #0
    1f24:	d00d      	beq.n	1f42 <__smakebuf_r+0x7a>
    1f26:	230e      	movs	r3, #14
    1f28:	5ee1      	ldrsh	r1, [r4, r3]
    1f2a:	0028      	movs	r0, r5
    1f2c:	f001 faae 	bl	348c <_isatty_r>
    1f30:	2800      	cmp	r0, #0
    1f32:	d006      	beq.n	1f42 <__smakebuf_r+0x7a>
    1f34:	2203      	movs	r2, #3
    1f36:	89a3      	ldrh	r3, [r4, #12]
    1f38:	4393      	bics	r3, r2
    1f3a:	001a      	movs	r2, r3
    1f3c:	2301      	movs	r3, #1
    1f3e:	4313      	orrs	r3, r2
    1f40:	81a3      	strh	r3, [r4, #12]
    1f42:	89a0      	ldrh	r0, [r4, #12]
    1f44:	4338      	orrs	r0, r7
    1f46:	81a0      	strh	r0, [r4, #12]
    1f48:	e7cb      	b.n	1ee2 <__smakebuf_r+0x1a>
    1f4a:	46c0      	nop			; (mov r8, r8)
    1f4c:	00001c91 	.word	0x00001c91

00001f50 <malloc>:
    1f50:	b510      	push	{r4, lr}
    1f52:	4b03      	ldr	r3, [pc, #12]	; (1f60 <malloc+0x10>)
    1f54:	0001      	movs	r1, r0
    1f56:	6818      	ldr	r0, [r3, #0]
    1f58:	f000 f84e 	bl	1ff8 <_malloc_r>
    1f5c:	bd10      	pop	{r4, pc}
    1f5e:	46c0      	nop			; (mov r8, r8)
    1f60:	20000004 	.word	0x20000004

00001f64 <_free_r>:
    1f64:	b570      	push	{r4, r5, r6, lr}
    1f66:	0005      	movs	r5, r0
    1f68:	2900      	cmp	r1, #0
    1f6a:	d010      	beq.n	1f8e <_free_r+0x2a>
    1f6c:	1f0c      	subs	r4, r1, #4
    1f6e:	6823      	ldr	r3, [r4, #0]
    1f70:	2b00      	cmp	r3, #0
    1f72:	da00      	bge.n	1f76 <_free_r+0x12>
    1f74:	18e4      	adds	r4, r4, r3
    1f76:	0028      	movs	r0, r5
    1f78:	f001 fae6 	bl	3548 <__malloc_lock>
    1f7c:	4a1d      	ldr	r2, [pc, #116]	; (1ff4 <_free_r+0x90>)
    1f7e:	6813      	ldr	r3, [r2, #0]
    1f80:	2b00      	cmp	r3, #0
    1f82:	d105      	bne.n	1f90 <_free_r+0x2c>
    1f84:	6063      	str	r3, [r4, #4]
    1f86:	6014      	str	r4, [r2, #0]
    1f88:	0028      	movs	r0, r5
    1f8a:	f001 fade 	bl	354a <__malloc_unlock>
    1f8e:	bd70      	pop	{r4, r5, r6, pc}
    1f90:	42a3      	cmp	r3, r4
    1f92:	d909      	bls.n	1fa8 <_free_r+0x44>
    1f94:	6821      	ldr	r1, [r4, #0]
    1f96:	1860      	adds	r0, r4, r1
    1f98:	4283      	cmp	r3, r0
    1f9a:	d1f3      	bne.n	1f84 <_free_r+0x20>
    1f9c:	6818      	ldr	r0, [r3, #0]
    1f9e:	685b      	ldr	r3, [r3, #4]
    1fa0:	1841      	adds	r1, r0, r1
    1fa2:	6021      	str	r1, [r4, #0]
    1fa4:	e7ee      	b.n	1f84 <_free_r+0x20>
    1fa6:	0013      	movs	r3, r2
    1fa8:	685a      	ldr	r2, [r3, #4]
    1faa:	2a00      	cmp	r2, #0
    1fac:	d001      	beq.n	1fb2 <_free_r+0x4e>
    1fae:	42a2      	cmp	r2, r4
    1fb0:	d9f9      	bls.n	1fa6 <_free_r+0x42>
    1fb2:	6819      	ldr	r1, [r3, #0]
    1fb4:	1858      	adds	r0, r3, r1
    1fb6:	42a0      	cmp	r0, r4
    1fb8:	d10b      	bne.n	1fd2 <_free_r+0x6e>
    1fba:	6820      	ldr	r0, [r4, #0]
    1fbc:	1809      	adds	r1, r1, r0
    1fbe:	1858      	adds	r0, r3, r1
    1fc0:	6019      	str	r1, [r3, #0]
    1fc2:	4282      	cmp	r2, r0
    1fc4:	d1e0      	bne.n	1f88 <_free_r+0x24>
    1fc6:	6810      	ldr	r0, [r2, #0]
    1fc8:	6852      	ldr	r2, [r2, #4]
    1fca:	1841      	adds	r1, r0, r1
    1fcc:	6019      	str	r1, [r3, #0]
    1fce:	605a      	str	r2, [r3, #4]
    1fd0:	e7da      	b.n	1f88 <_free_r+0x24>
    1fd2:	42a0      	cmp	r0, r4
    1fd4:	d902      	bls.n	1fdc <_free_r+0x78>
    1fd6:	230c      	movs	r3, #12
    1fd8:	602b      	str	r3, [r5, #0]
    1fda:	e7d5      	b.n	1f88 <_free_r+0x24>
    1fdc:	6821      	ldr	r1, [r4, #0]
    1fde:	1860      	adds	r0, r4, r1
    1fe0:	4282      	cmp	r2, r0
    1fe2:	d103      	bne.n	1fec <_free_r+0x88>
    1fe4:	6810      	ldr	r0, [r2, #0]
    1fe6:	6852      	ldr	r2, [r2, #4]
    1fe8:	1841      	adds	r1, r0, r1
    1fea:	6021      	str	r1, [r4, #0]
    1fec:	6062      	str	r2, [r4, #4]
    1fee:	605c      	str	r4, [r3, #4]
    1ff0:	e7ca      	b.n	1f88 <_free_r+0x24>
    1ff2:	46c0      	nop			; (mov r8, r8)
    1ff4:	20000230 	.word	0x20000230

00001ff8 <_malloc_r>:
    1ff8:	2303      	movs	r3, #3
    1ffa:	b570      	push	{r4, r5, r6, lr}
    1ffc:	1ccd      	adds	r5, r1, #3
    1ffe:	439d      	bics	r5, r3
    2000:	3508      	adds	r5, #8
    2002:	0006      	movs	r6, r0
    2004:	2d0c      	cmp	r5, #12
    2006:	d21e      	bcs.n	2046 <STACK_SIZE+0x46>
    2008:	250c      	movs	r5, #12
    200a:	42a9      	cmp	r1, r5
    200c:	d81d      	bhi.n	204a <STACK_SIZE+0x4a>
    200e:	0030      	movs	r0, r6
    2010:	f001 fa9a 	bl	3548 <__malloc_lock>
    2014:	4a25      	ldr	r2, [pc, #148]	; (20ac <STACK_SIZE+0xac>)
    2016:	6814      	ldr	r4, [r2, #0]
    2018:	0021      	movs	r1, r4
    201a:	2900      	cmp	r1, #0
    201c:	d119      	bne.n	2052 <STACK_SIZE+0x52>
    201e:	4c24      	ldr	r4, [pc, #144]	; (20b0 <STACK_SIZE+0xb0>)
    2020:	6823      	ldr	r3, [r4, #0]
    2022:	2b00      	cmp	r3, #0
    2024:	d103      	bne.n	202e <STACK_SIZE+0x2e>
    2026:	0030      	movs	r0, r6
    2028:	f000 febe 	bl	2da8 <_sbrk_r>
    202c:	6020      	str	r0, [r4, #0]
    202e:	0029      	movs	r1, r5
    2030:	0030      	movs	r0, r6
    2032:	f000 feb9 	bl	2da8 <_sbrk_r>
    2036:	1c43      	adds	r3, r0, #1
    2038:	d12c      	bne.n	2094 <STACK_SIZE+0x94>
    203a:	230c      	movs	r3, #12
    203c:	0030      	movs	r0, r6
    203e:	6033      	str	r3, [r6, #0]
    2040:	f001 fa83 	bl	354a <__malloc_unlock>
    2044:	e003      	b.n	204e <STACK_SIZE+0x4e>
    2046:	2d00      	cmp	r5, #0
    2048:	dadf      	bge.n	200a <STACK_SIZE+0xa>
    204a:	230c      	movs	r3, #12
    204c:	6033      	str	r3, [r6, #0]
    204e:	2000      	movs	r0, #0
    2050:	bd70      	pop	{r4, r5, r6, pc}
    2052:	680b      	ldr	r3, [r1, #0]
    2054:	1b5b      	subs	r3, r3, r5
    2056:	d41a      	bmi.n	208e <STACK_SIZE+0x8e>
    2058:	2b0b      	cmp	r3, #11
    205a:	d903      	bls.n	2064 <STACK_SIZE+0x64>
    205c:	600b      	str	r3, [r1, #0]
    205e:	18cc      	adds	r4, r1, r3
    2060:	6025      	str	r5, [r4, #0]
    2062:	e003      	b.n	206c <STACK_SIZE+0x6c>
    2064:	428c      	cmp	r4, r1
    2066:	d10e      	bne.n	2086 <STACK_SIZE+0x86>
    2068:	6863      	ldr	r3, [r4, #4]
    206a:	6013      	str	r3, [r2, #0]
    206c:	0030      	movs	r0, r6
    206e:	f001 fa6c 	bl	354a <__malloc_unlock>
    2072:	0020      	movs	r0, r4
    2074:	2207      	movs	r2, #7
    2076:	300b      	adds	r0, #11
    2078:	1d23      	adds	r3, r4, #4
    207a:	4390      	bics	r0, r2
    207c:	1ac3      	subs	r3, r0, r3
    207e:	d0e7      	beq.n	2050 <STACK_SIZE+0x50>
    2080:	425a      	negs	r2, r3
    2082:	50e2      	str	r2, [r4, r3]
    2084:	e7e4      	b.n	2050 <STACK_SIZE+0x50>
    2086:	684b      	ldr	r3, [r1, #4]
    2088:	6063      	str	r3, [r4, #4]
    208a:	000c      	movs	r4, r1
    208c:	e7ee      	b.n	206c <STACK_SIZE+0x6c>
    208e:	000c      	movs	r4, r1
    2090:	6849      	ldr	r1, [r1, #4]
    2092:	e7c2      	b.n	201a <STACK_SIZE+0x1a>
    2094:	2303      	movs	r3, #3
    2096:	1cc4      	adds	r4, r0, #3
    2098:	439c      	bics	r4, r3
    209a:	42a0      	cmp	r0, r4
    209c:	d0e0      	beq.n	2060 <STACK_SIZE+0x60>
    209e:	1a21      	subs	r1, r4, r0
    20a0:	0030      	movs	r0, r6
    20a2:	f000 fe81 	bl	2da8 <_sbrk_r>
    20a6:	1c43      	adds	r3, r0, #1
    20a8:	d1da      	bne.n	2060 <STACK_SIZE+0x60>
    20aa:	e7c6      	b.n	203a <STACK_SIZE+0x3a>
    20ac:	20000230 	.word	0x20000230
    20b0:	20000234 	.word	0x20000234

000020b4 <__sfputc_r>:
    20b4:	6893      	ldr	r3, [r2, #8]
    20b6:	b510      	push	{r4, lr}
    20b8:	3b01      	subs	r3, #1
    20ba:	6093      	str	r3, [r2, #8]
    20bc:	2b00      	cmp	r3, #0
    20be:	da05      	bge.n	20cc <__sfputc_r+0x18>
    20c0:	6994      	ldr	r4, [r2, #24]
    20c2:	42a3      	cmp	r3, r4
    20c4:	db08      	blt.n	20d8 <__sfputc_r+0x24>
    20c6:	b2cb      	uxtb	r3, r1
    20c8:	2b0a      	cmp	r3, #10
    20ca:	d005      	beq.n	20d8 <__sfputc_r+0x24>
    20cc:	6813      	ldr	r3, [r2, #0]
    20ce:	1c58      	adds	r0, r3, #1
    20d0:	6010      	str	r0, [r2, #0]
    20d2:	7019      	strb	r1, [r3, #0]
    20d4:	b2c8      	uxtb	r0, r1
    20d6:	bd10      	pop	{r4, pc}
    20d8:	f001 f8d4 	bl	3284 <__swbuf_r>
    20dc:	e7fb      	b.n	20d6 <__sfputc_r+0x22>

000020de <__sfputs_r>:
    20de:	b5f8      	push	{r3, r4, r5, r6, r7, lr}
    20e0:	0006      	movs	r6, r0
    20e2:	000f      	movs	r7, r1
    20e4:	0014      	movs	r4, r2
    20e6:	18d5      	adds	r5, r2, r3
    20e8:	42ac      	cmp	r4, r5
    20ea:	d101      	bne.n	20f0 <__sfputs_r+0x12>
    20ec:	2000      	movs	r0, #0
    20ee:	e007      	b.n	2100 <__sfputs_r+0x22>
    20f0:	7821      	ldrb	r1, [r4, #0]
    20f2:	003a      	movs	r2, r7
    20f4:	0030      	movs	r0, r6
    20f6:	f7ff ffdd 	bl	20b4 <__sfputc_r>
    20fa:	3401      	adds	r4, #1
    20fc:	1c43      	adds	r3, r0, #1
    20fe:	d1f3      	bne.n	20e8 <__sfputs_r+0xa>
    2100:	bdf8      	pop	{r3, r4, r5, r6, r7, pc}
	...

00002104 <_vfiprintf_r>:
    2104:	b5f0      	push	{r4, r5, r6, r7, lr}
    2106:	b09f      	sub	sp, #124	; 0x7c
    2108:	0006      	movs	r6, r0
    210a:	000f      	movs	r7, r1
    210c:	0014      	movs	r4, r2
    210e:	9305      	str	r3, [sp, #20]
    2110:	2800      	cmp	r0, #0
    2112:	d004      	beq.n	211e <_vfiprintf_r+0x1a>
    2114:	6983      	ldr	r3, [r0, #24]
    2116:	2b00      	cmp	r3, #0
    2118:	d101      	bne.n	211e <_vfiprintf_r+0x1a>
    211a:	f7ff fdfb 	bl	1d14 <__sinit>
    211e:	4b7f      	ldr	r3, [pc, #508]	; (231c <_vfiprintf_r+0x218>)
    2120:	429f      	cmp	r7, r3
    2122:	d15c      	bne.n	21de <_vfiprintf_r+0xda>
    2124:	6877      	ldr	r7, [r6, #4]
    2126:	89bb      	ldrh	r3, [r7, #12]
    2128:	071b      	lsls	r3, r3, #28
    212a:	d562      	bpl.n	21f2 <_vfiprintf_r+0xee>
    212c:	693b      	ldr	r3, [r7, #16]
    212e:	2b00      	cmp	r3, #0
    2130:	d05f      	beq.n	21f2 <_vfiprintf_r+0xee>
    2132:	2300      	movs	r3, #0
    2134:	ad06      	add	r5, sp, #24
    2136:	616b      	str	r3, [r5, #20]
    2138:	3320      	adds	r3, #32
    213a:	766b      	strb	r3, [r5, #25]
    213c:	3310      	adds	r3, #16
    213e:	76ab      	strb	r3, [r5, #26]
    2140:	9402      	str	r4, [sp, #8]
    2142:	9c02      	ldr	r4, [sp, #8]
    2144:	7823      	ldrb	r3, [r4, #0]
    2146:	2b00      	cmp	r3, #0
    2148:	d15d      	bne.n	2206 <_vfiprintf_r+0x102>
    214a:	9b02      	ldr	r3, [sp, #8]
    214c:	1ae3      	subs	r3, r4, r3
    214e:	9304      	str	r3, [sp, #16]
    2150:	d00d      	beq.n	216e <_vfiprintf_r+0x6a>
    2152:	9b04      	ldr	r3, [sp, #16]
    2154:	9a02      	ldr	r2, [sp, #8]
    2156:	0039      	movs	r1, r7
    2158:	0030      	movs	r0, r6
    215a:	f7ff ffc0 	bl	20de <__sfputs_r>
    215e:	1c43      	adds	r3, r0, #1
    2160:	d100      	bne.n	2164 <_vfiprintf_r+0x60>
    2162:	e0cc      	b.n	22fe <_vfiprintf_r+0x1fa>
    2164:	696a      	ldr	r2, [r5, #20]
    2166:	9b04      	ldr	r3, [sp, #16]
    2168:	4694      	mov	ip, r2
    216a:	4463      	add	r3, ip
    216c:	616b      	str	r3, [r5, #20]
    216e:	7823      	ldrb	r3, [r4, #0]
    2170:	2b00      	cmp	r3, #0
    2172:	d100      	bne.n	2176 <_vfiprintf_r+0x72>
    2174:	e0c3      	b.n	22fe <_vfiprintf_r+0x1fa>
    2176:	2201      	movs	r2, #1
    2178:	2300      	movs	r3, #0
    217a:	4252      	negs	r2, r2
    217c:	606a      	str	r2, [r5, #4]
    217e:	a902      	add	r1, sp, #8
    2180:	3254      	adds	r2, #84	; 0x54
    2182:	1852      	adds	r2, r2, r1
    2184:	3401      	adds	r4, #1
    2186:	602b      	str	r3, [r5, #0]
    2188:	60eb      	str	r3, [r5, #12]
    218a:	60ab      	str	r3, [r5, #8]
    218c:	7013      	strb	r3, [r2, #0]
    218e:	65ab      	str	r3, [r5, #88]	; 0x58
    2190:	7821      	ldrb	r1, [r4, #0]
    2192:	2205      	movs	r2, #5
    2194:	4862      	ldr	r0, [pc, #392]	; (2320 <_vfiprintf_r+0x21c>)
    2196:	f001 f9c3 	bl	3520 <memchr>
    219a:	1c63      	adds	r3, r4, #1
    219c:	469c      	mov	ip, r3
    219e:	2800      	cmp	r0, #0
    21a0:	d135      	bne.n	220e <_vfiprintf_r+0x10a>
    21a2:	6829      	ldr	r1, [r5, #0]
    21a4:	06cb      	lsls	r3, r1, #27
    21a6:	d504      	bpl.n	21b2 <_vfiprintf_r+0xae>
    21a8:	2353      	movs	r3, #83	; 0x53
    21aa:	aa02      	add	r2, sp, #8
    21ac:	3020      	adds	r0, #32
    21ae:	189b      	adds	r3, r3, r2
    21b0:	7018      	strb	r0, [r3, #0]
    21b2:	070b      	lsls	r3, r1, #28
    21b4:	d504      	bpl.n	21c0 <_vfiprintf_r+0xbc>
    21b6:	2353      	movs	r3, #83	; 0x53
    21b8:	202b      	movs	r0, #43	; 0x2b
    21ba:	aa02      	add	r2, sp, #8
    21bc:	189b      	adds	r3, r3, r2
    21be:	7018      	strb	r0, [r3, #0]
    21c0:	7823      	ldrb	r3, [r4, #0]
    21c2:	2b2a      	cmp	r3, #42	; 0x2a
    21c4:	d02c      	beq.n	2220 <_vfiprintf_r+0x11c>
    21c6:	2000      	movs	r0, #0
    21c8:	210a      	movs	r1, #10
    21ca:	9b09      	ldr	r3, [sp, #36]	; 0x24
    21cc:	7822      	ldrb	r2, [r4, #0]
    21ce:	3a30      	subs	r2, #48	; 0x30
    21d0:	2a09      	cmp	r2, #9
    21d2:	d800      	bhi.n	21d6 <_vfiprintf_r+0xd2>
    21d4:	e06b      	b.n	22ae <_vfiprintf_r+0x1aa>
    21d6:	2800      	cmp	r0, #0
    21d8:	d02a      	beq.n	2230 <_vfiprintf_r+0x12c>
    21da:	9309      	str	r3, [sp, #36]	; 0x24
    21dc:	e028      	b.n	2230 <_vfiprintf_r+0x12c>
    21de:	4b51      	ldr	r3, [pc, #324]	; (2324 <_vfiprintf_r+0x220>)
    21e0:	429f      	cmp	r7, r3
    21e2:	d101      	bne.n	21e8 <_vfiprintf_r+0xe4>
    21e4:	68b7      	ldr	r7, [r6, #8]
    21e6:	e79e      	b.n	2126 <_vfiprintf_r+0x22>
    21e8:	4b4f      	ldr	r3, [pc, #316]	; (2328 <_vfiprintf_r+0x224>)
    21ea:	429f      	cmp	r7, r3
    21ec:	d19b      	bne.n	2126 <_vfiprintf_r+0x22>
    21ee:	68f7      	ldr	r7, [r6, #12]
    21f0:	e799      	b.n	2126 <_vfiprintf_r+0x22>
    21f2:	0039      	movs	r1, r7
    21f4:	0030      	movs	r0, r6
    21f6:	f001 f8af 	bl	3358 <__swsetup_r>
    21fa:	2800      	cmp	r0, #0
    21fc:	d099      	beq.n	2132 <_vfiprintf_r+0x2e>
    21fe:	2001      	movs	r0, #1
    2200:	4240      	negs	r0, r0
    2202:	b01f      	add	sp, #124	; 0x7c
    2204:	bdf0      	pop	{r4, r5, r6, r7, pc}
    2206:	2b25      	cmp	r3, #37	; 0x25
    2208:	d09f      	beq.n	214a <_vfiprintf_r+0x46>
    220a:	3401      	adds	r4, #1
    220c:	e79a      	b.n	2144 <_vfiprintf_r+0x40>
    220e:	4b44      	ldr	r3, [pc, #272]	; (2320 <_vfiprintf_r+0x21c>)
    2210:	6829      	ldr	r1, [r5, #0]
    2212:	1ac0      	subs	r0, r0, r3
    2214:	2301      	movs	r3, #1
    2216:	4083      	lsls	r3, r0
    2218:	430b      	orrs	r3, r1
    221a:	602b      	str	r3, [r5, #0]
    221c:	4664      	mov	r4, ip
    221e:	e7b7      	b.n	2190 <_vfiprintf_r+0x8c>
    2220:	9b05      	ldr	r3, [sp, #20]
    2222:	1d18      	adds	r0, r3, #4
    2224:	681b      	ldr	r3, [r3, #0]
    2226:	9005      	str	r0, [sp, #20]
    2228:	2b00      	cmp	r3, #0
    222a:	db3a      	blt.n	22a2 <_vfiprintf_r+0x19e>
    222c:	9309      	str	r3, [sp, #36]	; 0x24
    222e:	4664      	mov	r4, ip
    2230:	7823      	ldrb	r3, [r4, #0]
    2232:	2b2e      	cmp	r3, #46	; 0x2e
    2234:	d10b      	bne.n	224e <_vfiprintf_r+0x14a>
    2236:	7863      	ldrb	r3, [r4, #1]
    2238:	1c62      	adds	r2, r4, #1
    223a:	2b2a      	cmp	r3, #42	; 0x2a
    223c:	d13f      	bne.n	22be <_vfiprintf_r+0x1ba>
    223e:	9b05      	ldr	r3, [sp, #20]
    2240:	3402      	adds	r4, #2
    2242:	1d1a      	adds	r2, r3, #4
    2244:	681b      	ldr	r3, [r3, #0]
    2246:	9205      	str	r2, [sp, #20]
    2248:	2b00      	cmp	r3, #0
    224a:	db35      	blt.n	22b8 <_vfiprintf_r+0x1b4>
    224c:	9307      	str	r3, [sp, #28]
    224e:	7821      	ldrb	r1, [r4, #0]
    2250:	2203      	movs	r2, #3
    2252:	4836      	ldr	r0, [pc, #216]	; (232c <_vfiprintf_r+0x228>)
    2254:	f001 f964 	bl	3520 <memchr>
    2258:	2800      	cmp	r0, #0
    225a:	d007      	beq.n	226c <_vfiprintf_r+0x168>
    225c:	4b33      	ldr	r3, [pc, #204]	; (232c <_vfiprintf_r+0x228>)
    225e:	682a      	ldr	r2, [r5, #0]
    2260:	1ac0      	subs	r0, r0, r3
    2262:	2340      	movs	r3, #64	; 0x40
    2264:	4083      	lsls	r3, r0
    2266:	4313      	orrs	r3, r2
    2268:	602b      	str	r3, [r5, #0]
    226a:	3401      	adds	r4, #1
    226c:	7821      	ldrb	r1, [r4, #0]
    226e:	1c63      	adds	r3, r4, #1
    2270:	2206      	movs	r2, #6
    2272:	482f      	ldr	r0, [pc, #188]	; (2330 <_vfiprintf_r+0x22c>)
    2274:	9302      	str	r3, [sp, #8]
    2276:	7629      	strb	r1, [r5, #24]
    2278:	f001 f952 	bl	3520 <memchr>
    227c:	2800      	cmp	r0, #0
    227e:	d044      	beq.n	230a <_vfiprintf_r+0x206>
    2280:	4b2c      	ldr	r3, [pc, #176]	; (2334 <_vfiprintf_r+0x230>)
    2282:	2b00      	cmp	r3, #0
    2284:	d12f      	bne.n	22e6 <_vfiprintf_r+0x1e2>
    2286:	6829      	ldr	r1, [r5, #0]
    2288:	9b05      	ldr	r3, [sp, #20]
    228a:	2207      	movs	r2, #7
    228c:	05c9      	lsls	r1, r1, #23
    228e:	d528      	bpl.n	22e2 <_vfiprintf_r+0x1de>
    2290:	189b      	adds	r3, r3, r2
    2292:	4393      	bics	r3, r2
    2294:	3308      	adds	r3, #8
    2296:	9305      	str	r3, [sp, #20]
    2298:	696b      	ldr	r3, [r5, #20]
    229a:	9a03      	ldr	r2, [sp, #12]
    229c:	189b      	adds	r3, r3, r2
    229e:	616b      	str	r3, [r5, #20]
    22a0:	e74f      	b.n	2142 <_vfiprintf_r+0x3e>
    22a2:	425b      	negs	r3, r3
    22a4:	60eb      	str	r3, [r5, #12]
    22a6:	2302      	movs	r3, #2
    22a8:	430b      	orrs	r3, r1
    22aa:	602b      	str	r3, [r5, #0]
    22ac:	e7bf      	b.n	222e <_vfiprintf_r+0x12a>
    22ae:	434b      	muls	r3, r1
    22b0:	3401      	adds	r4, #1
    22b2:	189b      	adds	r3, r3, r2
    22b4:	2001      	movs	r0, #1
    22b6:	e789      	b.n	21cc <_vfiprintf_r+0xc8>
    22b8:	2301      	movs	r3, #1
    22ba:	425b      	negs	r3, r3
    22bc:	e7c6      	b.n	224c <_vfiprintf_r+0x148>
    22be:	2300      	movs	r3, #0
    22c0:	0014      	movs	r4, r2
    22c2:	200a      	movs	r0, #10
    22c4:	001a      	movs	r2, r3
    22c6:	606b      	str	r3, [r5, #4]
    22c8:	7821      	ldrb	r1, [r4, #0]
    22ca:	3930      	subs	r1, #48	; 0x30
    22cc:	2909      	cmp	r1, #9
    22ce:	d903      	bls.n	22d8 <_vfiprintf_r+0x1d4>
    22d0:	2b00      	cmp	r3, #0
    22d2:	d0bc      	beq.n	224e <_vfiprintf_r+0x14a>
    22d4:	9207      	str	r2, [sp, #28]
    22d6:	e7ba      	b.n	224e <_vfiprintf_r+0x14a>
    22d8:	4342      	muls	r2, r0
    22da:	3401      	adds	r4, #1
    22dc:	1852      	adds	r2, r2, r1
    22de:	2301      	movs	r3, #1
    22e0:	e7f2      	b.n	22c8 <_vfiprintf_r+0x1c4>
    22e2:	3307      	adds	r3, #7
    22e4:	e7d5      	b.n	2292 <_vfiprintf_r+0x18e>
    22e6:	ab05      	add	r3, sp, #20
    22e8:	9300      	str	r3, [sp, #0]
    22ea:	003a      	movs	r2, r7
    22ec:	4b12      	ldr	r3, [pc, #72]	; (2338 <_vfiprintf_r+0x234>)
    22ee:	0029      	movs	r1, r5
    22f0:	0030      	movs	r0, r6
    22f2:	e000      	b.n	22f6 <_vfiprintf_r+0x1f2>
    22f4:	bf00      	nop
    22f6:	9003      	str	r0, [sp, #12]
    22f8:	9b03      	ldr	r3, [sp, #12]
    22fa:	3301      	adds	r3, #1
    22fc:	d1cc      	bne.n	2298 <_vfiprintf_r+0x194>
    22fe:	89bb      	ldrh	r3, [r7, #12]
    2300:	065b      	lsls	r3, r3, #25
    2302:	d500      	bpl.n	2306 <_vfiprintf_r+0x202>
    2304:	e77b      	b.n	21fe <_vfiprintf_r+0xfa>
    2306:	980b      	ldr	r0, [sp, #44]	; 0x2c
    2308:	e77b      	b.n	2202 <_vfiprintf_r+0xfe>
    230a:	ab05      	add	r3, sp, #20
    230c:	9300      	str	r3, [sp, #0]
    230e:	003a      	movs	r2, r7
    2310:	4b09      	ldr	r3, [pc, #36]	; (2338 <_vfiprintf_r+0x234>)
    2312:	0029      	movs	r1, r5
    2314:	0030      	movs	r0, r6
    2316:	f000 f87f 	bl	2418 <_printf_i>
    231a:	e7ec      	b.n	22f6 <_vfiprintf_r+0x1f2>
    231c:	00003698 	.word	0x00003698
    2320:	000036d8 	.word	0x000036d8
    2324:	000036b8 	.word	0x000036b8
    2328:	00003678 	.word	0x00003678
    232c:	000036de 	.word	0x000036de
    2330:	000036e2 	.word	0x000036e2
    2334:	00000000 	.word	0x00000000
    2338:	000020df 	.word	0x000020df

0000233c <_printf_common>:
    233c:	b5f7      	push	{r0, r1, r2, r4, r5, r6, r7, lr}
    233e:	0015      	movs	r5, r2
    2340:	9301      	str	r3, [sp, #4]
    2342:	688a      	ldr	r2, [r1, #8]
    2344:	690b      	ldr	r3, [r1, #16]
    2346:	9000      	str	r0, [sp, #0]
    2348:	000c      	movs	r4, r1
    234a:	4293      	cmp	r3, r2
    234c:	da00      	bge.n	2350 <_printf_common+0x14>
    234e:	0013      	movs	r3, r2
    2350:	0022      	movs	r2, r4
    2352:	602b      	str	r3, [r5, #0]
    2354:	3243      	adds	r2, #67	; 0x43
    2356:	7812      	ldrb	r2, [r2, #0]
    2358:	2a00      	cmp	r2, #0
    235a:	d001      	beq.n	2360 <_printf_common+0x24>
    235c:	3301      	adds	r3, #1
    235e:	602b      	str	r3, [r5, #0]
    2360:	6823      	ldr	r3, [r4, #0]
    2362:	069b      	lsls	r3, r3, #26
    2364:	d502      	bpl.n	236c <_printf_common+0x30>
    2366:	682b      	ldr	r3, [r5, #0]
    2368:	3302      	adds	r3, #2
    236a:	602b      	str	r3, [r5, #0]
    236c:	2706      	movs	r7, #6
    236e:	6823      	ldr	r3, [r4, #0]
    2370:	401f      	ands	r7, r3
    2372:	d027      	beq.n	23c4 <_printf_common+0x88>
    2374:	0023      	movs	r3, r4
    2376:	3343      	adds	r3, #67	; 0x43
    2378:	781b      	ldrb	r3, [r3, #0]
    237a:	1e5a      	subs	r2, r3, #1
    237c:	4193      	sbcs	r3, r2
    237e:	6822      	ldr	r2, [r4, #0]
    2380:	0692      	lsls	r2, r2, #26
    2382:	d430      	bmi.n	23e6 <_printf_common+0xaa>
    2384:	0022      	movs	r2, r4
    2386:	9901      	ldr	r1, [sp, #4]
    2388:	3243      	adds	r2, #67	; 0x43
    238a:	9800      	ldr	r0, [sp, #0]
    238c:	9e08      	ldr	r6, [sp, #32]
    238e:	47b0      	blx	r6
    2390:	1c43      	adds	r3, r0, #1
    2392:	d025      	beq.n	23e0 <_printf_common+0xa4>
    2394:	2306      	movs	r3, #6
    2396:	6820      	ldr	r0, [r4, #0]
    2398:	682a      	ldr	r2, [r5, #0]
    239a:	68e1      	ldr	r1, [r4, #12]
    239c:	4003      	ands	r3, r0
    239e:	2500      	movs	r5, #0
    23a0:	2b04      	cmp	r3, #4
    23a2:	d103      	bne.n	23ac <_printf_common+0x70>
    23a4:	1a8d      	subs	r5, r1, r2
    23a6:	43eb      	mvns	r3, r5
    23a8:	17db      	asrs	r3, r3, #31
    23aa:	401d      	ands	r5, r3
    23ac:	68a3      	ldr	r3, [r4, #8]
    23ae:	6922      	ldr	r2, [r4, #16]
    23b0:	4293      	cmp	r3, r2
    23b2:	dd01      	ble.n	23b8 <_printf_common+0x7c>
    23b4:	1a9b      	subs	r3, r3, r2
    23b6:	18ed      	adds	r5, r5, r3
    23b8:	2700      	movs	r7, #0
    23ba:	42bd      	cmp	r5, r7
    23bc:	d120      	bne.n	2400 <_printf_common+0xc4>
    23be:	2000      	movs	r0, #0
    23c0:	e010      	b.n	23e4 <_printf_common+0xa8>
    23c2:	3701      	adds	r7, #1
    23c4:	68e3      	ldr	r3, [r4, #12]
    23c6:	682a      	ldr	r2, [r5, #0]
    23c8:	1a9b      	subs	r3, r3, r2
    23ca:	429f      	cmp	r7, r3
    23cc:	dad2      	bge.n	2374 <_printf_common+0x38>
    23ce:	0022      	movs	r2, r4
    23d0:	2301      	movs	r3, #1
    23d2:	3219      	adds	r2, #25
    23d4:	9901      	ldr	r1, [sp, #4]
    23d6:	9800      	ldr	r0, [sp, #0]
    23d8:	9e08      	ldr	r6, [sp, #32]
    23da:	47b0      	blx	r6
    23dc:	1c43      	adds	r3, r0, #1
    23de:	d1f0      	bne.n	23c2 <_printf_common+0x86>
    23e0:	2001      	movs	r0, #1
    23e2:	4240      	negs	r0, r0
    23e4:	bdfe      	pop	{r1, r2, r3, r4, r5, r6, r7, pc}
    23e6:	2030      	movs	r0, #48	; 0x30
    23e8:	18e1      	adds	r1, r4, r3
    23ea:	3143      	adds	r1, #67	; 0x43
    23ec:	7008      	strb	r0, [r1, #0]
    23ee:	0021      	movs	r1, r4
    23f0:	1c5a      	adds	r2, r3, #1
    23f2:	3145      	adds	r1, #69	; 0x45
    23f4:	7809      	ldrb	r1, [r1, #0]
    23f6:	18a2      	adds	r2, r4, r2
    23f8:	3243      	adds	r2, #67	; 0x43
    23fa:	3302      	adds	r3, #2
    23fc:	7011      	strb	r1, [r2, #0]
    23fe:	e7c1      	b.n	2384 <_printf_common+0x48>
    2400:	0022      	movs	r2, r4
    2402:	2301      	movs	r3, #1
    2404:	321a      	adds	r2, #26
    2406:	9901      	ldr	r1, [sp, #4]
    2408:	9800      	ldr	r0, [sp, #0]
    240a:	9e08      	ldr	r6, [sp, #32]
    240c:	47b0      	blx	r6
    240e:	1c43      	adds	r3, r0, #1
    2410:	d0e6      	beq.n	23e0 <_printf_common+0xa4>
    2412:	3701      	adds	r7, #1
    2414:	e7d1      	b.n	23ba <_printf_common+0x7e>
	...

00002418 <_printf_i>:
    2418:	b5f0      	push	{r4, r5, r6, r7, lr}
    241a:	b08b      	sub	sp, #44	; 0x2c
    241c:	9206      	str	r2, [sp, #24]
    241e:	000a      	movs	r2, r1
    2420:	3243      	adds	r2, #67	; 0x43
    2422:	9307      	str	r3, [sp, #28]
    2424:	9005      	str	r0, [sp, #20]
    2426:	9204      	str	r2, [sp, #16]
    2428:	7e0a      	ldrb	r2, [r1, #24]
    242a:	000c      	movs	r4, r1
    242c:	9b10      	ldr	r3, [sp, #64]	; 0x40
    242e:	2a6e      	cmp	r2, #110	; 0x6e
    2430:	d100      	bne.n	2434 <_printf_i+0x1c>
    2432:	e08f      	b.n	2554 <_printf_i+0x13c>
    2434:	d817      	bhi.n	2466 <_printf_i+0x4e>
    2436:	2a63      	cmp	r2, #99	; 0x63
    2438:	d02c      	beq.n	2494 <_printf_i+0x7c>
    243a:	d808      	bhi.n	244e <_printf_i+0x36>
    243c:	2a00      	cmp	r2, #0
    243e:	d100      	bne.n	2442 <_printf_i+0x2a>
    2440:	e099      	b.n	2576 <_printf_i+0x15e>
    2442:	2a58      	cmp	r2, #88	; 0x58
    2444:	d054      	beq.n	24f0 <_printf_i+0xd8>
    2446:	0026      	movs	r6, r4
    2448:	3642      	adds	r6, #66	; 0x42
    244a:	7032      	strb	r2, [r6, #0]
    244c:	e029      	b.n	24a2 <_printf_i+0x8a>
    244e:	2a64      	cmp	r2, #100	; 0x64
    2450:	d001      	beq.n	2456 <_printf_i+0x3e>
    2452:	2a69      	cmp	r2, #105	; 0x69
    2454:	d1f7      	bne.n	2446 <_printf_i+0x2e>
    2456:	6821      	ldr	r1, [r4, #0]
    2458:	681a      	ldr	r2, [r3, #0]
    245a:	0608      	lsls	r0, r1, #24
    245c:	d523      	bpl.n	24a6 <_printf_i+0x8e>
    245e:	1d11      	adds	r1, r2, #4
    2460:	6019      	str	r1, [r3, #0]
    2462:	6815      	ldr	r5, [r2, #0]
    2464:	e025      	b.n	24b2 <_printf_i+0x9a>
    2466:	2a73      	cmp	r2, #115	; 0x73
    2468:	d100      	bne.n	246c <_printf_i+0x54>
    246a:	e088      	b.n	257e <_printf_i+0x166>
    246c:	d808      	bhi.n	2480 <_printf_i+0x68>
    246e:	2a6f      	cmp	r2, #111	; 0x6f
    2470:	d029      	beq.n	24c6 <_printf_i+0xae>
    2472:	2a70      	cmp	r2, #112	; 0x70
    2474:	d1e7      	bne.n	2446 <_printf_i+0x2e>
    2476:	2220      	movs	r2, #32
    2478:	6809      	ldr	r1, [r1, #0]
    247a:	430a      	orrs	r2, r1
    247c:	6022      	str	r2, [r4, #0]
    247e:	e003      	b.n	2488 <_printf_i+0x70>
    2480:	2a75      	cmp	r2, #117	; 0x75
    2482:	d020      	beq.n	24c6 <_printf_i+0xae>
    2484:	2a78      	cmp	r2, #120	; 0x78
    2486:	d1de      	bne.n	2446 <_printf_i+0x2e>
    2488:	0022      	movs	r2, r4
    248a:	2178      	movs	r1, #120	; 0x78
    248c:	3245      	adds	r2, #69	; 0x45
    248e:	7011      	strb	r1, [r2, #0]
    2490:	4a6c      	ldr	r2, [pc, #432]	; (2644 <_printf_i+0x22c>)
    2492:	e030      	b.n	24f6 <_printf_i+0xde>
    2494:	000e      	movs	r6, r1
    2496:	681a      	ldr	r2, [r3, #0]
    2498:	3642      	adds	r6, #66	; 0x42
    249a:	1d11      	adds	r1, r2, #4
    249c:	6019      	str	r1, [r3, #0]
    249e:	6813      	ldr	r3, [r2, #0]
    24a0:	7033      	strb	r3, [r6, #0]
    24a2:	2301      	movs	r3, #1
    24a4:	e079      	b.n	259a <_printf_i+0x182>
    24a6:	0649      	lsls	r1, r1, #25
    24a8:	d5d9      	bpl.n	245e <_printf_i+0x46>
    24aa:	1d11      	adds	r1, r2, #4
    24ac:	6019      	str	r1, [r3, #0]
    24ae:	2300      	movs	r3, #0
    24b0:	5ed5      	ldrsh	r5, [r2, r3]
    24b2:	2d00      	cmp	r5, #0
    24b4:	da03      	bge.n	24be <_printf_i+0xa6>
    24b6:	232d      	movs	r3, #45	; 0x2d
    24b8:	9a04      	ldr	r2, [sp, #16]
    24ba:	426d      	negs	r5, r5
    24bc:	7013      	strb	r3, [r2, #0]
    24be:	4b62      	ldr	r3, [pc, #392]	; (2648 <_printf_i+0x230>)
    24c0:	270a      	movs	r7, #10
    24c2:	9303      	str	r3, [sp, #12]
    24c4:	e02f      	b.n	2526 <_printf_i+0x10e>
    24c6:	6820      	ldr	r0, [r4, #0]
    24c8:	6819      	ldr	r1, [r3, #0]
    24ca:	0605      	lsls	r5, r0, #24
    24cc:	d503      	bpl.n	24d6 <_printf_i+0xbe>
    24ce:	1d08      	adds	r0, r1, #4
    24d0:	6018      	str	r0, [r3, #0]
    24d2:	680d      	ldr	r5, [r1, #0]
    24d4:	e005      	b.n	24e2 <_printf_i+0xca>
    24d6:	0640      	lsls	r0, r0, #25
    24d8:	d5f9      	bpl.n	24ce <_printf_i+0xb6>
    24da:	680d      	ldr	r5, [r1, #0]
    24dc:	1d08      	adds	r0, r1, #4
    24de:	6018      	str	r0, [r3, #0]
    24e0:	b2ad      	uxth	r5, r5
    24e2:	4b59      	ldr	r3, [pc, #356]	; (2648 <_printf_i+0x230>)
    24e4:	2708      	movs	r7, #8
    24e6:	9303      	str	r3, [sp, #12]
    24e8:	2a6f      	cmp	r2, #111	; 0x6f
    24ea:	d018      	beq.n	251e <_printf_i+0x106>
    24ec:	270a      	movs	r7, #10
    24ee:	e016      	b.n	251e <_printf_i+0x106>
    24f0:	3145      	adds	r1, #69	; 0x45
    24f2:	700a      	strb	r2, [r1, #0]
    24f4:	4a54      	ldr	r2, [pc, #336]	; (2648 <_printf_i+0x230>)
    24f6:	9203      	str	r2, [sp, #12]
    24f8:	681a      	ldr	r2, [r3, #0]
    24fa:	6821      	ldr	r1, [r4, #0]
    24fc:	1d10      	adds	r0, r2, #4
    24fe:	6018      	str	r0, [r3, #0]
    2500:	6815      	ldr	r5, [r2, #0]
    2502:	0608      	lsls	r0, r1, #24
    2504:	d522      	bpl.n	254c <_printf_i+0x134>
    2506:	07cb      	lsls	r3, r1, #31
    2508:	d502      	bpl.n	2510 <_printf_i+0xf8>
    250a:	2320      	movs	r3, #32
    250c:	4319      	orrs	r1, r3
    250e:	6021      	str	r1, [r4, #0]
    2510:	2710      	movs	r7, #16
    2512:	2d00      	cmp	r5, #0
    2514:	d103      	bne.n	251e <_printf_i+0x106>
    2516:	2320      	movs	r3, #32
    2518:	6822      	ldr	r2, [r4, #0]
    251a:	439a      	bics	r2, r3
    251c:	6022      	str	r2, [r4, #0]
    251e:	0023      	movs	r3, r4
    2520:	2200      	movs	r2, #0
    2522:	3343      	adds	r3, #67	; 0x43
    2524:	701a      	strb	r2, [r3, #0]
    2526:	6863      	ldr	r3, [r4, #4]
    2528:	60a3      	str	r3, [r4, #8]
    252a:	2b00      	cmp	r3, #0
    252c:	db5c      	blt.n	25e8 <_printf_i+0x1d0>
    252e:	2204      	movs	r2, #4
    2530:	6821      	ldr	r1, [r4, #0]
    2532:	4391      	bics	r1, r2
    2534:	6021      	str	r1, [r4, #0]
    2536:	2d00      	cmp	r5, #0
    2538:	d158      	bne.n	25ec <_printf_i+0x1d4>
    253a:	9e04      	ldr	r6, [sp, #16]
    253c:	2b00      	cmp	r3, #0
    253e:	d064      	beq.n	260a <_printf_i+0x1f2>
    2540:	0026      	movs	r6, r4
    2542:	9b03      	ldr	r3, [sp, #12]
    2544:	3642      	adds	r6, #66	; 0x42
    2546:	781b      	ldrb	r3, [r3, #0]
    2548:	7033      	strb	r3, [r6, #0]
    254a:	e05e      	b.n	260a <_printf_i+0x1f2>
    254c:	0648      	lsls	r0, r1, #25
    254e:	d5da      	bpl.n	2506 <_printf_i+0xee>
    2550:	b2ad      	uxth	r5, r5
    2552:	e7d8      	b.n	2506 <_printf_i+0xee>
    2554:	6809      	ldr	r1, [r1, #0]
    2556:	681a      	ldr	r2, [r3, #0]
    2558:	0608      	lsls	r0, r1, #24
    255a:	d505      	bpl.n	2568 <_printf_i+0x150>
    255c:	1d11      	adds	r1, r2, #4
    255e:	6019      	str	r1, [r3, #0]
    2560:	6813      	ldr	r3, [r2, #0]
    2562:	6962      	ldr	r2, [r4, #20]
    2564:	601a      	str	r2, [r3, #0]
    2566:	e006      	b.n	2576 <_printf_i+0x15e>
    2568:	0649      	lsls	r1, r1, #25
    256a:	d5f7      	bpl.n	255c <_printf_i+0x144>
    256c:	1d11      	adds	r1, r2, #4
    256e:	6019      	str	r1, [r3, #0]
    2570:	6813      	ldr	r3, [r2, #0]
    2572:	8aa2      	ldrh	r2, [r4, #20]
    2574:	801a      	strh	r2, [r3, #0]
    2576:	2300      	movs	r3, #0
    2578:	9e04      	ldr	r6, [sp, #16]
    257a:	6123      	str	r3, [r4, #16]
    257c:	e054      	b.n	2628 <_printf_i+0x210>
    257e:	681a      	ldr	r2, [r3, #0]
    2580:	1d11      	adds	r1, r2, #4
    2582:	6019      	str	r1, [r3, #0]
    2584:	6816      	ldr	r6, [r2, #0]
    2586:	2100      	movs	r1, #0
    2588:	6862      	ldr	r2, [r4, #4]
    258a:	0030      	movs	r0, r6
    258c:	f000 ffc8 	bl	3520 <memchr>
    2590:	2800      	cmp	r0, #0
    2592:	d001      	beq.n	2598 <_printf_i+0x180>
    2594:	1b80      	subs	r0, r0, r6
    2596:	6060      	str	r0, [r4, #4]
    2598:	6863      	ldr	r3, [r4, #4]
    259a:	6123      	str	r3, [r4, #16]
    259c:	2300      	movs	r3, #0
    259e:	9a04      	ldr	r2, [sp, #16]
    25a0:	7013      	strb	r3, [r2, #0]
    25a2:	e041      	b.n	2628 <_printf_i+0x210>
    25a4:	6923      	ldr	r3, [r4, #16]
    25a6:	0032      	movs	r2, r6
    25a8:	9906      	ldr	r1, [sp, #24]
    25aa:	9805      	ldr	r0, [sp, #20]
    25ac:	9d07      	ldr	r5, [sp, #28]
    25ae:	47a8      	blx	r5
    25b0:	1c43      	adds	r3, r0, #1
    25b2:	d043      	beq.n	263c <_printf_i+0x224>
    25b4:	6823      	ldr	r3, [r4, #0]
    25b6:	2500      	movs	r5, #0
    25b8:	079b      	lsls	r3, r3, #30
    25ba:	d40f      	bmi.n	25dc <_printf_i+0x1c4>
    25bc:	9b09      	ldr	r3, [sp, #36]	; 0x24
    25be:	68e0      	ldr	r0, [r4, #12]
    25c0:	4298      	cmp	r0, r3
    25c2:	da3d      	bge.n	2640 <_printf_i+0x228>
    25c4:	0018      	movs	r0, r3
    25c6:	e03b      	b.n	2640 <_printf_i+0x228>
    25c8:	0022      	movs	r2, r4
    25ca:	2301      	movs	r3, #1
    25cc:	3219      	adds	r2, #25
    25ce:	9906      	ldr	r1, [sp, #24]
    25d0:	9805      	ldr	r0, [sp, #20]
    25d2:	9e07      	ldr	r6, [sp, #28]
    25d4:	47b0      	blx	r6
    25d6:	1c43      	adds	r3, r0, #1
    25d8:	d030      	beq.n	263c <_printf_i+0x224>
    25da:	3501      	adds	r5, #1
    25dc:	68e3      	ldr	r3, [r4, #12]
    25de:	9a09      	ldr	r2, [sp, #36]	; 0x24
    25e0:	1a9b      	subs	r3, r3, r2
    25e2:	429d      	cmp	r5, r3
    25e4:	dbf0      	blt.n	25c8 <_printf_i+0x1b0>
    25e6:	e7e9      	b.n	25bc <_printf_i+0x1a4>
    25e8:	2d00      	cmp	r5, #0
    25ea:	d0a9      	beq.n	2540 <_printf_i+0x128>
    25ec:	9e04      	ldr	r6, [sp, #16]
    25ee:	0028      	movs	r0, r5
    25f0:	0039      	movs	r1, r7
    25f2:	f7ff f93d 	bl	1870 <__aeabi_uidivmod>
    25f6:	9b03      	ldr	r3, [sp, #12]
    25f8:	3e01      	subs	r6, #1
    25fa:	5c5b      	ldrb	r3, [r3, r1]
    25fc:	0028      	movs	r0, r5
    25fe:	7033      	strb	r3, [r6, #0]
    2600:	0039      	movs	r1, r7
    2602:	f7ff f8af 	bl	1764 <__udivsi3>
    2606:	1e05      	subs	r5, r0, #0
    2608:	d1f1      	bne.n	25ee <_printf_i+0x1d6>
    260a:	2f08      	cmp	r7, #8
    260c:	d109      	bne.n	2622 <_printf_i+0x20a>
    260e:	6823      	ldr	r3, [r4, #0]
    2610:	07db      	lsls	r3, r3, #31
    2612:	d506      	bpl.n	2622 <_printf_i+0x20a>
    2614:	6863      	ldr	r3, [r4, #4]
    2616:	6922      	ldr	r2, [r4, #16]
    2618:	4293      	cmp	r3, r2
    261a:	dc02      	bgt.n	2622 <_printf_i+0x20a>
    261c:	2330      	movs	r3, #48	; 0x30
    261e:	3e01      	subs	r6, #1
    2620:	7033      	strb	r3, [r6, #0]
    2622:	9b04      	ldr	r3, [sp, #16]
    2624:	1b9b      	subs	r3, r3, r6
    2626:	6123      	str	r3, [r4, #16]
    2628:	9b07      	ldr	r3, [sp, #28]
    262a:	aa09      	add	r2, sp, #36	; 0x24
    262c:	9300      	str	r3, [sp, #0]
    262e:	0021      	movs	r1, r4
    2630:	9b06      	ldr	r3, [sp, #24]
    2632:	9805      	ldr	r0, [sp, #20]
    2634:	f7ff fe82 	bl	233c <_printf_common>
    2638:	1c43      	adds	r3, r0, #1
    263a:	d1b3      	bne.n	25a4 <_printf_i+0x18c>
    263c:	2001      	movs	r0, #1
    263e:	4240      	negs	r0, r0
    2640:	b00b      	add	sp, #44	; 0x2c
    2642:	bdf0      	pop	{r4, r5, r6, r7, pc}
    2644:	000036fa 	.word	0x000036fa
    2648:	000036e9 	.word	0x000036e9

0000264c <__svfiscanf_r>:
    264c:	b5f0      	push	{r4, r5, r6, r7, lr}
    264e:	4cbd      	ldr	r4, [pc, #756]	; (2944 <__svfiscanf_r+0x2f8>)
    2650:	2586      	movs	r5, #134	; 0x86
    2652:	44a5      	add	sp, r4
    2654:	9303      	str	r3, [sp, #12]
    2656:	2300      	movs	r3, #0
    2658:	9348      	str	r3, [sp, #288]	; 0x120
    265a:	9349      	str	r3, [sp, #292]	; 0x124
    265c:	ab05      	add	r3, sp, #20
    265e:	934a      	str	r3, [sp, #296]	; 0x128
    2660:	23be      	movs	r3, #190	; 0xbe
    2662:	006d      	lsls	r5, r5, #1
    2664:	9000      	str	r0, [sp, #0]
    2666:	000c      	movs	r4, r1
    2668:	a802      	add	r0, sp, #8
    266a:	49b7      	ldr	r1, [pc, #732]	; (2948 <__svfiscanf_r+0x2fc>)
    266c:	005b      	lsls	r3, r3, #1
    266e:	1940      	adds	r0, r0, r5
    2670:	27c0      	movs	r7, #192	; 0xc0
    2672:	50c1      	str	r1, [r0, r3]
    2674:	ab02      	add	r3, sp, #8
    2676:	195b      	adds	r3, r3, r5
    2678:	0015      	movs	r5, r2
    267a:	49b4      	ldr	r1, [pc, #720]	; (294c <__svfiscanf_r+0x300>)
    267c:	007f      	lsls	r7, r7, #1
    267e:	51d9      	str	r1, [r3, r7]
    2680:	782b      	ldrb	r3, [r5, #0]
    2682:	2b00      	cmp	r3, #0
    2684:	d100      	bne.n	2688 <__svfiscanf_r+0x3c>
    2686:	e15b      	b.n	2940 <__svfiscanf_r+0x2f4>
    2688:	f000 ff16 	bl	34b8 <__locale_ctype_ptr>
    268c:	2208      	movs	r2, #8
    268e:	782b      	ldrb	r3, [r5, #0]
    2690:	18c0      	adds	r0, r0, r3
    2692:	9301      	str	r3, [sp, #4]
    2694:	7843      	ldrb	r3, [r0, #1]
    2696:	4013      	ands	r3, r2
    2698:	d141      	bne.n	271e <__svfiscanf_r+0xd2>
    269a:	9a01      	ldr	r2, [sp, #4]
    269c:	1c6e      	adds	r6, r5, #1
    269e:	2a25      	cmp	r2, #37	; 0x25
    26a0:	d000      	beq.n	26a4 <__svfiscanf_r+0x58>
    26a2:	e0a8      	b.n	27f6 <__svfiscanf_r+0x1aa>
    26a4:	9347      	str	r3, [sp, #284]	; 0x11c
    26a6:	9345      	str	r3, [sp, #276]	; 0x114
    26a8:	786b      	ldrb	r3, [r5, #1]
    26aa:	2b2a      	cmp	r3, #42	; 0x2a
    26ac:	d102      	bne.n	26b4 <__svfiscanf_r+0x68>
    26ae:	3b1a      	subs	r3, #26
    26b0:	9345      	str	r3, [sp, #276]	; 0x114
    26b2:	1cae      	adds	r6, r5, #2
    26b4:	0035      	movs	r5, r6
    26b6:	220a      	movs	r2, #10
    26b8:	7829      	ldrb	r1, [r5, #0]
    26ba:	000b      	movs	r3, r1
    26bc:	3b30      	subs	r3, #48	; 0x30
    26be:	2b09      	cmp	r3, #9
    26c0:	d948      	bls.n	2754 <__svfiscanf_r+0x108>
    26c2:	4ea3      	ldr	r6, [pc, #652]	; (2950 <__svfiscanf_r+0x304>)
    26c4:	2203      	movs	r2, #3
    26c6:	0030      	movs	r0, r6
    26c8:	f000 ff2a 	bl	3520 <memchr>
    26cc:	2800      	cmp	r0, #0
    26ce:	d007      	beq.n	26e0 <__svfiscanf_r+0x94>
    26d0:	2301      	movs	r3, #1
    26d2:	1b80      	subs	r0, r0, r6
    26d4:	4083      	lsls	r3, r0
    26d6:	9a45      	ldr	r2, [sp, #276]	; 0x114
    26d8:	3501      	adds	r5, #1
    26da:	4313      	orrs	r3, r2
    26dc:	9202      	str	r2, [sp, #8]
    26de:	9345      	str	r3, [sp, #276]	; 0x114
    26e0:	782b      	ldrb	r3, [r5, #0]
    26e2:	1c6e      	adds	r6, r5, #1
    26e4:	2b67      	cmp	r3, #103	; 0x67
    26e6:	d858      	bhi.n	279a <__svfiscanf_r+0x14e>
    26e8:	2b65      	cmp	r3, #101	; 0x65
    26ea:	d300      	bcc.n	26ee <__svfiscanf_r+0xa2>
    26ec:	e0dd      	b.n	28aa <__svfiscanf_r+0x25e>
    26ee:	2b47      	cmp	r3, #71	; 0x47
    26f0:	d838      	bhi.n	2764 <__svfiscanf_r+0x118>
    26f2:	2b45      	cmp	r3, #69	; 0x45
    26f4:	d300      	bcc.n	26f8 <__svfiscanf_r+0xac>
    26f6:	e0d8      	b.n	28aa <__svfiscanf_r+0x25e>
    26f8:	2b00      	cmp	r3, #0
    26fa:	d100      	bne.n	26fe <__svfiscanf_r+0xb2>
    26fc:	e11d      	b.n	293a <__svfiscanf_r+0x2ee>
    26fe:	2b25      	cmp	r3, #37	; 0x25
    2700:	d079      	beq.n	27f6 <__svfiscanf_r+0x1aa>
    2702:	2303      	movs	r3, #3
    2704:	934b      	str	r3, [sp, #300]	; 0x12c
    2706:	3307      	adds	r3, #7
    2708:	9346      	str	r3, [sp, #280]	; 0x118
    270a:	e053      	b.n	27b4 <__svfiscanf_r+0x168>
    270c:	9a49      	ldr	r2, [sp, #292]	; 0x124
    270e:	3301      	adds	r3, #1
    2710:	9201      	str	r2, [sp, #4]
    2712:	3201      	adds	r2, #1
    2714:	9249      	str	r2, [sp, #292]	; 0x124
    2716:	6862      	ldr	r2, [r4, #4]
    2718:	6023      	str	r3, [r4, #0]
    271a:	3a01      	subs	r2, #1
    271c:	6062      	str	r2, [r4, #4]
    271e:	6863      	ldr	r3, [r4, #4]
    2720:	2b00      	cmp	r3, #0
    2722:	dd0b      	ble.n	273c <__svfiscanf_r+0xf0>
    2724:	f000 fec8 	bl	34b8 <__locale_ctype_ptr>
    2728:	2108      	movs	r1, #8
    272a:	6823      	ldr	r3, [r4, #0]
    272c:	781a      	ldrb	r2, [r3, #0]
    272e:	1880      	adds	r0, r0, r2
    2730:	7842      	ldrb	r2, [r0, #1]
    2732:	420a      	tst	r2, r1
    2734:	d1ea      	bne.n	270c <__svfiscanf_r+0xc0>
    2736:	1c6e      	adds	r6, r5, #1
    2738:	0035      	movs	r5, r6
    273a:	e7a1      	b.n	2680 <__svfiscanf_r+0x34>
    273c:	2286      	movs	r2, #134	; 0x86
    273e:	ab02      	add	r3, sp, #8
    2740:	0052      	lsls	r2, r2, #1
    2742:	189b      	adds	r3, r3, r2
    2744:	59db      	ldr	r3, [r3, r7]
    2746:	0021      	movs	r1, r4
    2748:	9800      	ldr	r0, [sp, #0]
    274a:	9301      	str	r3, [sp, #4]
    274c:	4798      	blx	r3
    274e:	2800      	cmp	r0, #0
    2750:	d0e8      	beq.n	2724 <__svfiscanf_r+0xd8>
    2752:	e7f0      	b.n	2736 <__svfiscanf_r+0xea>
    2754:	9b47      	ldr	r3, [sp, #284]	; 0x11c
    2756:	3501      	adds	r5, #1
    2758:	9302      	str	r3, [sp, #8]
    275a:	4353      	muls	r3, r2
    275c:	3b30      	subs	r3, #48	; 0x30
    275e:	1859      	adds	r1, r3, r1
    2760:	9147      	str	r1, [sp, #284]	; 0x11c
    2762:	e7a9      	b.n	26b8 <__svfiscanf_r+0x6c>
    2764:	2b5b      	cmp	r3, #91	; 0x5b
    2766:	d100      	bne.n	276a <__svfiscanf_r+0x11e>
    2768:	e077      	b.n	285a <__svfiscanf_r+0x20e>
    276a:	d80f      	bhi.n	278c <__svfiscanf_r+0x140>
    276c:	2b58      	cmp	r3, #88	; 0x58
    276e:	d1c8      	bne.n	2702 <__svfiscanf_r+0xb6>
    2770:	9a45      	ldr	r2, [sp, #276]	; 0x114
    2772:	9201      	str	r2, [sp, #4]
    2774:	2280      	movs	r2, #128	; 0x80
    2776:	9901      	ldr	r1, [sp, #4]
    2778:	0092      	lsls	r2, r2, #2
    277a:	430a      	orrs	r2, r1
    277c:	9245      	str	r2, [sp, #276]	; 0x114
    277e:	2210      	movs	r2, #16
    2780:	9246      	str	r2, [sp, #280]	; 0x118
    2782:	2203      	movs	r2, #3
    2784:	2b6e      	cmp	r3, #110	; 0x6e
    2786:	dd14      	ble.n	27b2 <__svfiscanf_r+0x166>
    2788:	3201      	adds	r2, #1
    278a:	e012      	b.n	27b2 <__svfiscanf_r+0x166>
    278c:	2b63      	cmp	r3, #99	; 0x63
    278e:	d100      	bne.n	2792 <__svfiscanf_r+0x146>
    2790:	e071      	b.n	2876 <__svfiscanf_r+0x22a>
    2792:	2b64      	cmp	r3, #100	; 0x64
    2794:	d1b5      	bne.n	2702 <__svfiscanf_r+0xb6>
    2796:	220a      	movs	r2, #10
    2798:	e7f2      	b.n	2780 <__svfiscanf_r+0x134>
    279a:	2b70      	cmp	r3, #112	; 0x70
    279c:	d052      	beq.n	2844 <__svfiscanf_r+0x1f8>
    279e:	d822      	bhi.n	27e6 <__svfiscanf_r+0x19a>
    27a0:	2b6e      	cmp	r3, #110	; 0x6e
    27a2:	d100      	bne.n	27a6 <__svfiscanf_r+0x15a>
    27a4:	e06f      	b.n	2886 <__svfiscanf_r+0x23a>
    27a6:	d854      	bhi.n	2852 <__svfiscanf_r+0x206>
    27a8:	2b69      	cmp	r3, #105	; 0x69
    27aa:	d1aa      	bne.n	2702 <__svfiscanf_r+0xb6>
    27ac:	2300      	movs	r3, #0
    27ae:	2203      	movs	r2, #3
    27b0:	9346      	str	r3, [sp, #280]	; 0x118
    27b2:	924b      	str	r2, [sp, #300]	; 0x12c
    27b4:	6863      	ldr	r3, [r4, #4]
    27b6:	2b00      	cmp	r3, #0
    27b8:	dc00      	bgt.n	27bc <__svfiscanf_r+0x170>
    27ba:	e078      	b.n	28ae <__svfiscanf_r+0x262>
    27bc:	9b45      	ldr	r3, [sp, #276]	; 0x114
    27be:	9301      	str	r3, [sp, #4]
    27c0:	065b      	lsls	r3, r3, #25
    27c2:	d400      	bmi.n	27c6 <__svfiscanf_r+0x17a>
    27c4:	e08b      	b.n	28de <__svfiscanf_r+0x292>
    27c6:	9b4b      	ldr	r3, [sp, #300]	; 0x12c
    27c8:	2b02      	cmp	r3, #2
    27ca:	dd00      	ble.n	27ce <__svfiscanf_r+0x182>
    27cc:	e09d      	b.n	290a <__svfiscanf_r+0x2be>
    27ce:	ab03      	add	r3, sp, #12
    27d0:	0022      	movs	r2, r4
    27d2:	a945      	add	r1, sp, #276	; 0x114
    27d4:	9800      	ldr	r0, [sp, #0]
    27d6:	f000 f8e7 	bl	29a8 <_scanf_chars>
    27da:	2801      	cmp	r0, #1
    27dc:	d100      	bne.n	27e0 <__svfiscanf_r+0x194>
    27de:	e0af      	b.n	2940 <__svfiscanf_r+0x2f4>
    27e0:	2802      	cmp	r0, #2
    27e2:	d1a9      	bne.n	2738 <__svfiscanf_r+0xec>
    27e4:	e025      	b.n	2832 <__svfiscanf_r+0x1e6>
    27e6:	2b75      	cmp	r3, #117	; 0x75
    27e8:	d0d5      	beq.n	2796 <__svfiscanf_r+0x14a>
    27ea:	2b78      	cmp	r3, #120	; 0x78
    27ec:	d0c0      	beq.n	2770 <__svfiscanf_r+0x124>
    27ee:	2b73      	cmp	r3, #115	; 0x73
    27f0:	d187      	bne.n	2702 <__svfiscanf_r+0xb6>
    27f2:	2302      	movs	r3, #2
    27f4:	e03d      	b.n	2872 <__svfiscanf_r+0x226>
    27f6:	6863      	ldr	r3, [r4, #4]
    27f8:	2b00      	cmp	r3, #0
    27fa:	dd0f      	ble.n	281c <__svfiscanf_r+0x1d0>
    27fc:	6823      	ldr	r3, [r4, #0]
    27fe:	9901      	ldr	r1, [sp, #4]
    2800:	781a      	ldrb	r2, [r3, #0]
    2802:	4291      	cmp	r1, r2
    2804:	d000      	beq.n	2808 <__svfiscanf_r+0x1bc>
    2806:	e09b      	b.n	2940 <__svfiscanf_r+0x2f4>
    2808:	3301      	adds	r3, #1
    280a:	6862      	ldr	r2, [r4, #4]
    280c:	6023      	str	r3, [r4, #0]
    280e:	9b49      	ldr	r3, [sp, #292]	; 0x124
    2810:	3a01      	subs	r2, #1
    2812:	9301      	str	r3, [sp, #4]
    2814:	3301      	adds	r3, #1
    2816:	6062      	str	r2, [r4, #4]
    2818:	9349      	str	r3, [sp, #292]	; 0x124
    281a:	e78d      	b.n	2738 <__svfiscanf_r+0xec>
    281c:	2286      	movs	r2, #134	; 0x86
    281e:	ab02      	add	r3, sp, #8
    2820:	0052      	lsls	r2, r2, #1
    2822:	189b      	adds	r3, r3, r2
    2824:	59db      	ldr	r3, [r3, r7]
    2826:	0021      	movs	r1, r4
    2828:	9800      	ldr	r0, [sp, #0]
    282a:	9302      	str	r3, [sp, #8]
    282c:	4798      	blx	r3
    282e:	2800      	cmp	r0, #0
    2830:	d0e4      	beq.n	27fc <__svfiscanf_r+0x1b0>
    2832:	9848      	ldr	r0, [sp, #288]	; 0x120
    2834:	2800      	cmp	r0, #0
    2836:	d000      	beq.n	283a <__svfiscanf_r+0x1ee>
    2838:	e07b      	b.n	2932 <__svfiscanf_r+0x2e6>
    283a:	3801      	subs	r0, #1
    283c:	23a7      	movs	r3, #167	; 0xa7
    283e:	009b      	lsls	r3, r3, #2
    2840:	449d      	add	sp, r3
    2842:	bdf0      	pop	{r4, r5, r6, r7, pc}
    2844:	9a45      	ldr	r2, [sp, #276]	; 0x114
    2846:	9201      	str	r2, [sp, #4]
    2848:	2220      	movs	r2, #32
    284a:	9901      	ldr	r1, [sp, #4]
    284c:	430a      	orrs	r2, r1
    284e:	9245      	str	r2, [sp, #276]	; 0x114
    2850:	e78e      	b.n	2770 <__svfiscanf_r+0x124>
    2852:	2308      	movs	r3, #8
    2854:	2204      	movs	r2, #4
    2856:	9346      	str	r3, [sp, #280]	; 0x118
    2858:	e7ab      	b.n	27b2 <__svfiscanf_r+0x166>
    285a:	0031      	movs	r1, r6
    285c:	a805      	add	r0, sp, #20
    285e:	f000 fab5 	bl	2dcc <__sccl>
    2862:	9b45      	ldr	r3, [sp, #276]	; 0x114
    2864:	0006      	movs	r6, r0
    2866:	9301      	str	r3, [sp, #4]
    2868:	2340      	movs	r3, #64	; 0x40
    286a:	9a01      	ldr	r2, [sp, #4]
    286c:	4313      	orrs	r3, r2
    286e:	9345      	str	r3, [sp, #276]	; 0x114
    2870:	2301      	movs	r3, #1
    2872:	934b      	str	r3, [sp, #300]	; 0x12c
    2874:	e79e      	b.n	27b4 <__svfiscanf_r+0x168>
    2876:	9b45      	ldr	r3, [sp, #276]	; 0x114
    2878:	9301      	str	r3, [sp, #4]
    287a:	2340      	movs	r3, #64	; 0x40
    287c:	9a01      	ldr	r2, [sp, #4]
    287e:	4313      	orrs	r3, r2
    2880:	9345      	str	r3, [sp, #276]	; 0x114
    2882:	2300      	movs	r3, #0
    2884:	e7f5      	b.n	2872 <__svfiscanf_r+0x226>
    2886:	9945      	ldr	r1, [sp, #276]	; 0x114
    2888:	06cb      	lsls	r3, r1, #27
    288a:	d500      	bpl.n	288e <__svfiscanf_r+0x242>
    288c:	e754      	b.n	2738 <__svfiscanf_r+0xec>
    288e:	9b03      	ldr	r3, [sp, #12]
    2890:	9a49      	ldr	r2, [sp, #292]	; 0x124
    2892:	07c8      	lsls	r0, r1, #31
    2894:	d504      	bpl.n	28a0 <__svfiscanf_r+0x254>
    2896:	1d19      	adds	r1, r3, #4
    2898:	9103      	str	r1, [sp, #12]
    289a:	681b      	ldr	r3, [r3, #0]
    289c:	801a      	strh	r2, [r3, #0]
    289e:	e74b      	b.n	2738 <__svfiscanf_r+0xec>
    28a0:	1d19      	adds	r1, r3, #4
    28a2:	9103      	str	r1, [sp, #12]
    28a4:	681b      	ldr	r3, [r3, #0]
    28a6:	601a      	str	r2, [r3, #0]
    28a8:	e746      	b.n	2738 <__svfiscanf_r+0xec>
    28aa:	2305      	movs	r3, #5
    28ac:	e7e1      	b.n	2872 <__svfiscanf_r+0x226>
    28ae:	2286      	movs	r2, #134	; 0x86
    28b0:	ab02      	add	r3, sp, #8
    28b2:	0052      	lsls	r2, r2, #1
    28b4:	189b      	adds	r3, r3, r2
    28b6:	59db      	ldr	r3, [r3, r7]
    28b8:	0021      	movs	r1, r4
    28ba:	9800      	ldr	r0, [sp, #0]
    28bc:	9301      	str	r3, [sp, #4]
    28be:	4798      	blx	r3
    28c0:	2800      	cmp	r0, #0
    28c2:	d100      	bne.n	28c6 <__svfiscanf_r+0x27a>
    28c4:	e77a      	b.n	27bc <__svfiscanf_r+0x170>
    28c6:	e7b4      	b.n	2832 <__svfiscanf_r+0x1e6>
    28c8:	9a49      	ldr	r2, [sp, #292]	; 0x124
    28ca:	9201      	str	r2, [sp, #4]
    28cc:	3201      	adds	r2, #1
    28ce:	9249      	str	r2, [sp, #292]	; 0x124
    28d0:	6862      	ldr	r2, [r4, #4]
    28d2:	3a01      	subs	r2, #1
    28d4:	6062      	str	r2, [r4, #4]
    28d6:	2a00      	cmp	r2, #0
    28d8:	dd0b      	ble.n	28f2 <__svfiscanf_r+0x2a6>
    28da:	3301      	adds	r3, #1
    28dc:	6023      	str	r3, [r4, #0]
    28de:	f000 fdeb 	bl	34b8 <__locale_ctype_ptr>
    28e2:	2108      	movs	r1, #8
    28e4:	6823      	ldr	r3, [r4, #0]
    28e6:	781a      	ldrb	r2, [r3, #0]
    28e8:	1880      	adds	r0, r0, r2
    28ea:	7842      	ldrb	r2, [r0, #1]
    28ec:	420a      	tst	r2, r1
    28ee:	d1eb      	bne.n	28c8 <__svfiscanf_r+0x27c>
    28f0:	e769      	b.n	27c6 <__svfiscanf_r+0x17a>
    28f2:	2286      	movs	r2, #134	; 0x86
    28f4:	ab02      	add	r3, sp, #8
    28f6:	0052      	lsls	r2, r2, #1
    28f8:	189b      	adds	r3, r3, r2
    28fa:	59db      	ldr	r3, [r3, r7]
    28fc:	0021      	movs	r1, r4
    28fe:	9800      	ldr	r0, [sp, #0]
    2900:	9301      	str	r3, [sp, #4]
    2902:	4798      	blx	r3
    2904:	2800      	cmp	r0, #0
    2906:	d0ea      	beq.n	28de <__svfiscanf_r+0x292>
    2908:	e793      	b.n	2832 <__svfiscanf_r+0x1e6>
    290a:	2b04      	cmp	r3, #4
    290c:	dc06      	bgt.n	291c <__svfiscanf_r+0x2d0>
    290e:	ab03      	add	r3, sp, #12
    2910:	0022      	movs	r2, r4
    2912:	a945      	add	r1, sp, #276	; 0x114
    2914:	9800      	ldr	r0, [sp, #0]
    2916:	f000 f8ab 	bl	2a70 <_scanf_i>
    291a:	e75e      	b.n	27da <__svfiscanf_r+0x18e>
    291c:	4b0d      	ldr	r3, [pc, #52]	; (2954 <__svfiscanf_r+0x308>)
    291e:	2b00      	cmp	r3, #0
    2920:	d100      	bne.n	2924 <__svfiscanf_r+0x2d8>
    2922:	e709      	b.n	2738 <__svfiscanf_r+0xec>
    2924:	ab03      	add	r3, sp, #12
    2926:	0022      	movs	r2, r4
    2928:	a945      	add	r1, sp, #276	; 0x114
    292a:	9800      	ldr	r0, [sp, #0]
    292c:	e000      	b.n	2930 <__svfiscanf_r+0x2e4>
    292e:	bf00      	nop
    2930:	e753      	b.n	27da <__svfiscanf_r+0x18e>
    2932:	89a3      	ldrh	r3, [r4, #12]
    2934:	065b      	lsls	r3, r3, #25
    2936:	d400      	bmi.n	293a <__svfiscanf_r+0x2ee>
    2938:	e780      	b.n	283c <__svfiscanf_r+0x1f0>
    293a:	2001      	movs	r0, #1
    293c:	4240      	negs	r0, r0
    293e:	e77d      	b.n	283c <__svfiscanf_r+0x1f0>
    2940:	9848      	ldr	r0, [sp, #288]	; 0x120
    2942:	e77b      	b.n	283c <__svfiscanf_r+0x1f0>
    2944:	fffffd64 	.word	0xfffffd64
    2948:	000031a1 	.word	0x000031a1
    294c:	00002c89 	.word	0x00002c89
    2950:	000036de 	.word	0x000036de
    2954:	00000000 	.word	0x00000000

00002958 <_vfiscanf_r>:
    2958:	b5f8      	push	{r3, r4, r5, r6, r7, lr}
    295a:	0004      	movs	r4, r0
    295c:	000d      	movs	r5, r1
    295e:	0016      	movs	r6, r2
    2960:	001f      	movs	r7, r3
    2962:	2800      	cmp	r0, #0
    2964:	d004      	beq.n	2970 <_vfiscanf_r+0x18>
    2966:	6983      	ldr	r3, [r0, #24]
    2968:	2b00      	cmp	r3, #0
    296a:	d101      	bne.n	2970 <_vfiscanf_r+0x18>
    296c:	f7ff f9d2 	bl	1d14 <__sinit>
    2970:	4b0a      	ldr	r3, [pc, #40]	; (299c <_vfiscanf_r+0x44>)
    2972:	429d      	cmp	r5, r3
    2974:	d107      	bne.n	2986 <_vfiscanf_r+0x2e>
    2976:	6865      	ldr	r5, [r4, #4]
    2978:	003b      	movs	r3, r7
    297a:	0032      	movs	r2, r6
    297c:	0029      	movs	r1, r5
    297e:	0020      	movs	r0, r4
    2980:	f7ff fe64 	bl	264c <__svfiscanf_r>
    2984:	bdf8      	pop	{r3, r4, r5, r6, r7, pc}
    2986:	4b06      	ldr	r3, [pc, #24]	; (29a0 <_vfiscanf_r+0x48>)
    2988:	429d      	cmp	r5, r3
    298a:	d101      	bne.n	2990 <_vfiscanf_r+0x38>
    298c:	68a5      	ldr	r5, [r4, #8]
    298e:	e7f3      	b.n	2978 <_vfiscanf_r+0x20>
    2990:	4b04      	ldr	r3, [pc, #16]	; (29a4 <_vfiscanf_r+0x4c>)
    2992:	429d      	cmp	r5, r3
    2994:	d1f0      	bne.n	2978 <_vfiscanf_r+0x20>
    2996:	68e5      	ldr	r5, [r4, #12]
    2998:	e7ee      	b.n	2978 <_vfiscanf_r+0x20>
    299a:	46c0      	nop			; (mov r8, r8)
    299c:	00003698 	.word	0x00003698
    29a0:	000036b8 	.word	0x000036b8
    29a4:	00003678 	.word	0x00003678

000029a8 <_scanf_chars>:
    29a8:	b5f7      	push	{r0, r1, r2, r4, r5, r6, r7, lr}
    29aa:	0015      	movs	r5, r2
    29ac:	688a      	ldr	r2, [r1, #8]
    29ae:	9001      	str	r0, [sp, #4]
    29b0:	000c      	movs	r4, r1
    29b2:	2a00      	cmp	r2, #0
    29b4:	d106      	bne.n	29c4 <_scanf_chars+0x1c>
    29b6:	698a      	ldr	r2, [r1, #24]
    29b8:	1e51      	subs	r1, r2, #1
    29ba:	418a      	sbcs	r2, r1
    29bc:	2101      	movs	r1, #1
    29be:	4252      	negs	r2, r2
    29c0:	430a      	orrs	r2, r1
    29c2:	60a2      	str	r2, [r4, #8]
    29c4:	6822      	ldr	r2, [r4, #0]
    29c6:	06d2      	lsls	r2, r2, #27
    29c8:	d403      	bmi.n	29d2 <_scanf_chars+0x2a>
    29ca:	681a      	ldr	r2, [r3, #0]
    29cc:	1d11      	adds	r1, r2, #4
    29ce:	6019      	str	r1, [r3, #0]
    29d0:	6817      	ldr	r7, [r2, #0]
    29d2:	2600      	movs	r6, #0
    29d4:	69a3      	ldr	r3, [r4, #24]
    29d6:	2b00      	cmp	r3, #0
    29d8:	d01c      	beq.n	2a14 <_scanf_chars+0x6c>
    29da:	2b01      	cmp	r3, #1
    29dc:	d108      	bne.n	29f0 <_scanf_chars+0x48>
    29de:	682b      	ldr	r3, [r5, #0]
    29e0:	6962      	ldr	r2, [r4, #20]
    29e2:	781b      	ldrb	r3, [r3, #0]
    29e4:	5cd3      	ldrb	r3, [r2, r3]
    29e6:	2b00      	cmp	r3, #0
    29e8:	d114      	bne.n	2a14 <_scanf_chars+0x6c>
    29ea:	2e00      	cmp	r6, #0
    29ec:	d130      	bne.n	2a50 <_scanf_chars+0xa8>
    29ee:	e006      	b.n	29fe <_scanf_chars+0x56>
    29f0:	2b02      	cmp	r3, #2
    29f2:	d006      	beq.n	2a02 <_scanf_chars+0x5a>
    29f4:	2e00      	cmp	r6, #0
    29f6:	d12b      	bne.n	2a50 <_scanf_chars+0xa8>
    29f8:	69a3      	ldr	r3, [r4, #24]
    29fa:	2b01      	cmp	r3, #1
    29fc:	d128      	bne.n	2a50 <_scanf_chars+0xa8>
    29fe:	2001      	movs	r0, #1
    2a00:	bdfe      	pop	{r1, r2, r3, r4, r5, r6, r7, pc}
    2a02:	f000 fd59 	bl	34b8 <__locale_ctype_ptr>
    2a06:	2208      	movs	r2, #8
    2a08:	682b      	ldr	r3, [r5, #0]
    2a0a:	781b      	ldrb	r3, [r3, #0]
    2a0c:	18c0      	adds	r0, r0, r3
    2a0e:	7843      	ldrb	r3, [r0, #1]
    2a10:	4213      	tst	r3, r2
    2a12:	d1ef      	bne.n	29f4 <_scanf_chars+0x4c>
    2a14:	2210      	movs	r2, #16
    2a16:	6823      	ldr	r3, [r4, #0]
    2a18:	3601      	adds	r6, #1
    2a1a:	4213      	tst	r3, r2
    2a1c:	d103      	bne.n	2a26 <_scanf_chars+0x7e>
    2a1e:	682b      	ldr	r3, [r5, #0]
    2a20:	781b      	ldrb	r3, [r3, #0]
    2a22:	703b      	strb	r3, [r7, #0]
    2a24:	3701      	adds	r7, #1
    2a26:	682a      	ldr	r2, [r5, #0]
    2a28:	686b      	ldr	r3, [r5, #4]
    2a2a:	3201      	adds	r2, #1
    2a2c:	602a      	str	r2, [r5, #0]
    2a2e:	68a2      	ldr	r2, [r4, #8]
    2a30:	3b01      	subs	r3, #1
    2a32:	3a01      	subs	r2, #1
    2a34:	606b      	str	r3, [r5, #4]
    2a36:	60a2      	str	r2, [r4, #8]
    2a38:	2a00      	cmp	r2, #0
    2a3a:	d009      	beq.n	2a50 <_scanf_chars+0xa8>
    2a3c:	2b00      	cmp	r3, #0
    2a3e:	dcc9      	bgt.n	29d4 <_scanf_chars+0x2c>
    2a40:	23c0      	movs	r3, #192	; 0xc0
    2a42:	005b      	lsls	r3, r3, #1
    2a44:	58e3      	ldr	r3, [r4, r3]
    2a46:	0029      	movs	r1, r5
    2a48:	9801      	ldr	r0, [sp, #4]
    2a4a:	4798      	blx	r3
    2a4c:	2800      	cmp	r0, #0
    2a4e:	d0c1      	beq.n	29d4 <_scanf_chars+0x2c>
    2a50:	2310      	movs	r3, #16
    2a52:	6822      	ldr	r2, [r4, #0]
    2a54:	4013      	ands	r3, r2
    2a56:	d106      	bne.n	2a66 <_scanf_chars+0xbe>
    2a58:	68e2      	ldr	r2, [r4, #12]
    2a5a:	3201      	adds	r2, #1
    2a5c:	60e2      	str	r2, [r4, #12]
    2a5e:	69a2      	ldr	r2, [r4, #24]
    2a60:	2a00      	cmp	r2, #0
    2a62:	d000      	beq.n	2a66 <_scanf_chars+0xbe>
    2a64:	703b      	strb	r3, [r7, #0]
    2a66:	6923      	ldr	r3, [r4, #16]
    2a68:	2000      	movs	r0, #0
    2a6a:	199e      	adds	r6, r3, r6
    2a6c:	6126      	str	r6, [r4, #16]
    2a6e:	e7c7      	b.n	2a00 <_scanf_chars+0x58>

00002a70 <_scanf_i>:
    2a70:	b5f0      	push	{r4, r5, r6, r7, lr}
    2a72:	000c      	movs	r4, r1
    2a74:	b08d      	sub	sp, #52	; 0x34
    2a76:	9302      	str	r3, [sp, #8]
    2a78:	4b77      	ldr	r3, [pc, #476]	; (2c58 <_scanf_i+0x1e8>)
    2a7a:	9005      	str	r0, [sp, #20]
    2a7c:	0016      	movs	r6, r2
    2a7e:	aa09      	add	r2, sp, #36	; 0x24
    2a80:	cb23      	ldmia	r3!, {r0, r1, r5}
    2a82:	c223      	stmia	r2!, {r0, r1, r5}
    2a84:	4b75      	ldr	r3, [pc, #468]	; (2c5c <_scanf_i+0x1ec>)
    2a86:	9306      	str	r3, [sp, #24]
    2a88:	69a3      	ldr	r3, [r4, #24]
    2a8a:	2b03      	cmp	r3, #3
    2a8c:	d001      	beq.n	2a92 <_scanf_i+0x22>
    2a8e:	4b74      	ldr	r3, [pc, #464]	; (2c60 <_scanf_i+0x1f0>)
    2a90:	9306      	str	r3, [sp, #24]
    2a92:	22ae      	movs	r2, #174	; 0xae
    2a94:	2000      	movs	r0, #0
    2a96:	68a3      	ldr	r3, [r4, #8]
    2a98:	0052      	lsls	r2, r2, #1
    2a9a:	1e59      	subs	r1, r3, #1
    2a9c:	9004      	str	r0, [sp, #16]
    2a9e:	4291      	cmp	r1, r2
    2aa0:	d905      	bls.n	2aae <_scanf_i+0x3e>
    2aa2:	3b5e      	subs	r3, #94	; 0x5e
    2aa4:	3bff      	subs	r3, #255	; 0xff
    2aa6:	9304      	str	r3, [sp, #16]
    2aa8:	235e      	movs	r3, #94	; 0x5e
    2aaa:	33ff      	adds	r3, #255	; 0xff
    2aac:	60a3      	str	r3, [r4, #8]
    2aae:	0023      	movs	r3, r4
    2ab0:	331c      	adds	r3, #28
    2ab2:	9301      	str	r3, [sp, #4]
    2ab4:	23d0      	movs	r3, #208	; 0xd0
    2ab6:	2700      	movs	r7, #0
    2ab8:	6822      	ldr	r2, [r4, #0]
    2aba:	011b      	lsls	r3, r3, #4
    2abc:	4313      	orrs	r3, r2
    2abe:	6023      	str	r3, [r4, #0]
    2ac0:	9b01      	ldr	r3, [sp, #4]
    2ac2:	9303      	str	r3, [sp, #12]
    2ac4:	6833      	ldr	r3, [r6, #0]
    2ac6:	a809      	add	r0, sp, #36	; 0x24
    2ac8:	7819      	ldrb	r1, [r3, #0]
    2aca:	00bb      	lsls	r3, r7, #2
    2acc:	2202      	movs	r2, #2
    2ace:	5818      	ldr	r0, [r3, r0]
    2ad0:	f000 fd26 	bl	3520 <memchr>
    2ad4:	2800      	cmp	r0, #0
    2ad6:	d02b      	beq.n	2b30 <_scanf_i+0xc0>
    2ad8:	2f01      	cmp	r7, #1
    2ada:	d15f      	bne.n	2b9c <_scanf_i+0x12c>
    2adc:	6863      	ldr	r3, [r4, #4]
    2ade:	2b00      	cmp	r3, #0
    2ae0:	d106      	bne.n	2af0 <_scanf_i+0x80>
    2ae2:	3308      	adds	r3, #8
    2ae4:	6822      	ldr	r2, [r4, #0]
    2ae6:	6063      	str	r3, [r4, #4]
    2ae8:	33f9      	adds	r3, #249	; 0xf9
    2aea:	33ff      	adds	r3, #255	; 0xff
    2aec:	4313      	orrs	r3, r2
    2aee:	6023      	str	r3, [r4, #0]
    2af0:	4b5c      	ldr	r3, [pc, #368]	; (2c64 <_scanf_i+0x1f4>)
    2af2:	6822      	ldr	r2, [r4, #0]
    2af4:	4013      	ands	r3, r2
    2af6:	6023      	str	r3, [r4, #0]
    2af8:	68a3      	ldr	r3, [r4, #8]
    2afa:	1e5a      	subs	r2, r3, #1
    2afc:	60a2      	str	r2, [r4, #8]
    2afe:	2b00      	cmp	r3, #0
    2b00:	d016      	beq.n	2b30 <_scanf_i+0xc0>
    2b02:	9b03      	ldr	r3, [sp, #12]
    2b04:	1c5d      	adds	r5, r3, #1
    2b06:	6833      	ldr	r3, [r6, #0]
    2b08:	1c5a      	adds	r2, r3, #1
    2b0a:	6032      	str	r2, [r6, #0]
    2b0c:	781b      	ldrb	r3, [r3, #0]
    2b0e:	9a03      	ldr	r2, [sp, #12]
    2b10:	9503      	str	r5, [sp, #12]
    2b12:	7013      	strb	r3, [r2, #0]
    2b14:	6873      	ldr	r3, [r6, #4]
    2b16:	3b01      	subs	r3, #1
    2b18:	6073      	str	r3, [r6, #4]
    2b1a:	2b00      	cmp	r3, #0
    2b1c:	dc08      	bgt.n	2b30 <_scanf_i+0xc0>
    2b1e:	23c0      	movs	r3, #192	; 0xc0
    2b20:	005b      	lsls	r3, r3, #1
    2b22:	58e3      	ldr	r3, [r4, r3]
    2b24:	0031      	movs	r1, r6
    2b26:	9805      	ldr	r0, [sp, #20]
    2b28:	9307      	str	r3, [sp, #28]
    2b2a:	4798      	blx	r3
    2b2c:	2800      	cmp	r0, #0
    2b2e:	d17d      	bne.n	2c2c <_scanf_i+0x1bc>
    2b30:	3701      	adds	r7, #1
    2b32:	2f03      	cmp	r7, #3
    2b34:	d1c6      	bne.n	2ac4 <_scanf_i+0x54>
    2b36:	6863      	ldr	r3, [r4, #4]
    2b38:	2b00      	cmp	r3, #0
    2b3a:	d101      	bne.n	2b40 <_scanf_i+0xd0>
    2b3c:	330a      	adds	r3, #10
    2b3e:	6063      	str	r3, [r4, #4]
    2b40:	2110      	movs	r1, #16
    2b42:	2700      	movs	r7, #0
    2b44:	6863      	ldr	r3, [r4, #4]
    2b46:	6960      	ldr	r0, [r4, #20]
    2b48:	1ac9      	subs	r1, r1, r3
    2b4a:	4b47      	ldr	r3, [pc, #284]	; (2c68 <_scanf_i+0x1f8>)
    2b4c:	18c9      	adds	r1, r1, r3
    2b4e:	f000 f93d 	bl	2dcc <__sccl>
    2b52:	9d03      	ldr	r5, [sp, #12]
    2b54:	68a3      	ldr	r3, [r4, #8]
    2b56:	2b00      	cmp	r3, #0
    2b58:	d041      	beq.n	2bde <_scanf_i+0x16e>
    2b5a:	6832      	ldr	r2, [r6, #0]
    2b5c:	6960      	ldr	r0, [r4, #20]
    2b5e:	7811      	ldrb	r1, [r2, #0]
    2b60:	5c40      	ldrb	r0, [r0, r1]
    2b62:	2800      	cmp	r0, #0
    2b64:	d03b      	beq.n	2bde <_scanf_i+0x16e>
    2b66:	2930      	cmp	r1, #48	; 0x30
    2b68:	d128      	bne.n	2bbc <_scanf_i+0x14c>
    2b6a:	2080      	movs	r0, #128	; 0x80
    2b6c:	6821      	ldr	r1, [r4, #0]
    2b6e:	0100      	lsls	r0, r0, #4
    2b70:	4201      	tst	r1, r0
    2b72:	d023      	beq.n	2bbc <_scanf_i+0x14c>
    2b74:	9a04      	ldr	r2, [sp, #16]
    2b76:	3701      	adds	r7, #1
    2b78:	2a00      	cmp	r2, #0
    2b7a:	d003      	beq.n	2b84 <_scanf_i+0x114>
    2b7c:	3a01      	subs	r2, #1
    2b7e:	3301      	adds	r3, #1
    2b80:	9204      	str	r2, [sp, #16]
    2b82:	60a3      	str	r3, [r4, #8]
    2b84:	6873      	ldr	r3, [r6, #4]
    2b86:	3b01      	subs	r3, #1
    2b88:	6073      	str	r3, [r6, #4]
    2b8a:	2b00      	cmp	r3, #0
    2b8c:	dd1e      	ble.n	2bcc <_scanf_i+0x15c>
    2b8e:	6833      	ldr	r3, [r6, #0]
    2b90:	3301      	adds	r3, #1
    2b92:	6033      	str	r3, [r6, #0]
    2b94:	68a3      	ldr	r3, [r4, #8]
    2b96:	3b01      	subs	r3, #1
    2b98:	60a3      	str	r3, [r4, #8]
    2b9a:	e7db      	b.n	2b54 <_scanf_i+0xe4>
    2b9c:	2f02      	cmp	r7, #2
    2b9e:	d1ab      	bne.n	2af8 <_scanf_i+0x88>
    2ba0:	21c0      	movs	r1, #192	; 0xc0
    2ba2:	2380      	movs	r3, #128	; 0x80
    2ba4:	6822      	ldr	r2, [r4, #0]
    2ba6:	00c9      	lsls	r1, r1, #3
    2ba8:	4011      	ands	r1, r2
    2baa:	009b      	lsls	r3, r3, #2
    2bac:	4299      	cmp	r1, r3
    2bae:	d1c2      	bne.n	2b36 <_scanf_i+0xc6>
    2bb0:	3bf1      	subs	r3, #241	; 0xf1
    2bb2:	3bff      	subs	r3, #255	; 0xff
    2bb4:	6063      	str	r3, [r4, #4]
    2bb6:	33f0      	adds	r3, #240	; 0xf0
    2bb8:	4313      	orrs	r3, r2
    2bba:	e79c      	b.n	2af6 <_scanf_i+0x86>
    2bbc:	6821      	ldr	r1, [r4, #0]
    2bbe:	4b2b      	ldr	r3, [pc, #172]	; (2c6c <_scanf_i+0x1fc>)
    2bc0:	400b      	ands	r3, r1
    2bc2:	6023      	str	r3, [r4, #0]
    2bc4:	7813      	ldrb	r3, [r2, #0]
    2bc6:	702b      	strb	r3, [r5, #0]
    2bc8:	3501      	adds	r5, #1
    2bca:	e7db      	b.n	2b84 <_scanf_i+0x114>
    2bcc:	23c0      	movs	r3, #192	; 0xc0
    2bce:	005b      	lsls	r3, r3, #1
    2bd0:	58e3      	ldr	r3, [r4, r3]
    2bd2:	0031      	movs	r1, r6
    2bd4:	9805      	ldr	r0, [sp, #20]
    2bd6:	9303      	str	r3, [sp, #12]
    2bd8:	4798      	blx	r3
    2bda:	2800      	cmp	r0, #0
    2bdc:	d0da      	beq.n	2b94 <_scanf_i+0x124>
    2bde:	6823      	ldr	r3, [r4, #0]
    2be0:	05db      	lsls	r3, r3, #23
    2be2:	d50e      	bpl.n	2c02 <_scanf_i+0x192>
    2be4:	9b01      	ldr	r3, [sp, #4]
    2be6:	429d      	cmp	r5, r3
    2be8:	d907      	bls.n	2bfa <_scanf_i+0x18a>
    2bea:	23be      	movs	r3, #190	; 0xbe
    2bec:	3d01      	subs	r5, #1
    2bee:	005b      	lsls	r3, r3, #1
    2bf0:	7829      	ldrb	r1, [r5, #0]
    2bf2:	58e3      	ldr	r3, [r4, r3]
    2bf4:	0032      	movs	r2, r6
    2bf6:	9805      	ldr	r0, [sp, #20]
    2bf8:	4798      	blx	r3
    2bfa:	9b01      	ldr	r3, [sp, #4]
    2bfc:	2001      	movs	r0, #1
    2bfe:	429d      	cmp	r5, r3
    2c00:	d027      	beq.n	2c52 <_scanf_i+0x1e2>
    2c02:	2210      	movs	r2, #16
    2c04:	6823      	ldr	r3, [r4, #0]
    2c06:	401a      	ands	r2, r3
    2c08:	d11c      	bne.n	2c44 <_scanf_i+0x1d4>
    2c0a:	702a      	strb	r2, [r5, #0]
    2c0c:	6863      	ldr	r3, [r4, #4]
    2c0e:	9901      	ldr	r1, [sp, #4]
    2c10:	9805      	ldr	r0, [sp, #20]
    2c12:	9e06      	ldr	r6, [sp, #24]
    2c14:	47b0      	blx	r6
    2c16:	9b02      	ldr	r3, [sp, #8]
    2c18:	6822      	ldr	r2, [r4, #0]
    2c1a:	681b      	ldr	r3, [r3, #0]
    2c1c:	0691      	lsls	r1, r2, #26
    2c1e:	d507      	bpl.n	2c30 <_scanf_i+0x1c0>
    2c20:	9902      	ldr	r1, [sp, #8]
    2c22:	1d1a      	adds	r2, r3, #4
    2c24:	600a      	str	r2, [r1, #0]
    2c26:	681b      	ldr	r3, [r3, #0]
    2c28:	6018      	str	r0, [r3, #0]
    2c2a:	e008      	b.n	2c3e <_scanf_i+0x1ce>
    2c2c:	2700      	movs	r7, #0
    2c2e:	e7d6      	b.n	2bde <_scanf_i+0x16e>
    2c30:	07d1      	lsls	r1, r2, #31
    2c32:	d5f5      	bpl.n	2c20 <_scanf_i+0x1b0>
    2c34:	9902      	ldr	r1, [sp, #8]
    2c36:	1d1a      	adds	r2, r3, #4
    2c38:	600a      	str	r2, [r1, #0]
    2c3a:	681b      	ldr	r3, [r3, #0]
    2c3c:	8018      	strh	r0, [r3, #0]
    2c3e:	68e3      	ldr	r3, [r4, #12]
    2c40:	3301      	adds	r3, #1
    2c42:	60e3      	str	r3, [r4, #12]
    2c44:	2000      	movs	r0, #0
    2c46:	9b01      	ldr	r3, [sp, #4]
    2c48:	1aed      	subs	r5, r5, r3
    2c4a:	6923      	ldr	r3, [r4, #16]
    2c4c:	19ef      	adds	r7, r5, r7
    2c4e:	19df      	adds	r7, r3, r7
    2c50:	6127      	str	r7, [r4, #16]
    2c52:	b00d      	add	sp, #52	; 0x34
    2c54:	bdf0      	pop	{r4, r5, r6, r7, pc}
    2c56:	46c0      	nop			; (mov r8, r8)
    2c58:	0000370c 	.word	0x0000370c
    2c5c:	00002fd5 	.word	0x00002fd5
    2c60:	00003105 	.word	0x00003105
    2c64:	fffffaff 	.word	0xfffffaff
    2c68:	00003718 	.word	0x00003718
    2c6c:	fffff6ff 	.word	0xfffff6ff

00002c70 <lflush>:
    2c70:	2209      	movs	r2, #9
    2c72:	b510      	push	{r4, lr}
    2c74:	8983      	ldrh	r3, [r0, #12]
    2c76:	4013      	ands	r3, r2
    2c78:	2200      	movs	r2, #0
    2c7a:	2b09      	cmp	r3, #9
    2c7c:	d102      	bne.n	2c84 <lflush+0x14>
    2c7e:	f7fe fff3 	bl	1c68 <fflush>
    2c82:	0002      	movs	r2, r0
    2c84:	0010      	movs	r0, r2
    2c86:	bd10      	pop	{r4, pc}

00002c88 <__srefill_r>:
    2c88:	b5f8      	push	{r3, r4, r5, r6, r7, lr}
    2c8a:	0005      	movs	r5, r0
    2c8c:	000c      	movs	r4, r1
    2c8e:	2800      	cmp	r0, #0
    2c90:	d004      	beq.n	2c9c <__srefill_r+0x14>
    2c92:	6983      	ldr	r3, [r0, #24]
    2c94:	2b00      	cmp	r3, #0
    2c96:	d101      	bne.n	2c9c <__srefill_r+0x14>
    2c98:	f7ff f83c 	bl	1d14 <__sinit>
    2c9c:	4b3d      	ldr	r3, [pc, #244]	; (2d94 <__srefill_r+0x10c>)
    2c9e:	429c      	cmp	r4, r3
    2ca0:	d10a      	bne.n	2cb8 <__srefill_r+0x30>
    2ca2:	686c      	ldr	r4, [r5, #4]
    2ca4:	2300      	movs	r3, #0
    2ca6:	6063      	str	r3, [r4, #4]
    2ca8:	230c      	movs	r3, #12
    2caa:	5ee2      	ldrsh	r2, [r4, r3]
    2cac:	b293      	uxth	r3, r2
    2cae:	0699      	lsls	r1, r3, #26
    2cb0:	d50c      	bpl.n	2ccc <__srefill_r+0x44>
    2cb2:	2001      	movs	r0, #1
    2cb4:	4240      	negs	r0, r0
    2cb6:	e068      	b.n	2d8a <__srefill_r+0x102>
    2cb8:	4b37      	ldr	r3, [pc, #220]	; (2d98 <__srefill_r+0x110>)
    2cba:	429c      	cmp	r4, r3
    2cbc:	d101      	bne.n	2cc2 <__srefill_r+0x3a>
    2cbe:	68ac      	ldr	r4, [r5, #8]
    2cc0:	e7f0      	b.n	2ca4 <__srefill_r+0x1c>
    2cc2:	4b36      	ldr	r3, [pc, #216]	; (2d9c <__srefill_r+0x114>)
    2cc4:	429c      	cmp	r4, r3
    2cc6:	d1ed      	bne.n	2ca4 <__srefill_r+0x1c>
    2cc8:	68ec      	ldr	r4, [r5, #12]
    2cca:	e7eb      	b.n	2ca4 <__srefill_r+0x1c>
    2ccc:	0759      	lsls	r1, r3, #29
    2cce:	d44a      	bmi.n	2d66 <__srefill_r+0xde>
    2cd0:	06d9      	lsls	r1, r3, #27
    2cd2:	d405      	bmi.n	2ce0 <__srefill_r+0x58>
    2cd4:	2309      	movs	r3, #9
    2cd6:	602b      	str	r3, [r5, #0]
    2cd8:	3337      	adds	r3, #55	; 0x37
    2cda:	4313      	orrs	r3, r2
    2cdc:	81a3      	strh	r3, [r4, #12]
    2cde:	e7e8      	b.n	2cb2 <__srefill_r+0x2a>
    2ce0:	2608      	movs	r6, #8
    2ce2:	4233      	tst	r3, r6
    2ce4:	d00a      	beq.n	2cfc <__srefill_r+0x74>
    2ce6:	0021      	movs	r1, r4
    2ce8:	0028      	movs	r0, r5
    2cea:	f7fe ff91 	bl	1c10 <_fflush_r>
    2cee:	2800      	cmp	r0, #0
    2cf0:	d1df      	bne.n	2cb2 <__srefill_r+0x2a>
    2cf2:	89a3      	ldrh	r3, [r4, #12]
    2cf4:	60a0      	str	r0, [r4, #8]
    2cf6:	43b3      	bics	r3, r6
    2cf8:	81a3      	strh	r3, [r4, #12]
    2cfa:	61a0      	str	r0, [r4, #24]
    2cfc:	2304      	movs	r3, #4
    2cfe:	89a2      	ldrh	r2, [r4, #12]
    2d00:	4313      	orrs	r3, r2
    2d02:	81a3      	strh	r3, [r4, #12]
    2d04:	6923      	ldr	r3, [r4, #16]
    2d06:	2b00      	cmp	r3, #0
    2d08:	d103      	bne.n	2d12 <__srefill_r+0x8a>
    2d0a:	0021      	movs	r1, r4
    2d0c:	0028      	movs	r0, r5
    2d0e:	f7ff f8db 	bl	1ec8 <__smakebuf_r>
    2d12:	230c      	movs	r3, #12
    2d14:	5ee7      	ldrsh	r7, [r4, r3]
    2d16:	b2be      	uxth	r6, r7
    2d18:	07b3      	lsls	r3, r6, #30
    2d1a:	d00f      	beq.n	2d3c <__srefill_r+0xb4>
    2d1c:	2301      	movs	r3, #1
    2d1e:	81a3      	strh	r3, [r4, #12]
    2d20:	4b1f      	ldr	r3, [pc, #124]	; (2da0 <__srefill_r+0x118>)
    2d22:	4920      	ldr	r1, [pc, #128]	; (2da4 <__srefill_r+0x11c>)
    2d24:	6818      	ldr	r0, [r3, #0]
    2d26:	f7ff f869 	bl	1dfc <_fwalk>
    2d2a:	2309      	movs	r3, #9
    2d2c:	81a7      	strh	r7, [r4, #12]
    2d2e:	401e      	ands	r6, r3
    2d30:	429e      	cmp	r6, r3
    2d32:	d103      	bne.n	2d3c <__srefill_r+0xb4>
    2d34:	0021      	movs	r1, r4
    2d36:	0028      	movs	r0, r5
    2d38:	f7fe fee0 	bl	1afc <__sflush_r>
    2d3c:	6923      	ldr	r3, [r4, #16]
    2d3e:	6922      	ldr	r2, [r4, #16]
    2d40:	6023      	str	r3, [r4, #0]
    2d42:	0028      	movs	r0, r5
    2d44:	6963      	ldr	r3, [r4, #20]
    2d46:	6a21      	ldr	r1, [r4, #32]
    2d48:	6a65      	ldr	r5, [r4, #36]	; 0x24
    2d4a:	47a8      	blx	r5
    2d4c:	0002      	movs	r2, r0
    2d4e:	6060      	str	r0, [r4, #4]
    2d50:	2000      	movs	r0, #0
    2d52:	4282      	cmp	r2, r0
    2d54:	dc19      	bgt.n	2d8a <__srefill_r+0x102>
    2d56:	89a1      	ldrh	r1, [r4, #12]
    2d58:	4282      	cmp	r2, r0
    2d5a:	d117      	bne.n	2d8c <__srefill_r+0x104>
    2d5c:	2320      	movs	r3, #32
    2d5e:	430b      	orrs	r3, r1
    2d60:	81a3      	strh	r3, [r4, #12]
    2d62:	3801      	subs	r0, #1
    2d64:	e011      	b.n	2d8a <__srefill_r+0x102>
    2d66:	6b61      	ldr	r1, [r4, #52]	; 0x34
    2d68:	2900      	cmp	r1, #0
    2d6a:	d0cb      	beq.n	2d04 <__srefill_r+0x7c>
    2d6c:	0023      	movs	r3, r4
    2d6e:	3344      	adds	r3, #68	; 0x44
    2d70:	4299      	cmp	r1, r3
    2d72:	d002      	beq.n	2d7a <__srefill_r+0xf2>
    2d74:	0028      	movs	r0, r5
    2d76:	f7ff f8f5 	bl	1f64 <_free_r>
    2d7a:	2000      	movs	r0, #0
    2d7c:	6c23      	ldr	r3, [r4, #64]	; 0x40
    2d7e:	6360      	str	r0, [r4, #52]	; 0x34
    2d80:	6063      	str	r3, [r4, #4]
    2d82:	4283      	cmp	r3, r0
    2d84:	d0be      	beq.n	2d04 <__srefill_r+0x7c>
    2d86:	6be3      	ldr	r3, [r4, #60]	; 0x3c
    2d88:	6023      	str	r3, [r4, #0]
    2d8a:	bdf8      	pop	{r3, r4, r5, r6, r7, pc}
    2d8c:	2340      	movs	r3, #64	; 0x40
    2d8e:	6060      	str	r0, [r4, #4]
    2d90:	430b      	orrs	r3, r1
    2d92:	e7a3      	b.n	2cdc <__srefill_r+0x54>
    2d94:	00003698 	.word	0x00003698
    2d98:	000036b8 	.word	0x000036b8
    2d9c:	00003678 	.word	0x00003678
    2da0:	00003674 	.word	0x00003674
    2da4:	00002c71 	.word	0x00002c71

00002da8 <_sbrk_r>:
    2da8:	2300      	movs	r3, #0
    2daa:	b570      	push	{r4, r5, r6, lr}
    2dac:	4c06      	ldr	r4, [pc, #24]	; (2dc8 <_sbrk_r+0x20>)
    2dae:	0005      	movs	r5, r0
    2db0:	0008      	movs	r0, r1
    2db2:	6023      	str	r3, [r4, #0]
    2db4:	f7fe fbb6 	bl	1524 <_sbrk>
    2db8:	1c43      	adds	r3, r0, #1
    2dba:	d103      	bne.n	2dc4 <_sbrk_r+0x1c>
    2dbc:	6823      	ldr	r3, [r4, #0]
    2dbe:	2b00      	cmp	r3, #0
    2dc0:	d000      	beq.n	2dc4 <_sbrk_r+0x1c>
    2dc2:	602b      	str	r3, [r5, #0]
    2dc4:	bd70      	pop	{r4, r5, r6, pc}
    2dc6:	46c0      	nop			; (mov r8, r8)
    2dc8:	20000298 	.word	0x20000298

00002dcc <__sccl>:
    2dcc:	b570      	push	{r4, r5, r6, lr}
    2dce:	780b      	ldrb	r3, [r1, #0]
    2dd0:	2b5e      	cmp	r3, #94	; 0x5e
    2dd2:	d00d      	beq.n	2df0 <__sccl+0x24>
    2dd4:	1c4a      	adds	r2, r1, #1
    2dd6:	2100      	movs	r1, #0
    2dd8:	0004      	movs	r4, r0
    2dda:	1c45      	adds	r5, r0, #1
    2ddc:	35ff      	adds	r5, #255	; 0xff
    2dde:	7021      	strb	r1, [r4, #0]
    2de0:	3401      	adds	r4, #1
    2de2:	42a5      	cmp	r5, r4
    2de4:	d1fb      	bne.n	2dde <__sccl+0x12>
    2de6:	2b00      	cmp	r3, #0
    2de8:	d106      	bne.n	2df8 <__sccl+0x2c>
    2dea:	3a01      	subs	r2, #1
    2dec:	0010      	movs	r0, r2
    2dee:	bd70      	pop	{r4, r5, r6, pc}
    2df0:	1c8a      	adds	r2, r1, #2
    2df2:	784b      	ldrb	r3, [r1, #1]
    2df4:	2101      	movs	r1, #1
    2df6:	e7ef      	b.n	2dd8 <__sccl+0xc>
    2df8:	2401      	movs	r4, #1
    2dfa:	404c      	eors	r4, r1
    2dfc:	0011      	movs	r1, r2
    2dfe:	54c4      	strb	r4, [r0, r3]
    2e00:	780d      	ldrb	r5, [r1, #0]
    2e02:	1c4a      	adds	r2, r1, #1
    2e04:	2d2d      	cmp	r5, #45	; 0x2d
    2e06:	d007      	beq.n	2e18 <__sccl+0x4c>
    2e08:	2d5d      	cmp	r5, #93	; 0x5d
    2e0a:	d0ef      	beq.n	2dec <__sccl+0x20>
    2e0c:	2d00      	cmp	r5, #0
    2e0e:	d101      	bne.n	2e14 <__sccl+0x48>
    2e10:	000a      	movs	r2, r1
    2e12:	e7eb      	b.n	2dec <__sccl+0x20>
    2e14:	002b      	movs	r3, r5
    2e16:	e7f1      	b.n	2dfc <__sccl+0x30>
    2e18:	784e      	ldrb	r6, [r1, #1]
    2e1a:	2e5d      	cmp	r6, #93	; 0x5d
    2e1c:	d0fa      	beq.n	2e14 <__sccl+0x48>
    2e1e:	42b3      	cmp	r3, r6
    2e20:	dcf8      	bgt.n	2e14 <__sccl+0x48>
    2e22:	3102      	adds	r1, #2
    2e24:	3301      	adds	r3, #1
    2e26:	54c4      	strb	r4, [r0, r3]
    2e28:	429e      	cmp	r6, r3
    2e2a:	dcfb      	bgt.n	2e24 <__sccl+0x58>
    2e2c:	e7e8      	b.n	2e00 <__sccl+0x34>
	...

00002e30 <__sread>:
    2e30:	b570      	push	{r4, r5, r6, lr}
    2e32:	000c      	movs	r4, r1
    2e34:	250e      	movs	r5, #14
    2e36:	5f49      	ldrsh	r1, [r1, r5]
    2e38:	f000 fbae 	bl	3598 <_read_r>
    2e3c:	2800      	cmp	r0, #0
    2e3e:	db03      	blt.n	2e48 <__sread+0x18>
    2e40:	6d63      	ldr	r3, [r4, #84]	; 0x54
    2e42:	181b      	adds	r3, r3, r0
    2e44:	6563      	str	r3, [r4, #84]	; 0x54
    2e46:	bd70      	pop	{r4, r5, r6, pc}
    2e48:	89a3      	ldrh	r3, [r4, #12]
    2e4a:	4a02      	ldr	r2, [pc, #8]	; (2e54 <__sread+0x24>)
    2e4c:	4013      	ands	r3, r2
    2e4e:	81a3      	strh	r3, [r4, #12]
    2e50:	e7f9      	b.n	2e46 <__sread+0x16>
    2e52:	46c0      	nop			; (mov r8, r8)
    2e54:	ffffefff 	.word	0xffffefff

00002e58 <__swrite>:
    2e58:	b5f8      	push	{r3, r4, r5, r6, r7, lr}
    2e5a:	001f      	movs	r7, r3
    2e5c:	898b      	ldrh	r3, [r1, #12]
    2e5e:	0005      	movs	r5, r0
    2e60:	000c      	movs	r4, r1
    2e62:	0016      	movs	r6, r2
    2e64:	05db      	lsls	r3, r3, #23
    2e66:	d505      	bpl.n	2e74 <__swrite+0x1c>
    2e68:	230e      	movs	r3, #14
    2e6a:	5ec9      	ldrsh	r1, [r1, r3]
    2e6c:	2200      	movs	r2, #0
    2e6e:	2302      	movs	r3, #2
    2e70:	f000 fb30 	bl	34d4 <_lseek_r>
    2e74:	89a3      	ldrh	r3, [r4, #12]
    2e76:	4a05      	ldr	r2, [pc, #20]	; (2e8c <__swrite+0x34>)
    2e78:	0028      	movs	r0, r5
    2e7a:	4013      	ands	r3, r2
    2e7c:	81a3      	strh	r3, [r4, #12]
    2e7e:	0032      	movs	r2, r6
    2e80:	230e      	movs	r3, #14
    2e82:	5ee1      	ldrsh	r1, [r4, r3]
    2e84:	003b      	movs	r3, r7
    2e86:	f000 fa53 	bl	3330 <_write_r>
    2e8a:	bdf8      	pop	{r3, r4, r5, r6, r7, pc}
    2e8c:	ffffefff 	.word	0xffffefff

00002e90 <__sseek>:
    2e90:	b570      	push	{r4, r5, r6, lr}
    2e92:	000c      	movs	r4, r1
    2e94:	250e      	movs	r5, #14
    2e96:	5f49      	ldrsh	r1, [r1, r5]
    2e98:	f000 fb1c 	bl	34d4 <_lseek_r>
    2e9c:	89a3      	ldrh	r3, [r4, #12]
    2e9e:	1c42      	adds	r2, r0, #1
    2ea0:	d103      	bne.n	2eaa <__sseek+0x1a>
    2ea2:	4a05      	ldr	r2, [pc, #20]	; (2eb8 <__sseek+0x28>)
    2ea4:	4013      	ands	r3, r2
    2ea6:	81a3      	strh	r3, [r4, #12]
    2ea8:	bd70      	pop	{r4, r5, r6, pc}
    2eaa:	2280      	movs	r2, #128	; 0x80
    2eac:	0152      	lsls	r2, r2, #5
    2eae:	4313      	orrs	r3, r2
    2eb0:	81a3      	strh	r3, [r4, #12]
    2eb2:	6560      	str	r0, [r4, #84]	; 0x54
    2eb4:	e7f8      	b.n	2ea8 <__sseek+0x18>
    2eb6:	46c0      	nop			; (mov r8, r8)
    2eb8:	ffffefff 	.word	0xffffefff

00002ebc <__sclose>:
    2ebc:	b510      	push	{r4, lr}
    2ebe:	230e      	movs	r3, #14
    2ec0:	5ec9      	ldrsh	r1, [r1, r3]
    2ec2:	f000 fabf 	bl	3444 <_close_r>
    2ec6:	bd10      	pop	{r4, pc}

00002ec8 <_strtol_l.isra.0>:
    2ec8:	b5f0      	push	{r4, r5, r6, r7, lr}
    2eca:	001f      	movs	r7, r3
    2ecc:	000e      	movs	r6, r1
    2ece:	b087      	sub	sp, #28
    2ed0:	9005      	str	r0, [sp, #20]
    2ed2:	9103      	str	r1, [sp, #12]
    2ed4:	9202      	str	r2, [sp, #8]
    2ed6:	980c      	ldr	r0, [sp, #48]	; 0x30
    2ed8:	7834      	ldrb	r4, [r6, #0]
    2eda:	f000 fae9 	bl	34b0 <__locale_ctype_ptr_l>
    2ede:	2208      	movs	r2, #8
    2ee0:	1900      	adds	r0, r0, r4
    2ee2:	7843      	ldrb	r3, [r0, #1]
    2ee4:	1c75      	adds	r5, r6, #1
    2ee6:	4013      	ands	r3, r2
    2ee8:	d10c      	bne.n	2f04 <_strtol_l.isra.0+0x3c>
    2eea:	2c2d      	cmp	r4, #45	; 0x2d
    2eec:	d10c      	bne.n	2f08 <_strtol_l.isra.0+0x40>
    2eee:	3301      	adds	r3, #1
    2ef0:	782c      	ldrb	r4, [r5, #0]
    2ef2:	9301      	str	r3, [sp, #4]
    2ef4:	1cb5      	adds	r5, r6, #2
    2ef6:	2f00      	cmp	r7, #0
    2ef8:	d00c      	beq.n	2f14 <_strtol_l.isra.0+0x4c>
    2efa:	2f10      	cmp	r7, #16
    2efc:	d114      	bne.n	2f28 <_strtol_l.isra.0+0x60>
    2efe:	2c30      	cmp	r4, #48	; 0x30
    2f00:	d00a      	beq.n	2f18 <_strtol_l.isra.0+0x50>
    2f02:	e011      	b.n	2f28 <_strtol_l.isra.0+0x60>
    2f04:	002e      	movs	r6, r5
    2f06:	e7e6      	b.n	2ed6 <_strtol_l.isra.0+0xe>
    2f08:	9301      	str	r3, [sp, #4]
    2f0a:	2c2b      	cmp	r4, #43	; 0x2b
    2f0c:	d1f3      	bne.n	2ef6 <_strtol_l.isra.0+0x2e>
    2f0e:	782c      	ldrb	r4, [r5, #0]
    2f10:	1cb5      	adds	r5, r6, #2
    2f12:	e7f0      	b.n	2ef6 <_strtol_l.isra.0+0x2e>
    2f14:	2c30      	cmp	r4, #48	; 0x30
    2f16:	d12f      	bne.n	2f78 <_strtol_l.isra.0+0xb0>
    2f18:	2220      	movs	r2, #32
    2f1a:	782b      	ldrb	r3, [r5, #0]
    2f1c:	4393      	bics	r3, r2
    2f1e:	2b58      	cmp	r3, #88	; 0x58
    2f20:	d151      	bne.n	2fc6 <_strtol_l.isra.0+0xfe>
    2f22:	2710      	movs	r7, #16
    2f24:	786c      	ldrb	r4, [r5, #1]
    2f26:	3502      	adds	r5, #2
    2f28:	9b01      	ldr	r3, [sp, #4]
    2f2a:	4a29      	ldr	r2, [pc, #164]	; (2fd0 <_strtol_l.isra.0+0x108>)
    2f2c:	0039      	movs	r1, r7
    2f2e:	189e      	adds	r6, r3, r2
    2f30:	0030      	movs	r0, r6
    2f32:	f7fe fc9d 	bl	1870 <__aeabi_uidivmod>
    2f36:	0030      	movs	r0, r6
    2f38:	9104      	str	r1, [sp, #16]
    2f3a:	0039      	movs	r1, r7
    2f3c:	f7fe fc12 	bl	1764 <__udivsi3>
    2f40:	2101      	movs	r1, #1
    2f42:	2300      	movs	r3, #0
    2f44:	4249      	negs	r1, r1
    2f46:	0002      	movs	r2, r0
    2f48:	468c      	mov	ip, r1
    2f4a:	0018      	movs	r0, r3
    2f4c:	0021      	movs	r1, r4
    2f4e:	3930      	subs	r1, #48	; 0x30
    2f50:	2909      	cmp	r1, #9
    2f52:	d813      	bhi.n	2f7c <_strtol_l.isra.0+0xb4>
    2f54:	000c      	movs	r4, r1
    2f56:	42a7      	cmp	r7, r4
    2f58:	dd1c      	ble.n	2f94 <_strtol_l.isra.0+0xcc>
    2f5a:	1c59      	adds	r1, r3, #1
    2f5c:	d009      	beq.n	2f72 <_strtol_l.isra.0+0xaa>
    2f5e:	4663      	mov	r3, ip
    2f60:	4282      	cmp	r2, r0
    2f62:	d306      	bcc.n	2f72 <_strtol_l.isra.0+0xaa>
    2f64:	d102      	bne.n	2f6c <_strtol_l.isra.0+0xa4>
    2f66:	9904      	ldr	r1, [sp, #16]
    2f68:	42a1      	cmp	r1, r4
    2f6a:	db02      	blt.n	2f72 <_strtol_l.isra.0+0xaa>
    2f6c:	2301      	movs	r3, #1
    2f6e:	4378      	muls	r0, r7
    2f70:	1820      	adds	r0, r4, r0
    2f72:	782c      	ldrb	r4, [r5, #0]
    2f74:	3501      	adds	r5, #1
    2f76:	e7e9      	b.n	2f4c <_strtol_l.isra.0+0x84>
    2f78:	270a      	movs	r7, #10
    2f7a:	e7d5      	b.n	2f28 <_strtol_l.isra.0+0x60>
    2f7c:	0021      	movs	r1, r4
    2f7e:	3941      	subs	r1, #65	; 0x41
    2f80:	2919      	cmp	r1, #25
    2f82:	d801      	bhi.n	2f88 <_strtol_l.isra.0+0xc0>
    2f84:	3c37      	subs	r4, #55	; 0x37
    2f86:	e7e6      	b.n	2f56 <_strtol_l.isra.0+0x8e>
    2f88:	0021      	movs	r1, r4
    2f8a:	3961      	subs	r1, #97	; 0x61
    2f8c:	2919      	cmp	r1, #25
    2f8e:	d801      	bhi.n	2f94 <_strtol_l.isra.0+0xcc>
    2f90:	3c57      	subs	r4, #87	; 0x57
    2f92:	e7e0      	b.n	2f56 <_strtol_l.isra.0+0x8e>
    2f94:	1c5a      	adds	r2, r3, #1
    2f96:	d108      	bne.n	2faa <_strtol_l.isra.0+0xe2>
    2f98:	9a05      	ldr	r2, [sp, #20]
    2f9a:	3323      	adds	r3, #35	; 0x23
    2f9c:	6013      	str	r3, [r2, #0]
    2f9e:	9b02      	ldr	r3, [sp, #8]
    2fa0:	0030      	movs	r0, r6
    2fa2:	2b00      	cmp	r3, #0
    2fa4:	d10b      	bne.n	2fbe <_strtol_l.isra.0+0xf6>
    2fa6:	b007      	add	sp, #28
    2fa8:	bdf0      	pop	{r4, r5, r6, r7, pc}
    2faa:	9a01      	ldr	r2, [sp, #4]
    2fac:	2a00      	cmp	r2, #0
    2fae:	d000      	beq.n	2fb2 <_strtol_l.isra.0+0xea>
    2fb0:	4240      	negs	r0, r0
    2fb2:	9a02      	ldr	r2, [sp, #8]
    2fb4:	2a00      	cmp	r2, #0
    2fb6:	d0f6      	beq.n	2fa6 <_strtol_l.isra.0+0xde>
    2fb8:	9a03      	ldr	r2, [sp, #12]
    2fba:	2b00      	cmp	r3, #0
    2fbc:	d000      	beq.n	2fc0 <_strtol_l.isra.0+0xf8>
    2fbe:	1e6a      	subs	r2, r5, #1
    2fc0:	9b02      	ldr	r3, [sp, #8]
    2fc2:	601a      	str	r2, [r3, #0]
    2fc4:	e7ef      	b.n	2fa6 <_strtol_l.isra.0+0xde>
    2fc6:	2430      	movs	r4, #48	; 0x30
    2fc8:	2f00      	cmp	r7, #0
    2fca:	d1ad      	bne.n	2f28 <_strtol_l.isra.0+0x60>
    2fcc:	3708      	adds	r7, #8
    2fce:	e7ab      	b.n	2f28 <_strtol_l.isra.0+0x60>
    2fd0:	7fffffff 	.word	0x7fffffff

00002fd4 <_strtol_r>:
    2fd4:	b513      	push	{r0, r1, r4, lr}
    2fd6:	4c05      	ldr	r4, [pc, #20]	; (2fec <_strtol_r+0x18>)
    2fd8:	6824      	ldr	r4, [r4, #0]
    2fda:	6a24      	ldr	r4, [r4, #32]
    2fdc:	2c00      	cmp	r4, #0
    2fde:	d100      	bne.n	2fe2 <_strtol_r+0xe>
    2fe0:	4c03      	ldr	r4, [pc, #12]	; (2ff0 <_strtol_r+0x1c>)
    2fe2:	9400      	str	r4, [sp, #0]
    2fe4:	f7ff ff70 	bl	2ec8 <_strtol_l.isra.0>
    2fe8:	bd16      	pop	{r1, r2, r4, pc}
    2fea:	46c0      	nop			; (mov r8, r8)
    2fec:	20000004 	.word	0x20000004
    2ff0:	20000068 	.word	0x20000068

00002ff4 <_strtoul_l.isra.0>:
    2ff4:	b5f0      	push	{r4, r5, r6, r7, lr}
    2ff6:	001f      	movs	r7, r3
    2ff8:	000e      	movs	r6, r1
    2ffa:	b087      	sub	sp, #28
    2ffc:	9005      	str	r0, [sp, #20]
    2ffe:	9103      	str	r1, [sp, #12]
    3000:	9201      	str	r2, [sp, #4]
    3002:	980c      	ldr	r0, [sp, #48]	; 0x30
    3004:	7834      	ldrb	r4, [r6, #0]
    3006:	f000 fa53 	bl	34b0 <__locale_ctype_ptr_l>
    300a:	2208      	movs	r2, #8
    300c:	1900      	adds	r0, r0, r4
    300e:	7843      	ldrb	r3, [r0, #1]
    3010:	1c75      	adds	r5, r6, #1
    3012:	4013      	ands	r3, r2
    3014:	d10c      	bne.n	3030 <_strtoul_l.isra.0+0x3c>
    3016:	2c2d      	cmp	r4, #45	; 0x2d
    3018:	d10c      	bne.n	3034 <_strtoul_l.isra.0+0x40>
    301a:	3301      	adds	r3, #1
    301c:	782c      	ldrb	r4, [r5, #0]
    301e:	9302      	str	r3, [sp, #8]
    3020:	1cb5      	adds	r5, r6, #2
    3022:	2f00      	cmp	r7, #0
    3024:	d00c      	beq.n	3040 <_strtoul_l.isra.0+0x4c>
    3026:	2f10      	cmp	r7, #16
    3028:	d114      	bne.n	3054 <_strtoul_l.isra.0+0x60>
    302a:	2c30      	cmp	r4, #48	; 0x30
    302c:	d00a      	beq.n	3044 <_strtoul_l.isra.0+0x50>
    302e:	e011      	b.n	3054 <_strtoul_l.isra.0+0x60>
    3030:	002e      	movs	r6, r5
    3032:	e7e6      	b.n	3002 <_strtoul_l.isra.0+0xe>
    3034:	9302      	str	r3, [sp, #8]
    3036:	2c2b      	cmp	r4, #43	; 0x2b
    3038:	d1f3      	bne.n	3022 <_strtoul_l.isra.0+0x2e>
    303a:	782c      	ldrb	r4, [r5, #0]
    303c:	1cb5      	adds	r5, r6, #2
    303e:	e7f0      	b.n	3022 <_strtoul_l.isra.0+0x2e>
    3040:	2c30      	cmp	r4, #48	; 0x30
    3042:	d12f      	bne.n	30a4 <_strtoul_l.isra.0+0xb0>
    3044:	2220      	movs	r2, #32
    3046:	782b      	ldrb	r3, [r5, #0]
    3048:	4393      	bics	r3, r2
    304a:	2b58      	cmp	r3, #88	; 0x58
    304c:	d154      	bne.n	30f8 <_strtoul_l.isra.0+0x104>
    304e:	2710      	movs	r7, #16
    3050:	786c      	ldrb	r4, [r5, #1]
    3052:	3502      	adds	r5, #2
    3054:	2001      	movs	r0, #1
    3056:	0039      	movs	r1, r7
    3058:	4240      	negs	r0, r0
    305a:	f7fe fb83 	bl	1764 <__udivsi3>
    305e:	0006      	movs	r6, r0
    3060:	2001      	movs	r0, #1
    3062:	0039      	movs	r1, r7
    3064:	4240      	negs	r0, r0
    3066:	f7fe fc03 	bl	1870 <__aeabi_uidivmod>
    306a:	2300      	movs	r3, #0
    306c:	9104      	str	r1, [sp, #16]
    306e:	2101      	movs	r1, #1
    3070:	2201      	movs	r2, #1
    3072:	0018      	movs	r0, r3
    3074:	468c      	mov	ip, r1
    3076:	4252      	negs	r2, r2
    3078:	0021      	movs	r1, r4
    307a:	3930      	subs	r1, #48	; 0x30
    307c:	2909      	cmp	r1, #9
    307e:	d813      	bhi.n	30a8 <_strtoul_l.isra.0+0xb4>
    3080:	000c      	movs	r4, r1
    3082:	42a7      	cmp	r7, r4
    3084:	dd1e      	ble.n	30c4 <_strtoul_l.isra.0+0xd0>
    3086:	2b00      	cmp	r3, #0
    3088:	db1a      	blt.n	30c0 <_strtoul_l.isra.0+0xcc>
    308a:	0013      	movs	r3, r2
    308c:	4286      	cmp	r6, r0
    308e:	d306      	bcc.n	309e <_strtoul_l.isra.0+0xaa>
    3090:	d102      	bne.n	3098 <_strtoul_l.isra.0+0xa4>
    3092:	9904      	ldr	r1, [sp, #16]
    3094:	42a1      	cmp	r1, r4
    3096:	db02      	blt.n	309e <_strtoul_l.isra.0+0xaa>
    3098:	4663      	mov	r3, ip
    309a:	4378      	muls	r0, r7
    309c:	1820      	adds	r0, r4, r0
    309e:	782c      	ldrb	r4, [r5, #0]
    30a0:	3501      	adds	r5, #1
    30a2:	e7e9      	b.n	3078 <_strtoul_l.isra.0+0x84>
    30a4:	270a      	movs	r7, #10
    30a6:	e7d5      	b.n	3054 <_strtoul_l.isra.0+0x60>
    30a8:	0021      	movs	r1, r4
    30aa:	3941      	subs	r1, #65	; 0x41
    30ac:	2919      	cmp	r1, #25
    30ae:	d801      	bhi.n	30b4 <_strtoul_l.isra.0+0xc0>
    30b0:	3c37      	subs	r4, #55	; 0x37
    30b2:	e7e6      	b.n	3082 <_strtoul_l.isra.0+0x8e>
    30b4:	0021      	movs	r1, r4
    30b6:	3961      	subs	r1, #97	; 0x61
    30b8:	2919      	cmp	r1, #25
    30ba:	d803      	bhi.n	30c4 <_strtoul_l.isra.0+0xd0>
    30bc:	3c57      	subs	r4, #87	; 0x57
    30be:	e7e0      	b.n	3082 <_strtoul_l.isra.0+0x8e>
    30c0:	0013      	movs	r3, r2
    30c2:	e7ec      	b.n	309e <_strtoul_l.isra.0+0xaa>
    30c4:	2b00      	cmp	r3, #0
    30c6:	da09      	bge.n	30dc <_strtoul_l.isra.0+0xe8>
    30c8:	2322      	movs	r3, #34	; 0x22
    30ca:	2001      	movs	r0, #1
    30cc:	9a05      	ldr	r2, [sp, #20]
    30ce:	4240      	negs	r0, r0
    30d0:	6013      	str	r3, [r2, #0]
    30d2:	9b01      	ldr	r3, [sp, #4]
    30d4:	2b00      	cmp	r3, #0
    30d6:	d10b      	bne.n	30f0 <_strtoul_l.isra.0+0xfc>
    30d8:	b007      	add	sp, #28
    30da:	bdf0      	pop	{r4, r5, r6, r7, pc}
    30dc:	9a02      	ldr	r2, [sp, #8]
    30de:	2a00      	cmp	r2, #0
    30e0:	d000      	beq.n	30e4 <_strtoul_l.isra.0+0xf0>
    30e2:	4240      	negs	r0, r0
    30e4:	9a01      	ldr	r2, [sp, #4]
    30e6:	2a00      	cmp	r2, #0
    30e8:	d0f6      	beq.n	30d8 <_strtoul_l.isra.0+0xe4>
    30ea:	9a03      	ldr	r2, [sp, #12]
    30ec:	2b00      	cmp	r3, #0
    30ee:	d000      	beq.n	30f2 <_strtoul_l.isra.0+0xfe>
    30f0:	1e6a      	subs	r2, r5, #1
    30f2:	9b01      	ldr	r3, [sp, #4]
    30f4:	601a      	str	r2, [r3, #0]
    30f6:	e7ef      	b.n	30d8 <_strtoul_l.isra.0+0xe4>
    30f8:	2430      	movs	r4, #48	; 0x30
    30fa:	2f00      	cmp	r7, #0
    30fc:	d1aa      	bne.n	3054 <_strtoul_l.isra.0+0x60>
    30fe:	3708      	adds	r7, #8
    3100:	e7a8      	b.n	3054 <_strtoul_l.isra.0+0x60>
	...

00003104 <_strtoul_r>:
    3104:	b513      	push	{r0, r1, r4, lr}
    3106:	4c05      	ldr	r4, [pc, #20]	; (311c <_strtoul_r+0x18>)
    3108:	6824      	ldr	r4, [r4, #0]
    310a:	6a24      	ldr	r4, [r4, #32]
    310c:	2c00      	cmp	r4, #0
    310e:	d100      	bne.n	3112 <_strtoul_r+0xe>
    3110:	4c03      	ldr	r4, [pc, #12]	; (3120 <_strtoul_r+0x1c>)
    3112:	9400      	str	r4, [sp, #0]
    3114:	f7ff ff6e 	bl	2ff4 <_strtoul_l.isra.0>
    3118:	bd16      	pop	{r1, r2, r4, pc}
    311a:	46c0      	nop			; (mov r8, r8)
    311c:	20000004 	.word	0x20000004
    3120:	20000068 	.word	0x20000068

00003124 <__submore>:
    3124:	000b      	movs	r3, r1
    3126:	b5f7      	push	{r0, r1, r2, r4, r5, r6, r7, lr}
    3128:	6b4d      	ldr	r5, [r1, #52]	; 0x34
    312a:	3344      	adds	r3, #68	; 0x44
    312c:	000c      	movs	r4, r1
    312e:	429d      	cmp	r5, r3
    3130:	d11c      	bne.n	316c <__submore+0x48>
    3132:	2680      	movs	r6, #128	; 0x80
    3134:	00f6      	lsls	r6, r6, #3
    3136:	0031      	movs	r1, r6
    3138:	f7fe ff5e 	bl	1ff8 <_malloc_r>
    313c:	2800      	cmp	r0, #0
    313e:	d102      	bne.n	3146 <__submore+0x22>
    3140:	2001      	movs	r0, #1
    3142:	4240      	negs	r0, r0
    3144:	bdfe      	pop	{r1, r2, r3, r4, r5, r6, r7, pc}
    3146:	0023      	movs	r3, r4
    3148:	6360      	str	r0, [r4, #52]	; 0x34
    314a:	63a6      	str	r6, [r4, #56]	; 0x38
    314c:	3346      	adds	r3, #70	; 0x46
    314e:	781a      	ldrb	r2, [r3, #0]
    3150:	4b10      	ldr	r3, [pc, #64]	; (3194 <__submore+0x70>)
    3152:	54c2      	strb	r2, [r0, r3]
    3154:	0023      	movs	r3, r4
    3156:	3345      	adds	r3, #69	; 0x45
    3158:	781a      	ldrb	r2, [r3, #0]
    315a:	4b0f      	ldr	r3, [pc, #60]	; (3198 <__submore+0x74>)
    315c:	54c2      	strb	r2, [r0, r3]
    315e:	782a      	ldrb	r2, [r5, #0]
    3160:	4b0e      	ldr	r3, [pc, #56]	; (319c <__submore+0x78>)
    3162:	54c2      	strb	r2, [r0, r3]
    3164:	18c0      	adds	r0, r0, r3
    3166:	6020      	str	r0, [r4, #0]
    3168:	2000      	movs	r0, #0
    316a:	e7eb      	b.n	3144 <__submore+0x20>
    316c:	6b8e      	ldr	r6, [r1, #56]	; 0x38
    316e:	0029      	movs	r1, r5
    3170:	0073      	lsls	r3, r6, #1
    3172:	001a      	movs	r2, r3
    3174:	9301      	str	r3, [sp, #4]
    3176:	f000 f9e9 	bl	354c <_realloc_r>
    317a:	1e05      	subs	r5, r0, #0
    317c:	d0e0      	beq.n	3140 <__submore+0x1c>
    317e:	1987      	adds	r7, r0, r6
    3180:	0001      	movs	r1, r0
    3182:	0032      	movs	r2, r6
    3184:	0038      	movs	r0, r7
    3186:	f000 f9d6 	bl	3536 <memcpy>
    318a:	9b01      	ldr	r3, [sp, #4]
    318c:	6027      	str	r7, [r4, #0]
    318e:	6365      	str	r5, [r4, #52]	; 0x34
    3190:	63a3      	str	r3, [r4, #56]	; 0x38
    3192:	e7e9      	b.n	3168 <__submore+0x44>
    3194:	000003ff 	.word	0x000003ff
    3198:	000003fe 	.word	0x000003fe
    319c:	000003fd 	.word	0x000003fd

000031a0 <_ungetc_r>:
    31a0:	b5f8      	push	{r3, r4, r5, r6, r7, lr}
    31a2:	0005      	movs	r5, r0
    31a4:	000e      	movs	r6, r1
    31a6:	0014      	movs	r4, r2
    31a8:	1c4b      	adds	r3, r1, #1
    31aa:	d103      	bne.n	31b4 <_ungetc_r+0x14>
    31ac:	2601      	movs	r6, #1
    31ae:	4276      	negs	r6, r6
    31b0:	0030      	movs	r0, r6
    31b2:	bdf8      	pop	{r3, r4, r5, r6, r7, pc}
    31b4:	2800      	cmp	r0, #0
    31b6:	d004      	beq.n	31c2 <_ungetc_r+0x22>
    31b8:	6983      	ldr	r3, [r0, #24]
    31ba:	2b00      	cmp	r3, #0
    31bc:	d101      	bne.n	31c2 <_ungetc_r+0x22>
    31be:	f7fe fda9 	bl	1d14 <__sinit>
    31c2:	4b2d      	ldr	r3, [pc, #180]	; (3278 <_ungetc_r+0xd8>)
    31c4:	429c      	cmp	r4, r3
    31c6:	d12d      	bne.n	3224 <_ungetc_r+0x84>
    31c8:	686c      	ldr	r4, [r5, #4]
    31ca:	2220      	movs	r2, #32
    31cc:	89a3      	ldrh	r3, [r4, #12]
    31ce:	4393      	bics	r3, r2
    31d0:	b21b      	sxth	r3, r3
    31d2:	81a3      	strh	r3, [r4, #12]
    31d4:	b29b      	uxth	r3, r3
    31d6:	075a      	lsls	r2, r3, #29
    31d8:	d413      	bmi.n	3202 <_ungetc_r+0x62>
    31da:	06da      	lsls	r2, r3, #27
    31dc:	d5e6      	bpl.n	31ac <_ungetc_r+0xc>
    31de:	2708      	movs	r7, #8
    31e0:	423b      	tst	r3, r7
    31e2:	d00a      	beq.n	31fa <_ungetc_r+0x5a>
    31e4:	0021      	movs	r1, r4
    31e6:	0028      	movs	r0, r5
    31e8:	f7fe fd12 	bl	1c10 <_fflush_r>
    31ec:	2800      	cmp	r0, #0
    31ee:	d1dd      	bne.n	31ac <_ungetc_r+0xc>
    31f0:	89a3      	ldrh	r3, [r4, #12]
    31f2:	60a0      	str	r0, [r4, #8]
    31f4:	43bb      	bics	r3, r7
    31f6:	81a3      	strh	r3, [r4, #12]
    31f8:	61a0      	str	r0, [r4, #24]
    31fa:	2304      	movs	r3, #4
    31fc:	89a2      	ldrh	r2, [r4, #12]
    31fe:	4313      	orrs	r3, r2
    3200:	81a3      	strh	r3, [r4, #12]
    3202:	6b62      	ldr	r2, [r4, #52]	; 0x34
    3204:	b2f7      	uxtb	r7, r6
    3206:	6863      	ldr	r3, [r4, #4]
    3208:	b2f6      	uxtb	r6, r6
    320a:	2a00      	cmp	r2, #0
    320c:	d01b      	beq.n	3246 <_ungetc_r+0xa6>
    320e:	6ba2      	ldr	r2, [r4, #56]	; 0x38
    3210:	4293      	cmp	r3, r2
    3212:	da11      	bge.n	3238 <_ungetc_r+0x98>
    3214:	6823      	ldr	r3, [r4, #0]
    3216:	3b01      	subs	r3, #1
    3218:	6023      	str	r3, [r4, #0]
    321a:	701f      	strb	r7, [r3, #0]
    321c:	6863      	ldr	r3, [r4, #4]
    321e:	3301      	adds	r3, #1
    3220:	6063      	str	r3, [r4, #4]
    3222:	e7c5      	b.n	31b0 <_ungetc_r+0x10>
    3224:	4b15      	ldr	r3, [pc, #84]	; (327c <_ungetc_r+0xdc>)
    3226:	429c      	cmp	r4, r3
    3228:	d101      	bne.n	322e <_ungetc_r+0x8e>
    322a:	68ac      	ldr	r4, [r5, #8]
    322c:	e7cd      	b.n	31ca <_ungetc_r+0x2a>
    322e:	4b14      	ldr	r3, [pc, #80]	; (3280 <_ungetc_r+0xe0>)
    3230:	429c      	cmp	r4, r3
    3232:	d1ca      	bne.n	31ca <_ungetc_r+0x2a>
    3234:	68ec      	ldr	r4, [r5, #12]
    3236:	e7c8      	b.n	31ca <_ungetc_r+0x2a>
    3238:	0021      	movs	r1, r4
    323a:	0028      	movs	r0, r5
    323c:	f7ff ff72 	bl	3124 <__submore>
    3240:	2800      	cmp	r0, #0
    3242:	d0e7      	beq.n	3214 <_ungetc_r+0x74>
    3244:	e7b2      	b.n	31ac <_ungetc_r+0xc>
    3246:	6921      	ldr	r1, [r4, #16]
    3248:	6822      	ldr	r2, [r4, #0]
    324a:	2900      	cmp	r1, #0
    324c:	d007      	beq.n	325e <_ungetc_r+0xbe>
    324e:	4291      	cmp	r1, r2
    3250:	d205      	bcs.n	325e <_ungetc_r+0xbe>
    3252:	1e51      	subs	r1, r2, #1
    3254:	7808      	ldrb	r0, [r1, #0]
    3256:	4286      	cmp	r6, r0
    3258:	d101      	bne.n	325e <_ungetc_r+0xbe>
    325a:	6021      	str	r1, [r4, #0]
    325c:	e7df      	b.n	321e <_ungetc_r+0x7e>
    325e:	6423      	str	r3, [r4, #64]	; 0x40
    3260:	0023      	movs	r3, r4
    3262:	3344      	adds	r3, #68	; 0x44
    3264:	6363      	str	r3, [r4, #52]	; 0x34
    3266:	2303      	movs	r3, #3
    3268:	63a3      	str	r3, [r4, #56]	; 0x38
    326a:	0023      	movs	r3, r4
    326c:	3346      	adds	r3, #70	; 0x46
    326e:	63e2      	str	r2, [r4, #60]	; 0x3c
    3270:	701f      	strb	r7, [r3, #0]
    3272:	6023      	str	r3, [r4, #0]
    3274:	2301      	movs	r3, #1
    3276:	e7d3      	b.n	3220 <_ungetc_r+0x80>
    3278:	00003698 	.word	0x00003698
    327c:	000036b8 	.word	0x000036b8
    3280:	00003678 	.word	0x00003678

00003284 <__swbuf_r>:
    3284:	b5f8      	push	{r3, r4, r5, r6, r7, lr}
    3286:	0005      	movs	r5, r0
    3288:	000e      	movs	r6, r1
    328a:	0014      	movs	r4, r2
    328c:	2800      	cmp	r0, #0
    328e:	d004      	beq.n	329a <__swbuf_r+0x16>
    3290:	6983      	ldr	r3, [r0, #24]
    3292:	2b00      	cmp	r3, #0
    3294:	d101      	bne.n	329a <__swbuf_r+0x16>
    3296:	f7fe fd3d 	bl	1d14 <__sinit>
    329a:	4b22      	ldr	r3, [pc, #136]	; (3324 <__swbuf_r+0xa0>)
    329c:	429c      	cmp	r4, r3
    329e:	d12d      	bne.n	32fc <__swbuf_r+0x78>
    32a0:	686c      	ldr	r4, [r5, #4]
    32a2:	69a3      	ldr	r3, [r4, #24]
    32a4:	60a3      	str	r3, [r4, #8]
    32a6:	89a3      	ldrh	r3, [r4, #12]
    32a8:	071b      	lsls	r3, r3, #28
    32aa:	d531      	bpl.n	3310 <__swbuf_r+0x8c>
    32ac:	6923      	ldr	r3, [r4, #16]
    32ae:	2b00      	cmp	r3, #0
    32b0:	d02e      	beq.n	3310 <__swbuf_r+0x8c>
    32b2:	6823      	ldr	r3, [r4, #0]
    32b4:	6922      	ldr	r2, [r4, #16]
    32b6:	b2f7      	uxtb	r7, r6
    32b8:	1a98      	subs	r0, r3, r2
    32ba:	6963      	ldr	r3, [r4, #20]
    32bc:	b2f6      	uxtb	r6, r6
    32be:	4298      	cmp	r0, r3
    32c0:	db05      	blt.n	32ce <__swbuf_r+0x4a>
    32c2:	0021      	movs	r1, r4
    32c4:	0028      	movs	r0, r5
    32c6:	f7fe fca3 	bl	1c10 <_fflush_r>
    32ca:	2800      	cmp	r0, #0
    32cc:	d126      	bne.n	331c <__swbuf_r+0x98>
    32ce:	68a3      	ldr	r3, [r4, #8]
    32d0:	3001      	adds	r0, #1
    32d2:	3b01      	subs	r3, #1
    32d4:	60a3      	str	r3, [r4, #8]
    32d6:	6823      	ldr	r3, [r4, #0]
    32d8:	1c5a      	adds	r2, r3, #1
    32da:	6022      	str	r2, [r4, #0]
    32dc:	701f      	strb	r7, [r3, #0]
    32de:	6963      	ldr	r3, [r4, #20]
    32e0:	4298      	cmp	r0, r3
    32e2:	d004      	beq.n	32ee <__swbuf_r+0x6a>
    32e4:	89a3      	ldrh	r3, [r4, #12]
    32e6:	07db      	lsls	r3, r3, #31
    32e8:	d51a      	bpl.n	3320 <__swbuf_r+0x9c>
    32ea:	2e0a      	cmp	r6, #10
    32ec:	d118      	bne.n	3320 <__swbuf_r+0x9c>
    32ee:	0021      	movs	r1, r4
    32f0:	0028      	movs	r0, r5
    32f2:	f7fe fc8d 	bl	1c10 <_fflush_r>
    32f6:	2800      	cmp	r0, #0
    32f8:	d012      	beq.n	3320 <__swbuf_r+0x9c>
    32fa:	e00f      	b.n	331c <__swbuf_r+0x98>
    32fc:	4b0a      	ldr	r3, [pc, #40]	; (3328 <__swbuf_r+0xa4>)
    32fe:	429c      	cmp	r4, r3
    3300:	d101      	bne.n	3306 <__swbuf_r+0x82>
    3302:	68ac      	ldr	r4, [r5, #8]
    3304:	e7cd      	b.n	32a2 <__swbuf_r+0x1e>
    3306:	4b09      	ldr	r3, [pc, #36]	; (332c <__swbuf_r+0xa8>)
    3308:	429c      	cmp	r4, r3
    330a:	d1ca      	bne.n	32a2 <__swbuf_r+0x1e>
    330c:	68ec      	ldr	r4, [r5, #12]
    330e:	e7c8      	b.n	32a2 <__swbuf_r+0x1e>
    3310:	0021      	movs	r1, r4
    3312:	0028      	movs	r0, r5
    3314:	f000 f820 	bl	3358 <__swsetup_r>
    3318:	2800      	cmp	r0, #0
    331a:	d0ca      	beq.n	32b2 <__swbuf_r+0x2e>
    331c:	2601      	movs	r6, #1
    331e:	4276      	negs	r6, r6
    3320:	0030      	movs	r0, r6
    3322:	bdf8      	pop	{r3, r4, r5, r6, r7, pc}
    3324:	00003698 	.word	0x00003698
    3328:	000036b8 	.word	0x000036b8
    332c:	00003678 	.word	0x00003678

00003330 <_write_r>:
    3330:	b570      	push	{r4, r5, r6, lr}
    3332:	0005      	movs	r5, r0
    3334:	0008      	movs	r0, r1
    3336:	0011      	movs	r1, r2
    3338:	2200      	movs	r2, #0
    333a:	4c06      	ldr	r4, [pc, #24]	; (3354 <_write_r+0x24>)
    333c:	6022      	str	r2, [r4, #0]
    333e:	001a      	movs	r2, r3
    3340:	f7fd f8c4 	bl	4cc <_write>
    3344:	1c43      	adds	r3, r0, #1
    3346:	d103      	bne.n	3350 <_write_r+0x20>
    3348:	6823      	ldr	r3, [r4, #0]
    334a:	2b00      	cmp	r3, #0
    334c:	d000      	beq.n	3350 <_write_r+0x20>
    334e:	602b      	str	r3, [r5, #0]
    3350:	bd70      	pop	{r4, r5, r6, pc}
    3352:	46c0      	nop			; (mov r8, r8)
    3354:	20000298 	.word	0x20000298

00003358 <__swsetup_r>:
    3358:	4b36      	ldr	r3, [pc, #216]	; (3434 <__swsetup_r+0xdc>)
    335a:	b570      	push	{r4, r5, r6, lr}
    335c:	681d      	ldr	r5, [r3, #0]
    335e:	0006      	movs	r6, r0
    3360:	000c      	movs	r4, r1
    3362:	2d00      	cmp	r5, #0
    3364:	d005      	beq.n	3372 <__swsetup_r+0x1a>
    3366:	69ab      	ldr	r3, [r5, #24]
    3368:	2b00      	cmp	r3, #0
    336a:	d102      	bne.n	3372 <__swsetup_r+0x1a>
    336c:	0028      	movs	r0, r5
    336e:	f7fe fcd1 	bl	1d14 <__sinit>
    3372:	4b31      	ldr	r3, [pc, #196]	; (3438 <__swsetup_r+0xe0>)
    3374:	429c      	cmp	r4, r3
    3376:	d10f      	bne.n	3398 <__swsetup_r+0x40>
    3378:	686c      	ldr	r4, [r5, #4]
    337a:	230c      	movs	r3, #12
    337c:	5ee2      	ldrsh	r2, [r4, r3]
    337e:	b293      	uxth	r3, r2
    3380:	0719      	lsls	r1, r3, #28
    3382:	d42d      	bmi.n	33e0 <__swsetup_r+0x88>
    3384:	06d9      	lsls	r1, r3, #27
    3386:	d411      	bmi.n	33ac <__swsetup_r+0x54>
    3388:	2309      	movs	r3, #9
    338a:	2001      	movs	r0, #1
    338c:	6033      	str	r3, [r6, #0]
    338e:	3337      	adds	r3, #55	; 0x37
    3390:	4313      	orrs	r3, r2
    3392:	81a3      	strh	r3, [r4, #12]
    3394:	4240      	negs	r0, r0
    3396:	bd70      	pop	{r4, r5, r6, pc}
    3398:	4b28      	ldr	r3, [pc, #160]	; (343c <__swsetup_r+0xe4>)
    339a:	429c      	cmp	r4, r3
    339c:	d101      	bne.n	33a2 <__swsetup_r+0x4a>
    339e:	68ac      	ldr	r4, [r5, #8]
    33a0:	e7eb      	b.n	337a <__swsetup_r+0x22>
    33a2:	4b27      	ldr	r3, [pc, #156]	; (3440 <__swsetup_r+0xe8>)
    33a4:	429c      	cmp	r4, r3
    33a6:	d1e8      	bne.n	337a <__swsetup_r+0x22>
    33a8:	68ec      	ldr	r4, [r5, #12]
    33aa:	e7e6      	b.n	337a <__swsetup_r+0x22>
    33ac:	075b      	lsls	r3, r3, #29
    33ae:	d513      	bpl.n	33d8 <__swsetup_r+0x80>
    33b0:	6b61      	ldr	r1, [r4, #52]	; 0x34
    33b2:	2900      	cmp	r1, #0
    33b4:	d008      	beq.n	33c8 <__swsetup_r+0x70>
    33b6:	0023      	movs	r3, r4
    33b8:	3344      	adds	r3, #68	; 0x44
    33ba:	4299      	cmp	r1, r3
    33bc:	d002      	beq.n	33c4 <__swsetup_r+0x6c>
    33be:	0030      	movs	r0, r6
    33c0:	f7fe fdd0 	bl	1f64 <_free_r>
    33c4:	2300      	movs	r3, #0
    33c6:	6363      	str	r3, [r4, #52]	; 0x34
    33c8:	2224      	movs	r2, #36	; 0x24
    33ca:	89a3      	ldrh	r3, [r4, #12]
    33cc:	4393      	bics	r3, r2
    33ce:	81a3      	strh	r3, [r4, #12]
    33d0:	2300      	movs	r3, #0
    33d2:	6063      	str	r3, [r4, #4]
    33d4:	6923      	ldr	r3, [r4, #16]
    33d6:	6023      	str	r3, [r4, #0]
    33d8:	2308      	movs	r3, #8
    33da:	89a2      	ldrh	r2, [r4, #12]
    33dc:	4313      	orrs	r3, r2
    33de:	81a3      	strh	r3, [r4, #12]
    33e0:	6923      	ldr	r3, [r4, #16]
    33e2:	2b00      	cmp	r3, #0
    33e4:	d10b      	bne.n	33fe <__swsetup_r+0xa6>
    33e6:	21a0      	movs	r1, #160	; 0xa0
    33e8:	2280      	movs	r2, #128	; 0x80
    33ea:	89a3      	ldrh	r3, [r4, #12]
    33ec:	0089      	lsls	r1, r1, #2
    33ee:	0092      	lsls	r2, r2, #2
    33f0:	400b      	ands	r3, r1
    33f2:	4293      	cmp	r3, r2
    33f4:	d003      	beq.n	33fe <__swsetup_r+0xa6>
    33f6:	0021      	movs	r1, r4
    33f8:	0030      	movs	r0, r6
    33fa:	f7fe fd65 	bl	1ec8 <__smakebuf_r>
    33fe:	2301      	movs	r3, #1
    3400:	89a2      	ldrh	r2, [r4, #12]
    3402:	4013      	ands	r3, r2
    3404:	d011      	beq.n	342a <__swsetup_r+0xd2>
    3406:	2300      	movs	r3, #0
    3408:	60a3      	str	r3, [r4, #8]
    340a:	6963      	ldr	r3, [r4, #20]
    340c:	425b      	negs	r3, r3
    340e:	61a3      	str	r3, [r4, #24]
    3410:	2000      	movs	r0, #0
    3412:	6923      	ldr	r3, [r4, #16]
    3414:	4283      	cmp	r3, r0
    3416:	d1be      	bne.n	3396 <__swsetup_r+0x3e>
    3418:	230c      	movs	r3, #12
    341a:	5ee2      	ldrsh	r2, [r4, r3]
    341c:	0613      	lsls	r3, r2, #24
    341e:	d5ba      	bpl.n	3396 <__swsetup_r+0x3e>
    3420:	2340      	movs	r3, #64	; 0x40
    3422:	4313      	orrs	r3, r2
    3424:	81a3      	strh	r3, [r4, #12]
    3426:	3801      	subs	r0, #1
    3428:	e7b5      	b.n	3396 <__swsetup_r+0x3e>
    342a:	0792      	lsls	r2, r2, #30
    342c:	d400      	bmi.n	3430 <__swsetup_r+0xd8>
    342e:	6963      	ldr	r3, [r4, #20]
    3430:	60a3      	str	r3, [r4, #8]
    3432:	e7ed      	b.n	3410 <__swsetup_r+0xb8>
    3434:	20000004 	.word	0x20000004
    3438:	00003698 	.word	0x00003698
    343c:	000036b8 	.word	0x000036b8
    3440:	00003678 	.word	0x00003678

00003444 <_close_r>:
    3444:	2300      	movs	r3, #0
    3446:	b570      	push	{r4, r5, r6, lr}
    3448:	4c06      	ldr	r4, [pc, #24]	; (3464 <_close_r+0x20>)
    344a:	0005      	movs	r5, r0
    344c:	0008      	movs	r0, r1
    344e:	6023      	str	r3, [r4, #0]
    3450:	f7fe f87a 	bl	1548 <_close>
    3454:	1c43      	adds	r3, r0, #1
    3456:	d103      	bne.n	3460 <_close_r+0x1c>
    3458:	6823      	ldr	r3, [r4, #0]
    345a:	2b00      	cmp	r3, #0
    345c:	d000      	beq.n	3460 <_close_r+0x1c>
    345e:	602b      	str	r3, [r5, #0]
    3460:	bd70      	pop	{r4, r5, r6, pc}
    3462:	46c0      	nop			; (mov r8, r8)
    3464:	20000298 	.word	0x20000298

00003468 <_fstat_r>:
    3468:	2300      	movs	r3, #0
    346a:	b570      	push	{r4, r5, r6, lr}
    346c:	4c06      	ldr	r4, [pc, #24]	; (3488 <_fstat_r+0x20>)
    346e:	0005      	movs	r5, r0
    3470:	0008      	movs	r0, r1
    3472:	0011      	movs	r1, r2
    3474:	6023      	str	r3, [r4, #0]
    3476:	f7fe f86a 	bl	154e <_fstat>
    347a:	1c43      	adds	r3, r0, #1
    347c:	d103      	bne.n	3486 <_fstat_r+0x1e>
    347e:	6823      	ldr	r3, [r4, #0]
    3480:	2b00      	cmp	r3, #0
    3482:	d000      	beq.n	3486 <_fstat_r+0x1e>
    3484:	602b      	str	r3, [r5, #0]
    3486:	bd70      	pop	{r4, r5, r6, pc}
    3488:	20000298 	.word	0x20000298

0000348c <_isatty_r>:
    348c:	2300      	movs	r3, #0
    348e:	b570      	push	{r4, r5, r6, lr}
    3490:	4c06      	ldr	r4, [pc, #24]	; (34ac <_isatty_r+0x20>)
    3492:	0005      	movs	r5, r0
    3494:	0008      	movs	r0, r1
    3496:	6023      	str	r3, [r4, #0]
    3498:	f7fe f85e 	bl	1558 <_isatty>
    349c:	1c43      	adds	r3, r0, #1
    349e:	d103      	bne.n	34a8 <_isatty_r+0x1c>
    34a0:	6823      	ldr	r3, [r4, #0]
    34a2:	2b00      	cmp	r3, #0
    34a4:	d000      	beq.n	34a8 <_isatty_r+0x1c>
    34a6:	602b      	str	r3, [r5, #0]
    34a8:	bd70      	pop	{r4, r5, r6, pc}
    34aa:	46c0      	nop			; (mov r8, r8)
    34ac:	20000298 	.word	0x20000298

000034b0 <__locale_ctype_ptr_l>:
    34b0:	30ec      	adds	r0, #236	; 0xec
    34b2:	6800      	ldr	r0, [r0, #0]
    34b4:	4770      	bx	lr
	...

000034b8 <__locale_ctype_ptr>:
    34b8:	4b04      	ldr	r3, [pc, #16]	; (34cc <__locale_ctype_ptr+0x14>)
    34ba:	681b      	ldr	r3, [r3, #0]
    34bc:	6a1b      	ldr	r3, [r3, #32]
    34be:	2b00      	cmp	r3, #0
    34c0:	d100      	bne.n	34c4 <__locale_ctype_ptr+0xc>
    34c2:	4b03      	ldr	r3, [pc, #12]	; (34d0 <__locale_ctype_ptr+0x18>)
    34c4:	33ec      	adds	r3, #236	; 0xec
    34c6:	6818      	ldr	r0, [r3, #0]
    34c8:	4770      	bx	lr
    34ca:	46c0      	nop			; (mov r8, r8)
    34cc:	20000004 	.word	0x20000004
    34d0:	20000068 	.word	0x20000068

000034d4 <_lseek_r>:
    34d4:	b570      	push	{r4, r5, r6, lr}
    34d6:	0005      	movs	r5, r0
    34d8:	0008      	movs	r0, r1
    34da:	0011      	movs	r1, r2
    34dc:	2200      	movs	r2, #0
    34de:	4c06      	ldr	r4, [pc, #24]	; (34f8 <_lseek_r+0x24>)
    34e0:	6022      	str	r2, [r4, #0]
    34e2:	001a      	movs	r2, r3
    34e4:	f7fe f83a 	bl	155c <_lseek>
    34e8:	1c43      	adds	r3, r0, #1
    34ea:	d103      	bne.n	34f4 <_lseek_r+0x20>
    34ec:	6823      	ldr	r3, [r4, #0]
    34ee:	2b00      	cmp	r3, #0
    34f0:	d000      	beq.n	34f4 <_lseek_r+0x20>
    34f2:	602b      	str	r3, [r5, #0]
    34f4:	bd70      	pop	{r4, r5, r6, pc}
    34f6:	46c0      	nop			; (mov r8, r8)
    34f8:	20000298 	.word	0x20000298

000034fc <__ascii_mbtowc>:
    34fc:	b082      	sub	sp, #8
    34fe:	2900      	cmp	r1, #0
    3500:	d100      	bne.n	3504 <__ascii_mbtowc+0x8>
    3502:	a901      	add	r1, sp, #4
    3504:	1e10      	subs	r0, r2, #0
    3506:	d006      	beq.n	3516 <__ascii_mbtowc+0x1a>
    3508:	2b00      	cmp	r3, #0
    350a:	d006      	beq.n	351a <__ascii_mbtowc+0x1e>
    350c:	7813      	ldrb	r3, [r2, #0]
    350e:	600b      	str	r3, [r1, #0]
    3510:	7810      	ldrb	r0, [r2, #0]
    3512:	1e43      	subs	r3, r0, #1
    3514:	4198      	sbcs	r0, r3
    3516:	b002      	add	sp, #8
    3518:	4770      	bx	lr
    351a:	2002      	movs	r0, #2
    351c:	4240      	negs	r0, r0
    351e:	e7fa      	b.n	3516 <__ascii_mbtowc+0x1a>

00003520 <memchr>:
    3520:	b2c9      	uxtb	r1, r1
    3522:	1882      	adds	r2, r0, r2
    3524:	4290      	cmp	r0, r2
    3526:	d101      	bne.n	352c <memchr+0xc>
    3528:	2000      	movs	r0, #0
    352a:	4770      	bx	lr
    352c:	7803      	ldrb	r3, [r0, #0]
    352e:	428b      	cmp	r3, r1
    3530:	d0fb      	beq.n	352a <memchr+0xa>
    3532:	3001      	adds	r0, #1
    3534:	e7f6      	b.n	3524 <memchr+0x4>

00003536 <memcpy>:
    3536:	2300      	movs	r3, #0
    3538:	b510      	push	{r4, lr}
    353a:	429a      	cmp	r2, r3
    353c:	d100      	bne.n	3540 <memcpy+0xa>
    353e:	bd10      	pop	{r4, pc}
    3540:	5ccc      	ldrb	r4, [r1, r3]
    3542:	54c4      	strb	r4, [r0, r3]
    3544:	3301      	adds	r3, #1
    3546:	e7f8      	b.n	353a <memcpy+0x4>

00003548 <__malloc_lock>:
    3548:	4770      	bx	lr

0000354a <__malloc_unlock>:
    354a:	4770      	bx	lr

0000354c <_realloc_r>:
    354c:	b5f8      	push	{r3, r4, r5, r6, r7, lr}
    354e:	0007      	movs	r7, r0
    3550:	000d      	movs	r5, r1
    3552:	0016      	movs	r6, r2
    3554:	2900      	cmp	r1, #0
    3556:	d105      	bne.n	3564 <_realloc_r+0x18>
    3558:	0011      	movs	r1, r2
    355a:	f7fe fd4d 	bl	1ff8 <_malloc_r>
    355e:	0004      	movs	r4, r0
    3560:	0020      	movs	r0, r4
    3562:	bdf8      	pop	{r3, r4, r5, r6, r7, pc}
    3564:	2a00      	cmp	r2, #0
    3566:	d103      	bne.n	3570 <_realloc_r+0x24>
    3568:	f7fe fcfc 	bl	1f64 <_free_r>
    356c:	0034      	movs	r4, r6
    356e:	e7f7      	b.n	3560 <_realloc_r+0x14>
    3570:	f000 f832 	bl	35d8 <_malloc_usable_size_r>
    3574:	002c      	movs	r4, r5
    3576:	4286      	cmp	r6, r0
    3578:	d9f2      	bls.n	3560 <_realloc_r+0x14>
    357a:	0031      	movs	r1, r6
    357c:	0038      	movs	r0, r7
    357e:	f7fe fd3b 	bl	1ff8 <_malloc_r>
    3582:	1e04      	subs	r4, r0, #0
    3584:	d0ec      	beq.n	3560 <_realloc_r+0x14>
    3586:	0029      	movs	r1, r5
    3588:	0032      	movs	r2, r6
    358a:	f7ff ffd4 	bl	3536 <memcpy>
    358e:	0029      	movs	r1, r5
    3590:	0038      	movs	r0, r7
    3592:	f7fe fce7 	bl	1f64 <_free_r>
    3596:	e7e3      	b.n	3560 <_realloc_r+0x14>

00003598 <_read_r>:
    3598:	b570      	push	{r4, r5, r6, lr}
    359a:	0005      	movs	r5, r0
    359c:	0008      	movs	r0, r1
    359e:	0011      	movs	r1, r2
    35a0:	2200      	movs	r2, #0
    35a2:	4c06      	ldr	r4, [pc, #24]	; (35bc <_read_r+0x24>)
    35a4:	6022      	str	r2, [r4, #0]
    35a6:	001a      	movs	r2, r3
    35a8:	f7fc ff6e 	bl	488 <_read>
    35ac:	1c43      	adds	r3, r0, #1
    35ae:	d103      	bne.n	35b8 <_read_r+0x20>
    35b0:	6823      	ldr	r3, [r4, #0]
    35b2:	2b00      	cmp	r3, #0
    35b4:	d000      	beq.n	35b8 <_read_r+0x20>
    35b6:	602b      	str	r3, [r5, #0]
    35b8:	bd70      	pop	{r4, r5, r6, pc}
    35ba:	46c0      	nop			; (mov r8, r8)
    35bc:	20000298 	.word	0x20000298

000035c0 <__ascii_wctomb>:
    35c0:	1e0b      	subs	r3, r1, #0
    35c2:	d004      	beq.n	35ce <__ascii_wctomb+0xe>
    35c4:	2aff      	cmp	r2, #255	; 0xff
    35c6:	d904      	bls.n	35d2 <__ascii_wctomb+0x12>
    35c8:	238a      	movs	r3, #138	; 0x8a
    35ca:	6003      	str	r3, [r0, #0]
    35cc:	3b8b      	subs	r3, #139	; 0x8b
    35ce:	0018      	movs	r0, r3
    35d0:	4770      	bx	lr
    35d2:	700a      	strb	r2, [r1, #0]
    35d4:	2301      	movs	r3, #1
    35d6:	e7fa      	b.n	35ce <__ascii_wctomb+0xe>

000035d8 <_malloc_usable_size_r>:
    35d8:	1f0b      	subs	r3, r1, #4
    35da:	681b      	ldr	r3, [r3, #0]
    35dc:	1f18      	subs	r0, r3, #4
    35de:	2b00      	cmp	r3, #0
    35e0:	da01      	bge.n	35e6 <_malloc_usable_size_r+0xe>
    35e2:	580b      	ldr	r3, [r1, r0]
    35e4:	18c0      	adds	r0, r0, r3
    35e6:	4770      	bx	lr
    35e8:	42000800 	.word	0x42000800
    35ec:	42000c00 	.word	0x42000c00
    35f0:	42001000 	.word	0x42001000
    35f4:	42001400 	.word	0x42001400
    35f8:	42001800 	.word	0x42001800
    35fc:	42001c00 	.word	0x42001c00
    3600:	00000cb2 	.word	0x00000cb2
    3604:	00000cae 	.word	0x00000cae
    3608:	00000cae 	.word	0x00000cae
    360c:	00000d10 	.word	0x00000d10
    3610:	00000d10 	.word	0x00000d10
    3614:	00000cc6 	.word	0x00000cc6
    3618:	00000cb8 	.word	0x00000cb8
    361c:	00000ccc 	.word	0x00000ccc
    3620:	00000cfe 	.word	0x00000cfe
    3624:	00000ed0 	.word	0x00000ed0
    3628:	00000eb0 	.word	0x00000eb0
    362c:	00000eb0 	.word	0x00000eb0
    3630:	00000f3c 	.word	0x00000f3c
    3634:	00000ec2 	.word	0x00000ec2
    3638:	00000ede 	.word	0x00000ede
    363c:	00000eb4 	.word	0x00000eb4
    3640:	00000eec 	.word	0x00000eec
    3644:	00000f2c 	.word	0x00000f2c
    3648:	00007325 	.word	0x00007325
    364c:	20746f67 	.word	0x20746f67
    3650:	20656874 	.word	0x20656874
    3654:	6c6c6f66 	.word	0x6c6c6f66
    3658:	6e69776f 	.word	0x6e69776f
    365c:	25203a67 	.word	0x25203a67
    3660:	000a0d73 	.word	0x000a0d73
    3664:	6c6c6548 	.word	0x6c6c6548
    3668:	6f57206f 	.word	0x6f57206f
    366c:	21646c72 	.word	0x21646c72
    3670:	00000a0d 	.word	0x00000a0d

00003674 <_global_impure_ptr>:
    3674:	20000008                                ... 

00003678 <__sf_fake_stderr>:
	...

00003698 <__sf_fake_stdin>:
	...

000036b8 <__sf_fake_stdout>:
	...
    36d8:	2b302d23 6c680020 6665004c 47464567     #-0+ .hlL.efgEFG
    36e8:	32313000 36353433 41393837 45444342     .0123456789ABCDE
    36f8:	31300046 35343332 39383736 64636261     F.0123456789abcd
    3708:	00006665 0000372a 0000372d 00003730     ef..*7..-7..07..
    3718:	61462d41 3938662d 33323130 37363534     A-Fa-f8901234567
    3728:	2d2b005d 00303000 43005878 534f5000     ].+-.00.xX.C.POS
    3738:	2e005849 20200000                                IX...

0000373d <_ctype_>:
    373d:	20202000 20202020 28282020 20282828     .         ((((( 
    374d:	20202020 20202020 20202020 20202020                     
    375d:	10108820 10101010 10101010 10101010      ...............
    376d:	04040410 04040404 10040404 10101010     ................
    377d:	41411010 41414141 01010101 01010101     ..AAAAAA........
    378d:	01010101 01010101 01010101 10101010     ................
    379d:	42421010 42424242 02020202 02020202     ..BBBBBB........
    37ad:	02020202 02020202 02020202 10101010     ................
    37bd:	00000020 00000000 00000000 00000000      ...............
	...

00003840 <_init>:
    3840:	b5f8      	push	{r3, r4, r5, r6, r7, lr}
    3842:	46c0      	nop			; (mov r8, r8)
    3844:	bcf8      	pop	{r3, r4, r5, r6, r7}
    3846:	bc08      	pop	{r3}
    3848:	469e      	mov	lr, r3
    384a:	4770      	bx	lr

0000384c <__init_array_start>:
    384c:	000000dd 	.word	0x000000dd

00003850 <_fini>:
    3850:	b5f8      	push	{r3, r4, r5, r6, r7, lr}
    3852:	46c0      	nop			; (mov r8, r8)
    3854:	bcf8      	pop	{r3, r4, r5, r6, r7}
    3856:	bc08      	pop	{r3}
    3858:	469e      	mov	lr, r3
    385a:	4770      	bx	lr

0000385c <__fini_array_start>:
    385c:	000000b5 	.word	0x000000b5
